                                      1 ;--------------------------------------------------------
                                      2 ; File Created by SDCC : free open source ISO C Compiler 
                                      3 ; Version 4.4.1 #14650 (Linux)
                                      4 ;--------------------------------------------------------
                                      5 	.module main
                                      6 	.optsdcc -mz80
                                      7 	
                                      8 ;--------------------------------------------------------
                                      9 ; Public variables in this module
                                     10 ;--------------------------------------------------------
                                     11 	.globl _main
                                     12 	.globl b___func_map_compressed
                                     13 	.globl ___func_map_compressed
                                     14 	.globl b___func_map_tiles
                                     15 	.globl ___func_map_tiles
                                     16 	.globl _rle_decompress
                                     17 	.globl _rle_init
                                     18 	.globl _set_tile_map_compat
                                     19 	.globl _set_tile_2bpp_data
                                     20 	.globl _vsync
                                     21 	.globl _datapos
                                     22 	.globl _scrollpos
                                     23 	.globl _data
                                     24 ;--------------------------------------------------------
                                     25 ; special function registers
                                     26 ;--------------------------------------------------------
                         00000000    27 _GG_STATE	=	0x0000
                         00000001    28 _GG_EXT_7BIT	=	0x0001
                         00000002    29 _GG_EXT_CTL	=	0x0002
                         00000003    30 _GG_SIO_SEND	=	0x0003
                         00000004    31 _GG_SIO_RECV	=	0x0004
                         00000005    32 _GG_SIO_CTL	=	0x0005
                         00000006    33 _GG_SOUND_PAN	=	0x0006
                         0000003E    34 _MEMORY_CTL	=	0x003e
                         0000003F    35 _JOY_CTL	=	0x003f
                         0000007E    36 _VCOUNTER	=	0x007e
                         0000007F    37 _PSG	=	0x007f
                         0000007F    38 _HCOUNTER	=	0x007f
                         000000BE    39 _VDP_DATA	=	0x00be
                         000000BF    40 _VDP_CMD	=	0x00bf
                         000000BF    41 _VDP_STATUS	=	0x00bf
                         000000DC    42 _JOY_PORT1	=	0x00dc
                         000000DD    43 _JOY_PORT2	=	0x00dd
                         000000F0    44 _FMADDRESS	=	0x00f0
                         000000F1    45 _FMDATA	=	0x00f1
                         000000F2    46 _AUDIOCTRL	=	0x00f2
                                     47 ;--------------------------------------------------------
                                     48 ; ram data
                                     49 ;--------------------------------------------------------
                                     50 	.area _DATA
                         0000FFFC    51 _RAM_CONTROL	=	0xfffc
                         0000FFF8    52 _GLASSES_3D	=	0xfff8
                         0000FFFD    53 _MAP_FRAME0	=	0xfffd
                         0000FFFE    54 _MAP_FRAME1	=	0xfffe
                         0000FFFF    55 _MAP_FRAME2	=	0xffff
    00000000                         56 _data::
    00000000                         57 	.ds 18
                                     58 ;--------------------------------------------------------
                                     59 ; ram data
                                     60 ;--------------------------------------------------------
                                     61 	.area _INITIALIZED
    00000000                         62 _scrollpos::
    00000000                         63 	.ds 1
    00000001                         64 _datapos::
    00000001                         65 	.ds 1
                                     66 ;--------------------------------------------------------
                                     67 ; absolute external ram data
                                     68 ;--------------------------------------------------------
                                     69 	.area _DABS (ABS)
                                     70 ;--------------------------------------------------------
                                     71 ; global & static initialisations
                                     72 ;--------------------------------------------------------
                                     73 	.area _HOME
                                     74 	.area _GSINIT
                                     75 	.area _GSFINAL
                                     76 	.area _GSINIT
                                     77 ;--------------------------------------------------------
                                     78 ; Home
                                     79 ;--------------------------------------------------------
                                     80 	.area _HOME
                                     81 	.area _HOME
                                     82 ;--------------------------------------------------------
                                     83 ; code
                                     84 ;--------------------------------------------------------
                                     85 	.area _CODE
                                     86 ;src/main.c:8: INCBIN(map_tiles, "res/map_tiles.bin")
                                     87 ;	---------------------------------
                                     88 ; Function __func_map_tiles
                                     89 ; ---------------------------------
                         00000000    90 	b___func_map_tiles	= 0
    00000000                         91 ___func_map_tiles::
    00000000                         92 _map_tiles::
    00000000                         93 1$:
    00000000 FF 00 FF 00 FF 00 FF    94 	.incbin "res/map_tiles.bin" 
             00 FF 00 FF 00 DF 20
             FF 00 FF 00 FF 00 FF
             00 FF 00 3F C0 BF 00
             FF 00 FF 00 FF 00 FF
             00 FF 00 FF 00 FF 00
             FF 00 FF 00 FF 00 FF
             00 EF 10 F8 00 F0 00
             F0 00 E1 00 C5 22 F3
             0C FD 03 F8 07 78 07
             5A 25 BC 43 7C 83 FC
             03 E0 07 FF FF FF FF
             FF FF FF FF FF FF FF
             FF FF FF FF FF FF FF
             FF FF FF FF FF FF FF
             FF FF FF DF FF FF FF
             FF FF FF FF FF FF FF
             FF 3F FF BF FF FF FF
             FF FF
    00000780                         95 2$:
                         00000780    96 	___size_map_tiles = (2$-1$) 
                                     97 	.globl ___size_map_tiles 
                                     98 	.local b___func_map_tiles 
                         00000000    99 	___bank_map_tiles = b___func_map_tiles 
                                    100 	.globl ___bank_map_tiles 
                                    101 ;src/main.c:15: INCBIN(map_compressed, "res/map.bin.rle")
                                    102 ;	---------------------------------
                                    103 ; Function __func_map_compressed
                                    104 ; ---------------------------------
                         00000000   105 	b___func_map_compressed	= 0
    00000780                        106 ___func_map_compressed::
    00000780                        107 _map_compressed::
    00000780                        108 1$:
    00000780 08 00 0D 03 0F 02 02   109 	.incbin "res/map.bin.rle" 
             26 38 FC 05 0E 06 11
             05 05 1E 0D 01 0E 0C
             23 02 02 0B 16 FC 05
             78 07 12 05 05 1F 0E
             02 02 00 0D 26 2A 00
             19 08 13 06 11 4A 5D
             62 41 35 42 02 02 01
             0E 0B 2B 01 1A 09 14
             07 12 1F 0E 0C 1C 37
             23 03 0F 00 0D 02 02
             00 39 06 11 05 05 1E
             02 26 38 1E 02 04 10
             1D 0E 02 02 01 3A 07
             12 05 05 20 24 63 6A
             1F 02 05 05 1E 02 00
             0D 02 3B 06 11 4A 53
             4A 5E 64 02 03 0F 05
             05 1F
    00000E45                        110 2$:
                         000006C5   111 	___size_map_compressed = (2$-1$) 
                                    112 	.globl ___size_map_compressed 
                                    113 	.local b___func_map_compressed 
                         00000000   114 	___bank_map_compressed = b___func_map_compressed 
                                    115 	.globl ___bank_map_compressed 
                                    116 ;src/main.c:22: void main(void) {
                                    117 ;	---------------------------------
                                    118 ; Function main
                                    119 ; ---------------------------------
    00000E45                        120 _main::
    00000E45 DD E5            [15]  121 	push	ix
    00000E47 DD 21 00 00      [14]  122 	ld	ix,#0
    00000E4B DD 39            [15]  123 	add	ix,sp
    00000E4D 3B               [ 6]  124 	dec	sp
                                    125 ;src/main.c:33: set_bkg_data(0, INCBIN_SIZE(map_tiles) >> 4, map_tiles);
    00000E4E 11r00r00         [10]  126 	ld	de, #_map_tiles+0
    00000E51 01r00r00         [10]  127 	ld	bc, #___size_map_tiles+0
    00000E54 CB 38            [ 8]  128 	srl	b
    00000E56 CB 19            [ 8]  129 	rr	c
    00000E58 CB 38            [ 8]  130 	srl	b
    00000E5A CB 19            [ 8]  131 	rr	c
    00000E5C CB 38            [ 8]  132 	srl	b
    00000E5E CB 19            [ 8]  133 	rr	c
    00000E60 CB 38            [ 8]  134 	srl	b
    00000E62 CB 19            [ 8]  135 	rr	c
                                    136 ;../../../include/sms/sms.h:633: set_tile_2bpp_data(start, ntiles, src, _current_2bpp_palette);
    00000E64 2Ar00r00         [16]  137 	ld	hl, (__current_2bpp_palette)
    00000E67 E5               [11]  138 	push	hl
    00000E68 D5               [11]  139 	push	de
    00000E69 C5               [11]  140 	push	bc
    00000E6A 21 00 00         [10]  141 	ld	hl, #0x0000
    00000E6D E5               [11]  142 	push	hl
    00000E6E CDr00r00         [17]  143 	call	_set_tile_2bpp_data
                                    144 ;src/main.c:36: rle_init(map_compressed);
    00000E71 21r80r07         [10]  145 	ld	hl, #_map_compressed
    00000E74 CDr00r00         [17]  146 	call	_rle_init
                                    147 ;src/main.c:41: for (uint8_t i = 0; (i != DEVICE_SCREEN_WIDTH + 1); i++) {
    00000E77 DD 36 FF 00      [19]  148 	ld	-1 (ix), #0x00
    00000E7B                        149 00114$:
    00000E7B DD 7E FF         [19]  150 	ld	a, -1 (ix)
    00000E7E D6 15            [ 7]  151 	sub	a, #0x15
    00000E80 28 2A            [12]  152 	jr	Z, 00103$
                                    153 ;src/main.c:42: rle_decompress(data, MAP_DATA_HEIGHT);
    00000E82 3E 12            [ 7]  154 	ld	a, #0x12
    00000E84 F5               [11]  155 	push	af
    00000E85 33               [ 6]  156 	inc	sp
    00000E86 21r00r00         [10]  157 	ld	hl, #_data
    00000E89 E5               [11]  158 	push	hl
    00000E8A CDr00r00         [17]  159 	call	_rle_decompress
                                    160 ;src/main.c:47: set_bkg_tiles(i & (DEVICE_SCREEN_BUFFER_WIDTH-1), 0, 1, MAP_DATA_HEIGHT, data);
    00000E8D 01r00r00         [10]  161 	ld	bc, #_data
    00000E90 DD 7E FF         [19]  162 	ld	a, -1 (ix)
    00000E93 E6 1F            [ 7]  163 	and	a, #0x1f
    00000E95 C5               [11]  164 	push	bc
    00000E96 26 12            [ 7]  165 	ld	h, #0x12
                                    166 ;	spillPairReg hl
                                    167 ;	spillPairReg hl
    00000E98 E5               [11]  168 	push	hl
    00000E99 33               [ 6]  169 	inc	sp
    00000E9A 26 01            [ 7]  170 	ld	h, #0x01
                                    171 ;	spillPairReg hl
                                    172 ;	spillPairReg hl
    00000E9C E5               [11]  173 	push	hl
    00000E9D 33               [ 6]  174 	inc	sp
    00000E9E 26 00            [ 7]  175 	ld	h, #0x00
                                    176 ;	spillPairReg hl
                                    177 ;	spillPairReg hl
    00000EA0 E5               [11]  178 	push	hl
    00000EA1 33               [ 6]  179 	inc	sp
    00000EA2 F5               [11]  180 	push	af
    00000EA3 33               [ 6]  181 	inc	sp
    00000EA4 CDr00r00         [17]  182 	call	_set_tile_map_compat
                                    183 ;src/main.c:41: for (uint8_t i = 0; (i != DEVICE_SCREEN_WIDTH + 1); i++) {
    00000EA7 DD 34 FF         [23]  184 	inc	-1 (ix)
    00000EAA 18 CF            [12]  185 	jr	00114$
    00000EAC                        186 00103$:
                                    187 ;src/main.c:51: datapos = 0;
    00000EAC 21r01r00         [10]  188 	ld	hl, #_datapos
    00000EAF 36 00            [10]  189 	ld	(hl), #0x00
                                    190 ;src/main.c:52: scrollpos = 1;
    00000EB1 21r00r00         [10]  191 	ld	hl, #_scrollpos
    00000EB4 36 01            [10]  192 	ld	(hl), #0x01
                                    193 ;src/main.c:53: while(TRUE) {
    00000EB6                        194 00109$:
                                    195 ;src/main.c:55: vsync();
    00000EB6 CDr00r00         [17]  196 	call	_vsync
                                    197 ;src/main.c:60: scrollpos++;
    00000EB9 FD 21r00r00      [14]  198 	ld	iy, #_scrollpos
    00000EBD FD 34 00         [23]  199 	inc	0 (iy)
                                    200 ;src/main.c:61: move_bkg(scrollpos, 0);
    00000EC0 3Ar00r00         [13]  201 	ld	a, (_scrollpos+0)
                                    202 ;../../../include/sms/sms.h:223: __WRITE_VDP_REG(VDP_RSCX, -x);
    00000EC3 21r00r00         [10]  203 	ld	hl, #_shadow_VDP_RSCX
    00000EC6 ED 44            [ 8]  204 	neg
    00000EC8 77               [ 7]  205 	ld	(hl), a
    00000EC9 F3               [ 4]  206 	di
    00000ECA 3Ar00r00         [13]  207 	ld	a, (_shadow_VDP_RSCX+0)
    00000ECD D3 BF            [11]  208 	out	(_VDP_CMD), a
    00000ECF 3E 88            [ 7]  209 	ld	a, #0x88
    00000ED1 D3 BF            [11]  210 	out	(_VDP_CMD), a
    00000ED3 FB               [ 4]  211 	ei
                                    212 ;../../../include/sms/sms.h:224: __WRITE_VDP_REG(VDP_RSCY, y);
    00000ED4 FD 21r00r00      [14]  213 	ld	iy, #_shadow_VDP_RSCY
    00000ED8 FD 36 00 00      [19]  214 	ld	0 (iy), #0x00
    00000EDC F3               [ 4]  215 	di
    00000EDD 3E 00            [ 7]  216 	ld	a, #0x00
    00000EDF D3 BF            [11]  217 	out	(_VDP_CMD), a
    00000EE1 3E 89            [ 7]  218 	ld	a, #0x89
    00000EE3 D3 BF            [11]  219 	out	(_VDP_CMD), a
    00000EE5 FB               [ 4]  220 	ei
                                    221 ;src/main.c:65: if ((scrollpos & 0x07u) == 0) {
    00000EE6 3Ar00r00         [13]  222 	ld	a, (_scrollpos+0)
    00000EE9 E6 07            [ 7]  223 	and	a, #0x07
    00000EEB 20 C9            [12]  224 	jr	NZ, 00109$
                                    225 ;src/main.c:69: datapos = (scrollpos >> 3);
    00000EED 3Ar00r00         [13]  226 	ld	a, (_scrollpos+0)
    00000EF0 0F               [ 4]  227 	rrca
    00000EF1 0F               [ 4]  228 	rrca
    00000EF2 0F               [ 4]  229 	rrca
    00000EF3 E6 1F            [ 7]  230 	and	a, #0x1f
    00000EF5 32r01r00         [13]  231 	ld	(_datapos+0), a
                                    232 ;src/main.c:70: uint8_t map_x_column = (datapos + DEVICE_SCREEN_WIDTH) & (DEVICE_SCREEN_BUFFER_WIDTH-1);
    00000EF8 3Ar01r00         [13]  233 	ld	a, (_datapos+0)
    00000EFB C6 14            [ 7]  234 	add	a, #0x14
    00000EFD E6 1F            [ 7]  235 	and	a, #0x1f
    00000EFF DD 77 FF         [19]  236 	ld	-1 (ix), a
                                    237 ;src/main.c:75: if (!rle_decompress(data, MAP_DATA_HEIGHT)) {
    00000F02 3E 12            [ 7]  238 	ld	a, #0x12
    00000F04 F5               [11]  239 	push	af
    00000F05 33               [ 6]  240 	inc	sp
    00000F06 21r00r00         [10]  241 	ld	hl, #_data
    00000F09 E5               [11]  242 	push	hl
    00000F0A CDr00r00         [17]  243 	call	_rle_decompress
    00000F0D 7D               [ 4]  244 	ld	a, l
    00000F0E B7               [ 4]  245 	or	a, a
    00000F0F 20 11            [12]  246 	jr	NZ, 00105$
                                    247 ;src/main.c:76: rle_init(map_compressed);
    00000F11 21r80r07         [10]  248 	ld	hl, #_map_compressed
    00000F14 CDr00r00         [17]  249 	call	_rle_init
                                    250 ;src/main.c:77: rle_decompress(data, MAP_DATA_HEIGHT);
    00000F17 3E 12            [ 7]  251 	ld	a, #0x12
    00000F19 F5               [11]  252 	push	af
    00000F1A 33               [ 6]  253 	inc	sp
    00000F1B 21r00r00         [10]  254 	ld	hl, #_data
    00000F1E E5               [11]  255 	push	hl
    00000F1F CDr00r00         [17]  256 	call	_rle_decompress
    00000F22                        257 00105$:
                                    258 ;src/main.c:83: set_bkg_tiles(map_x_column, 0, 1, MAP_DATA_HEIGHT, data);
    00000F22 21r00r00         [10]  259 	ld	hl, #_data
    00000F25 E5               [11]  260 	push	hl
    00000F26 21 01 12         [10]  261 	ld	hl, #0x1201
    00000F29 E5               [11]  262 	push	hl
    00000F2A AF               [ 4]  263 	xor	a, a
    00000F2B F5               [11]  264 	push	af
    00000F2C 33               [ 6]  265 	inc	sp
    00000F2D DD 7E FF         [19]  266 	ld	a, -1 (ix)
    00000F30 F5               [11]  267 	push	af
    00000F31 33               [ 6]  268 	inc	sp
    00000F32 CDr00r00         [17]  269 	call	_set_tile_map_compat
    00000F35 C3rB6r0E         [10]  270 	jp	00109$
                                    271 ;src/main.c:86: }
    00000F38 33               [ 6]  272 	inc	sp
    00000F39 DD E1            [14]  273 	pop	ix
    00000F3B C9               [10]  274 	ret
                                    275 	.area _CODE
                                    276 	.area _INITIALIZER
    00000000                        277 __xinit__scrollpos:
    00000000 00                     278 	.db #0x00	; 0
    00000001                        279 __xinit__datapos:
    00000001 00                     280 	.db #0x00	; 0
                                    281 	.area _CABS (ABS)
