                                      1 ;--------------------------------------------------------
                                      2 ; File Created by SDCC : free open source ISO C Compiler 
                                      3 ; Version 4.4.1 #14650 (Linux)
                                      4 ;--------------------------------------------------------
                                      5 	.module libc_string
                                      6 	.optsdcc -mz80
                                      7 	
                                      8 ;--------------------------------------------------------
                                      9 ; Public variables in this module
                                     10 ;--------------------------------------------------------
                                     11 	.globl _main
                                     12 	.globl _font_set
                                     13 	.globl _font_load
                                     14 	.globl _font_init
                                     15 	.globl _strncpy
                                     16 	.globl _strncmp
                                     17 	.globl _strncat
                                     18 	.globl _strlen
                                     19 	.globl _strcat
                                     20 	.globl _strcmp
                                     21 	.globl _strcpy
                                     22 	.globl _printf
                                     23 ;--------------------------------------------------------
                                     24 ; special function registers
                                     25 ;--------------------------------------------------------
                         00000000    26 _GG_STATE	=	0x0000
                         00000001    27 _GG_EXT_7BIT	=	0x0001
                         00000002    28 _GG_EXT_CTL	=	0x0002
                         00000003    29 _GG_SIO_SEND	=	0x0003
                         00000004    30 _GG_SIO_RECV	=	0x0004
                         00000005    31 _GG_SIO_CTL	=	0x0005
                         00000006    32 _GG_SOUND_PAN	=	0x0006
                         0000003E    33 _MEMORY_CTL	=	0x003e
                         0000003F    34 _JOY_CTL	=	0x003f
                         0000007E    35 _VCOUNTER	=	0x007e
                         0000007F    36 _PSG	=	0x007f
                         0000007F    37 _HCOUNTER	=	0x007f
                         000000BE    38 _VDP_DATA	=	0x00be
                         000000BF    39 _VDP_CMD	=	0x00bf
                         000000BF    40 _VDP_STATUS	=	0x00bf
                         000000DC    41 _JOY_PORT1	=	0x00dc
                         000000DD    42 _JOY_PORT2	=	0x00dd
                         000000F0    43 _FMADDRESS	=	0x00f0
                         000000F1    44 _FMDATA	=	0x00f1
                         000000F2    45 _AUDIOCTRL	=	0x00f2
                                     46 ;--------------------------------------------------------
                                     47 ; ram data
                                     48 ;--------------------------------------------------------
                                     49 	.area _DATA
                         0000FFFC    50 _RAM_CONTROL	=	0xfffc
                         0000FFF8    51 _GLASSES_3D	=	0xfff8
                         0000FFFD    52 _MAP_FRAME0	=	0xfffd
                         0000FFFE    53 _MAP_FRAME1	=	0xfffe
                         0000FFFF    54 _MAP_FRAME2	=	0xffff
                                     55 ;--------------------------------------------------------
                                     56 ; ram data
                                     57 ;--------------------------------------------------------
                                     58 	.area _INITIALIZED
                                     59 ;--------------------------------------------------------
                                     60 ; absolute external ram data
                                     61 ;--------------------------------------------------------
                                     62 	.area _DABS (ABS)
                                     63 ;--------------------------------------------------------
                                     64 ; global & static initialisations
                                     65 ;--------------------------------------------------------
                                     66 	.area _HOME
                                     67 	.area _GSINIT
                                     68 	.area _GSFINAL
                                     69 	.area _GSINIT
                                     70 ;--------------------------------------------------------
                                     71 ; Home
                                     72 ;--------------------------------------------------------
                                     73 	.area _HOME
                                     74 	.area _HOME
                                     75 ;--------------------------------------------------------
                                     76 ; code
                                     77 ;--------------------------------------------------------
                                     78 	.area _CODE
                                     79 ;src/libc_string.c:12: void main(void)
                                     80 ;	---------------------------------
                                     81 ; Function main
                                     82 ; ---------------------------------
    00000000                         83 _main::
    00000000 DD E5            [15]   84 	push	ix
    00000002 DD 21 00 00      [14]   85 	ld	ix,#0
    00000006 DD 39            [15]   86 	add	ix,sp
    00000008 21 EE FF         [10]   87 	ld	hl, #-18
    0000000B 39               [11]   88 	add	hl, sp
    0000000C F9               [ 6]   89 	ld	sp, hl
                                     90 ;src/libc_string.c:17: font_init();
    0000000D CDr00r00         [17]   91 	call	_font_init
                                     92 ;src/libc_string.c:18: ibm_font = font_load(font_ibm);
    00000010 21r00r00         [10]   93 	ld	hl, #_font_ibm
    00000013 E5               [11]   94 	push	hl
    00000014 CDr00r00         [17]   95 	call	_font_load
                                     96 ;src/libc_string.c:19: font_set(ibm_font);
    00000017 E3               [19]   97 	ex	(sp),hl
    00000018 CDr00r00         [17]   98 	call	_font_set
                                     99 ;src/libc_string.c:22: printf("strlen(gbdk) -> %d\n", strlen("gbdk"));
    0000001B 21r62r01         [10]  100 	ld	hl, #___str_6
    0000001E E3               [19]  101 	ex	(sp),hl
    0000001F CDr00r00         [17]  102 	call	_strlen
    00000022 F1               [10]  103 	pop	af
    00000023 01r4Er01         [10]  104 	ld	bc, #___str_5+0
    00000026 E5               [11]  105 	push	hl
    00000027 C5               [11]  106 	push	bc
    00000028 CDr00r00         [17]  107 	call	_printf
    0000002B F1               [10]  108 	pop	af
    0000002C F1               [10]  109 	pop	af
                                    110 ;src/libc_string.c:24: printf("strcmp(gbdk,gbdk)\n-> %d\n", strcmp("gbdk", "gbdk"));
    0000002D 11r62r01         [10]  111 	ld	de, #___str_6
    00000030 21r62r01         [10]  112 	ld	hl, #___str_6
    00000033 CDr00r00         [17]  113 	call	_strcmp
    00000036 D5               [11]  114 	push	de
    00000037 21r67r01         [10]  115 	ld	hl, #___str_7
    0000003A E5               [11]  116 	push	hl
    0000003B CDr00r00         [17]  117 	call	_printf
    0000003E F1               [10]  118 	pop	af
    0000003F F1               [10]  119 	pop	af
                                    120 ;src/libc_string.c:25: printf("strcmp(gbdk,ggdk)\n-> %d\n", strcmp("gbdk", "ggdk"));
    00000040 11r99r01         [10]  121 	ld	de, #___str_9
    00000043 21r62r01         [10]  122 	ld	hl, #___str_6
    00000046 CDr00r00         [17]  123 	call	_strcmp
    00000049 D5               [11]  124 	push	de
    0000004A 21r80r01         [10]  125 	ld	hl, #___str_8
    0000004D E5               [11]  126 	push	hl
    0000004E CDr00r00         [17]  127 	call	_printf
    00000051 F1               [10]  128 	pop	af
    00000052 F1               [10]  129 	pop	af
                                    130 ;src/libc_string.c:26: printf("strcmp(ggdk,gbdk)\n-> %d\n", strcmp("ggdk", "gbdk"));
    00000053 11r62r01         [10]  131 	ld	de, #___str_6
    00000056 21r99r01         [10]  132 	ld	hl, #___str_9
    00000059 CDr00r00         [17]  133 	call	_strcmp
    0000005C D5               [11]  134 	push	de
    0000005D 21r9Er01         [10]  135 	ld	hl, #___str_10
    00000060 E5               [11]  136 	push	hl
    00000061 CDr00r00         [17]  137 	call	_printf
    00000064 F1               [10]  138 	pop	af
                                    139 ;src/libc_string.c:27: printf("strncmp(gbdk,gbc,2)\n-> %d\n", strncmp("gbdk", "gbc", 2));
    00000065 21 02 00         [10]  140 	ld	hl, #0x0002
    00000068 E3               [19]  141 	ex	(sp),hl
    00000069 11rD2r01         [10]  142 	ld	de, #___str_12
    0000006C 21r62r01         [10]  143 	ld	hl, #___str_6
    0000006F CDr00r00         [17]  144 	call	_strncmp
    00000072 D5               [11]  145 	push	de
    00000073 21rB7r01         [10]  146 	ld	hl, #___str_11
    00000076 E5               [11]  147 	push	hl
    00000077 CDr00r00         [17]  148 	call	_printf
    0000007A F1               [10]  149 	pop	af
    0000007B F1               [10]  150 	pop	af
                                    151 ;src/libc_string.c:30: char dst[4] = "dst";
    0000007C DD 36 FC 64      [19]  152 	ld	-4 (ix), #0x64
    00000080 DD 36 FD 73      [19]  153 	ld	-3 (ix), #0x73
    00000084 DD 36 FE 74      [19]  154 	ld	-2 (ix), #0x74
    00000088 DD 36 FF 00      [19]  155 	ld	-1 (ix), #0x00
                                    156 ;src/libc_string.c:31: const char* src = "src";
                                    157 ;src/libc_string.c:32: strcpy(dst, src);
    0000008C 21r4Ar01         [10]  158 	ld	hl, #___str_1
    0000008F E5               [11]  159 	push	hl
    00000090 21 10 00         [10]  160 	ld	hl, #16
    00000093 39               [11]  161 	add	hl, sp
    00000094 E5               [11]  162 	push	hl
    00000095 CDr00r00         [17]  163 	call	_strcpy
    00000098 F1               [10]  164 	pop	af
    00000099 F1               [10]  165 	pop	af
                                    166 ;src/libc_string.c:33: printf("strcpy(dst,src)\n-> %s\n", dst);
    0000009A 21 0E 00         [10]  167 	ld	hl, #14
    0000009D 39               [11]  168 	add	hl, sp
    0000009E E5               [11]  169 	push	hl
    0000009F 21rD6r01         [10]  170 	ld	hl, #___str_13
    000000A2 E5               [11]  171 	push	hl
    000000A3 CDr00r00         [17]  172 	call	_printf
    000000A6 F1               [10]  173 	pop	af
    000000A7 F1               [10]  174 	pop	af
                                    175 ;src/libc_string.c:37: char dst[4] = "dst";
    000000A8 DD 36 FC 64      [19]  176 	ld	-4 (ix), #0x64
    000000AC DD 36 FD 73      [19]  177 	ld	-3 (ix), #0x73
    000000B0 DD 36 FE 74      [19]  178 	ld	-2 (ix), #0x74
    000000B4 DD 36 FF 00      [19]  179 	ld	-1 (ix), #0x00
                                    180 ;src/libc_string.c:38: const char* src = "src";
                                    181 ;src/libc_string.c:39: strncpy(dst, src, 2);
    000000B8 21 02 00         [10]  182 	ld	hl, #0x0002
    000000BB E5               [11]  183 	push	hl
    000000BC 11r4Ar01         [10]  184 	ld	de, #___str_1
    000000BF 21 10 00         [10]  185 	ld	hl, #16
    000000C2 39               [11]  186 	add	hl, sp
    000000C3 CDr00r00         [17]  187 	call	_strncpy
                                    188 ;src/libc_string.c:40: printf("strncpy(dst,src,2)\n-> %s\n", dst);
    000000C6 21 0E 00         [10]  189 	ld	hl, #14
    000000C9 39               [11]  190 	add	hl, sp
    000000CA E5               [11]  191 	push	hl
    000000CB 21rEDr01         [10]  192 	ld	hl, #___str_14
    000000CE E5               [11]  193 	push	hl
    000000CF CDr00r00         [17]  194 	call	_printf
    000000D2 F1               [10]  195 	pop	af
    000000D3 F1               [10]  196 	pop	af
                                    197 ;src/libc_string.c:44: char dst[9] = "gbdk";
    000000D4 DD 36 EE 67      [19]  198 	ld	-18 (ix), #0x67
    000000D8 DD 36 EF 62      [19]  199 	ld	-17 (ix), #0x62
    000000DC DD 36 F0 64      [19]  200 	ld	-16 (ix), #0x64
    000000E0 DD 36 F1 6B      [19]  201 	ld	-15 (ix), #0x6b
    000000E4 DD 36 F2 00      [19]  202 	ld	-14 (ix), #0x00
    000000E8 DD 36 F3 00      [19]  203 	ld	-13 (ix), #0x00
    000000EC DD 36 F4 00      [19]  204 	ld	-12 (ix), #0x00
    000000F0 DD 36 F5 00      [19]  205 	ld	-11 (ix), #0x00
    000000F4 DD 36 F6 00      [19]  206 	ld	-10 (ix), #0x00
                                    207 ;src/libc_string.c:45: char dst2[9] = "gbdk";
    000000F8 DD 36 F7 67      [19]  208 	ld	-9 (ix), #0x67
    000000FC DD 36 F8 62      [19]  209 	ld	-8 (ix), #0x62
    00000100 DD 36 F9 64      [19]  210 	ld	-7 (ix), #0x64
    00000104 DD 36 FA 6B      [19]  211 	ld	-6 (ix), #0x6b
    00000108 DD 36 FB 00      [19]  212 	ld	-5 (ix), #0x00
    0000010C DD 36 FC 00      [19]  213 	ld	-4 (ix), #0x00
    00000110 DD 36 FD 00      [19]  214 	ld	-3 (ix), #0x00
    00000114 DD 36 FE 00      [19]  215 	ld	-2 (ix), #0x00
    00000118 DD 36 FF 00      [19]  216 	ld	-1 (ix), #0x00
                                    217 ;src/libc_string.c:46: printf("strcat(gbdk,2020)\n-> %s\n", strcat(dst, "2020"));
    0000011C 11r20r02         [10]  218 	ld	de, #___str_16
    0000011F 21 00 00         [10]  219 	ld	hl, #0
    00000122 39               [11]  220 	add	hl, sp
    00000123 CDr00r00         [17]  221 	call	_strcat
    00000126 D5               [11]  222 	push	de
    00000127 21r07r02         [10]  223 	ld	hl, #___str_15
    0000012A E5               [11]  224 	push	hl
    0000012B CDr00r00         [17]  225 	call	_printf
    0000012E F1               [10]  226 	pop	af
                                    227 ;src/libc_string.c:47: printf("strncat(gbdk,lib,2)\n-> %s\n", strncat(dst2, "lib",2));
    0000012F 21 02 00         [10]  228 	ld	hl, #0x0002
    00000132 E3               [19]  229 	ex	(sp),hl
    00000133 11r40r02         [10]  230 	ld	de, #___str_18
    00000136 21 0B 00         [10]  231 	ld	hl, #11
    00000139 39               [11]  232 	add	hl, sp
    0000013A CDr00r00         [17]  233 	call	_strncat
    0000013D D5               [11]  234 	push	de
    0000013E 21r25r02         [10]  235 	ld	hl, #___str_17
    00000141 E5               [11]  236 	push	hl
    00000142 CDr00r00         [17]  237 	call	_printf
                                    238 ;src/libc_string.c:49: }
    00000145 DD F9            [10]  239 	ld	sp,ix
    00000147 DD E1            [14]  240 	pop	ix
    00000149 C9               [10]  241 	ret
    0000014A                        242 ___str_1:
    0000014A 73 72 63               243 	.ascii "src"
    0000014D 00                     244 	.db 0x00
    0000014E                        245 ___str_5:
    0000014E 73 74 72 6C 65 6E 28   246 	.ascii "strlen(gbdk) -> %d"
             67 62 64 6B 29 20 2D
             3E 20 25 64
    00000160 0A                     247 	.db 0x0a
    00000161 00                     248 	.db 0x00
    00000162                        249 ___str_6:
    00000162 67 62 64 6B            250 	.ascii "gbdk"
    00000166 00                     251 	.db 0x00
    00000167                        252 ___str_7:
    00000167 73 74 72 63 6D 70 28   253 	.ascii "strcmp(gbdk,gbdk)"
             67 62 64 6B 2C 67 62
             64 6B 29
    00000178 0A                     254 	.db 0x0a
    00000179 2D 3E 20 25 64         255 	.ascii "-> %d"
    0000017E 0A                     256 	.db 0x0a
    0000017F 00                     257 	.db 0x00
    00000180                        258 ___str_8:
    00000180 73 74 72 63 6D 70 28   259 	.ascii "strcmp(gbdk,ggdk)"
             67 62 64 6B 2C 67 67
             64 6B 29
    00000191 0A                     260 	.db 0x0a
    00000192 2D 3E 20 25 64         261 	.ascii "-> %d"
    00000197 0A                     262 	.db 0x0a
    00000198 00                     263 	.db 0x00
    00000199                        264 ___str_9:
    00000199 67 67 64 6B            265 	.ascii "ggdk"
    0000019D 00                     266 	.db 0x00
    0000019E                        267 ___str_10:
    0000019E 73 74 72 63 6D 70 28   268 	.ascii "strcmp(ggdk,gbdk)"
             67 67 64 6B 2C 67 62
             64 6B 29
    000001AF 0A                     269 	.db 0x0a
    000001B0 2D 3E 20 25 64         270 	.ascii "-> %d"
    000001B5 0A                     271 	.db 0x0a
    000001B6 00                     272 	.db 0x00
    000001B7                        273 ___str_11:
    000001B7 73 74 72 6E 63 6D 70   274 	.ascii "strncmp(gbdk,gbc,2)"
             28 67 62 64 6B 2C 67
             62 63 2C 32 29
    000001CA 0A                     275 	.db 0x0a
    000001CB 2D 3E 20 25 64         276 	.ascii "-> %d"
    000001D0 0A                     277 	.db 0x0a
    000001D1 00                     278 	.db 0x00
    000001D2                        279 ___str_12:
    000001D2 67 62 63               280 	.ascii "gbc"
    000001D5 00                     281 	.db 0x00
    000001D6                        282 ___str_13:
    000001D6 73 74 72 63 70 79 28   283 	.ascii "strcpy(dst,src)"
             64 73 74 2C 73 72 63
             29
    000001E5 0A                     284 	.db 0x0a
    000001E6 2D 3E 20 25 73         285 	.ascii "-> %s"
    000001EB 0A                     286 	.db 0x0a
    000001EC 00                     287 	.db 0x00
    000001ED                        288 ___str_14:
    000001ED 73 74 72 6E 63 70 79   289 	.ascii "strncpy(dst,src,2)"
             28 64 73 74 2C 73 72
             63 2C 32 29
    000001FF 0A                     290 	.db 0x0a
    00000200 2D 3E 20 25 73         291 	.ascii "-> %s"
    00000205 0A                     292 	.db 0x0a
    00000206 00                     293 	.db 0x00
    00000207                        294 ___str_15:
    00000207 73 74 72 63 61 74 28   295 	.ascii "strcat(gbdk,2020)"
             67 62 64 6B 2C 32 30
             32 30 29
    00000218 0A                     296 	.db 0x0a
    00000219 2D 3E 20 25 73         297 	.ascii "-> %s"
    0000021E 0A                     298 	.db 0x0a
    0000021F 00                     299 	.db 0x00
    00000220                        300 ___str_16:
    00000220 32 30 32 30            301 	.ascii "2020"
    00000224 00                     302 	.db 0x00
    00000225                        303 ___str_17:
    00000225 73 74 72 6E 63 61 74   304 	.ascii "strncat(gbdk,lib,2)"
             28 67 62 64 6B 2C 6C
             69 62 2C 32 29
    00000238 0A                     305 	.db 0x0a
    00000239 2D 3E 20 25 73         306 	.ascii "-> %s"
    0000023E 0A                     307 	.db 0x0a
    0000023F 00                     308 	.db 0x00
    00000240                        309 ___str_18:
    00000240 6C 69 62               310 	.ascii "lib"
    00000243 00                     311 	.db 0x00
                                    312 	.area _CODE
                                    313 	.area _INITIALIZER
                                    314 	.area _CABS (ABS)
