                                      1 ;--------------------------------------------------------
                                      2 ; File Created by SDCC : free open source ISO C Compiler 
                                      3 ; Version 4.4.1 #14650 (Linux)
                                      4 ;--------------------------------------------------------
                                      5 	.module emu_debug
                                      6 	.optsdcc -msm83
                                      7 	
                                      8 ;--------------------------------------------------------
                                      9 ; Public variables in this module
                                     10 ;--------------------------------------------------------
                                     11 	.globl _main
                                     12 	.globl _EMU_printf
                                     13 	.globl _EMU_profiler_message
                                     14 	.globl _puts
                                     15 	.globl _printf
                                     16 	.globl _set_default_palette
                                     17 	.globl _cpu_fast
                                     18 	.globl _cpu_slow
                                     19 ;--------------------------------------------------------
                                     20 ; special function registers
                                     21 ;--------------------------------------------------------
                                     22 ;--------------------------------------------------------
                                     23 ; ram data
                                     24 ;--------------------------------------------------------
                                     25 	.area _DATA
                                     26 ;--------------------------------------------------------
                                     27 ; ram data
                                     28 ;--------------------------------------------------------
                                     29 	.area _INITIALIZED
    00000000                         30 ___EMU_PROFILER_INIT:
    00000000                         31 	.ds 2
                                     32 ;--------------------------------------------------------
                                     33 ; absolute external ram data
                                     34 ;--------------------------------------------------------
                                     35 	.area _DABS (ABS)
                                     36 ;--------------------------------------------------------
                                     37 ; global & static initialisations
                                     38 ;--------------------------------------------------------
                                     39 	.area _HOME
                                     40 	.area _GSINIT
                                     41 	.area _GSFINAL
                                     42 	.area _GSINIT
                                     43 ;--------------------------------------------------------
                                     44 ; Home
                                     45 ;--------------------------------------------------------
                                     46 	.area _HOME
                                     47 	.area _HOME
                                     48 ;--------------------------------------------------------
                                     49 ; code
                                     50 ;--------------------------------------------------------
                                     51 	.area _CODE
                                     52 ;src/emu_debug.c:26: int main(void)
                                     53 ;	---------------------------------
                                     54 ; Function main
                                     55 ; ---------------------------------
    00000000                         56 _main::
                                     57 ;src/emu_debug.c:28: SHOW_BKG;
    00000000 F0r00            [12]   58 	ldh	a, (_LCDC_REG + 0)
    00000002 F6 01            [ 8]   59 	or	a, #0x01
    00000004 E0r00            [12]   60 	ldh	(_LCDC_REG + 0), a
                                     61 ;src/emu_debug.c:29: DISPLAY_ON;
    00000006 F0r00            [12]   62 	ldh	a, (_LCDC_REG + 0)
    00000008 F6 80            [ 8]   63 	or	a, #0x80
    0000000A E0r00            [12]   64 	ldh	(_LCDC_REG + 0), a
                                     65 ;src/emu_debug.c:32: printf("Message to the\nScreen\n");
    0000000C 11rF5r03         [12]   66 	ld	de, #___str_1
    0000000F CDr00r00         [24]   67 	call	_puts
                                     68 ;src/emu_debug.c:35: EMU_MESSAGE(""); // new line
                                     69 	.MACRO EMULOG35 msg_t, ?llbl 
                                     70 	ld d, d 
                                     71 	jr llbl 
                                     72 	.dw 0x6464 
                                     73 	.dw 0x0000 
                                     74 	.ascii msg_t 
                                     75 llbl:
                                     76 	.ENDM 
    00000012                         77 	EMULOG35 ^/""/ 
    00000012 52               [ 4]    1 	ld d, d 
    00000013 18 04            [12]    2 	jr 10000$ 
    00000015 64 64                    3 	.dw 0x6464 
    00000017 00 00                    4 	.dw 0x0000 
    00000019                          5 	.ascii "" 
    00000019                          6 10000$:
                                     78 ;src/emu_debug.c:36: EMU_MESSAGE("Message to the EMU console");
                                     79 	.MACRO EMULOG36 msg_t, ?llbl 
                                     80 	ld d, d 
                                     81 	jr llbl 
                                     82 	.dw 0x6464 
                                     83 	.dw 0x0000 
                                     84 	.ascii msg_t 
                                     85 llbl:
                                     86 	.ENDM 
    00000019                         87 	EMULOG36 ^/"Message to the EMU console"/ 
    00000019 52               [ 4]    1 	ld d, d 
    0000001A 18 1E            [12]    2 	jr 10001$ 
    0000001C 64 64                    3 	.dw 0x6464 
    0000001E 00 00                    4 	.dw 0x0000 
    00000020 4D 65 73 73 61 67 65     5 	.ascii "Message to the EMU console" 
             20 74 6F 20 74 68 65
             20 45 4D 55 20 63 6F
             6E 73 6F 6C 65
    0000003A                          6 10001$:
                                     88 ;src/emu_debug.c:53: }
    0000003A F3               [ 4]   89 	di
                                     90 ;src/emu_debug.c:50: EMU_PROFILE_BEGIN("Profile a single NOP instruction at Normal Speed");
                                     91 	.MACRO EMULOG50 msg_t, msg_s, ?llbl 
                                     92 	ld d, d 
                                     93 	jr llbl 
                                     94 	.dw 0x6464 
                                     95 	.dw 0x0000 
                                     96 	.ascii msg_t 
                                     97 	.ascii msg_s 
                                     98 llbl:
                                     99 	.ENDM 
    0000003B                        100 	EMULOG50 ^/"Profile a single NOP instruction at Normal Speed"/, ^/"%ZEROCLKS%"/ 
    0000003B 52               [ 4]    1 	ld d, d 
    0000003C 18 3E            [12]    2 	jr 10002$ 
    0000003E 64 64                    3 	.dw 0x6464 
    00000040 00 00                    4 	.dw 0x0000 
    00000042 50 72 6F 66 69 6C 65     5 	.ascii "Profile a single NOP instruction at Normal Speed" 
             20 61 20 73 69 6E 67
             6C 65 20 4E 4F 50 20
             69 6E 73 74 72 75 63
             74 69 6F 6E 20 61 74
             20 4E 6F 72 6D 61 6C
             20 53 70 65 65 64
    00000072 25 5A 45 52 4F 43 4C     6 	.ascii "%ZEROCLKS%" 
             4B 53 25
    0000007C                          7 10002$:
                                    101 ;src/emu_debug.c:51: __asm__("nop");
    0000007C 00               [ 4]  102 	nop
                                    103 ;src/emu_debug.c:52: EMU_PROFILE_END("NOP TIME:");
                                    104 	.MACRO EMULOG52 msg_t, msg_s, ?llbl 
                                    105 	ld d, d 
                                    106 	jr llbl 
                                    107 	.dw 0x6464 
                                    108 	.dw 0x0000 
                                    109 	.ascii msg_t 
                                    110 	.ascii msg_s 
                                    111 llbl:
                                    112 	.ENDM 
    0000007D                        113 	EMULOG52 ^/"NOP TIME:"/, ^/"%-8+LASTCLKS%"/ 
    0000007D 52               [ 4]    1 	ld d, d 
    0000007E 18 1A            [12]    2 	jr 10003$ 
    00000080 64 64                    3 	.dw 0x6464 
    00000082 00 00                    4 	.dw 0x0000 
    00000084 4E 4F 50 20 54 49 4D     5 	.ascii "NOP TIME:" 
             45 3A
    0000008D 25 2D 38 2B 4C 41 53     6 	.ascii "%-8+LASTCLKS%" 
             54 43 4C 4B 53 25
    0000009A                          7 10003$:
    0000009A FB               [ 4]  114 	ei
                                    115 ;src/emu_debug.c:66: if (DEVICE_SUPPORTS_COLOR) {
    0000009B 21r00r00         [12]  116 	ld	hl, #__cpu
    0000009E 7E               [ 8]  117 	ld	a, (hl)
    0000009F D6 11            [ 8]  118 	sub	a, #0x11
    000000A1 C2r12r01         [16]  119 	jp	NZ,00102$
                                    120 ;src/emu_debug.c:70: cpu_fast();
    000000A4 CDr00r00         [24]  121 	call	_cpu_fast
                                    122 ;src/emu_debug.c:72: set_default_palette();
    000000A7 CDr00r00         [24]  123 	call	_set_default_palette
                                    124 ;src/emu_debug.c:85: }
    000000AA F3               [ 4]  125 	di
                                    126 ;src/emu_debug.c:80: EMU_PROFILE_BEGIN("Profile a single NOP instruction at CGB Double Speed");
                                    127 	.MACRO EMULOG80 msg_t, msg_s, ?llbl 
                                    128 	ld d, d 
                                    129 	jr llbl 
                                    130 	.dw 0x6464 
                                    131 	.dw 0x0000 
                                    132 	.ascii msg_t 
                                    133 	.ascii msg_s 
                                    134 llbl:
                                    135 	.ENDM 
    000000AB                        136 	EMULOG80 ^/"Profile a single NOP instruction at CGB Double Speed"/, ^/"%ZEROCLKS%"/ 
    000000AB 52               [ 4]    1 	ld d, d 
    000000AC 18 42            [12]    2 	jr 10004$ 
    000000AE 64 64                    3 	.dw 0x6464 
    000000B0 00 00                    4 	.dw 0x0000 
    000000B2 50 72 6F 66 69 6C 65     5 	.ascii "Profile a single NOP instruction at CGB Double Speed" 
             20 61 20 73 69 6E 67
             6C 65 20 4E 4F 50 20
             69 6E 73 74 72 75 63
             74 69 6F 6E 20 61 74
             20 43 47 42 20 44 6F
             75 62 6C 65 20 53 70
             65 65 64
    000000E6 25 5A 45 52 4F 43 4C     6 	.ascii "%ZEROCLKS%" 
             4B 53 25
    000000F0                          7 10004$:
                                    137 ;src/emu_debug.c:81: __asm__("nop");
    000000F0 00               [ 4]  138 	nop
                                    139 ;src/emu_debug.c:84: EMU_MESSAGE("NOP TIME:%-4+LASTCLKS%");
                                    140 	.MACRO EMULOG84 msg_t, ?llbl 
                                    141 	ld d, d 
                                    142 	jr llbl 
                                    143 	.dw 0x6464 
                                    144 	.dw 0x0000 
                                    145 	.ascii msg_t 
                                    146 llbl:
                                    147 	.ENDM 
    000000F1                        148 	EMULOG84 ^/"NOP TIME:%-4+LASTCLKS%"/ 
    000000F1 52               [ 4]    1 	ld d, d 
    000000F2 18 1A            [12]    2 	jr 10005$ 
    000000F4 64 64                    3 	.dw 0x6464 
    000000F6 00 00                    4 	.dw 0x0000 
    000000F8 4E 4F 50 20 54 49 4D     5 	.ascii "NOP TIME:%-4+LASTCLKS%" 
             45 3A 25 2D 34 2B 4C
             41 53 54 43 4C 4B 53
             25
    0000010E                          6 10005$:
    0000010E FB               [ 4]  149 	ei
                                    150 ;src/emu_debug.c:88: cpu_slow();
    0000010F CDr00r00         [24]  151 	call	_cpu_slow
    00000112                        152 00102$:
                                    153 ;src/emu_debug.c:106: }
    00000112 F3               [ 4]  154 	di
                                    155 ;src/emu_debug.c:98: EMU_PROFILE_BEGIN("Profile code in a loop");
                                    156 	.MACRO EMULOG98 msg_t, msg_s, ?llbl 
                                    157 	ld d, d 
                                    158 	jr llbl 
                                    159 	.dw 0x6464 
                                    160 	.dw 0x0000 
                                    161 	.ascii msg_t 
                                    162 	.ascii msg_s 
                                    163 llbl:
                                    164 	.ENDM 
    00000113                        165 	EMULOG98 ^/"Profile code in a loop"/, ^/"%ZEROCLKS%"/ 
    00000113 52               [ 4]    1 	ld d, d 
    00000114 18 24            [12]    2 	jr 10006$ 
    00000116 64 64                    3 	.dw 0x6464 
    00000118 00 00                    4 	.dw 0x0000 
    0000011A 50 72 6F 66 69 6C 65     5 	.ascii "Profile code in a loop" 
             20 63 6F 64 65 20 69
             6E 20 61 20 6C 6F 6F
             70
    00000130 25 5A 45 52 4F 43 4C     6 	.ascii "%ZEROCLKS%" 
             4B 53 25
    0000013A                          7 10006$:
                                    166 ;src/emu_debug.c:99: for(c=0; c<5; c++) {
    0000013A 01 00 00         [12]  167 	ld	bc, #0x0000
    0000013D                        168 00104$:
                                    169 ;src/emu_debug.c:101: printf("%d\n", c);
    0000013D C5               [16]  170 	push	bc
    0000013E C5               [16]  171 	push	bc
    0000013F 11r0Br04         [12]  172 	ld	de, #___str_2
    00000142 D5               [16]  173 	push	de
    00000143 CDr00r00         [24]  174 	call	_printf
    00000146 E8 04            [16]  175 	add	sp, #4
    00000148 C1               [12]  176 	pop	bc
                                    177 ;src/emu_debug.c:99: for(c=0; c<5; c++) {
    00000149 03               [ 8]  178 	inc	bc
    0000014A 79               [ 4]  179 	ld	a, c
    0000014B D6 05            [ 8]  180 	sub	a, #0x05
    0000014D 78               [ 4]  181 	ld	a, b
    0000014E 17               [ 4]  182 	rla
    0000014F 3F               [ 4]  183 	ccf
    00000150 1F               [ 4]  184 	rra
    00000151 DE 80            [ 8]  185 	sbc	a, #0x80
    00000153 38 E8            [12]  186 	jr	C, 00104$
                                    187 ;src/emu_debug.c:105: EMU_PROFILE_END("LOOP TIME:");
                                    188 	.MACRO EMULOG105 msg_t, msg_s, ?llbl 
                                    189 	ld d, d 
                                    190 	jr llbl 
                                    191 	.dw 0x6464 
                                    192 	.dw 0x0000 
                                    193 	.ascii msg_t 
                                    194 	.ascii msg_s 
                                    195 llbl:
                                    196 	.ENDM 
    00000155                        197 	EMULOG105 ^/"LOOP TIME:"/, ^/"%-8+LASTCLKS%"/ 
    00000155 52               [ 4]    1 	ld d, d 
    00000156 18 1B            [12]    2 	jr 10007$ 
    00000158 64 64                    3 	.dw 0x6464 
    0000015A 00 00                    4 	.dw 0x0000 
    0000015C 4C 4F 4F 50 20 54 49     5 	.ascii "LOOP TIME:" 
             4D 45 3A
    00000166 25 2D 38 2B 4C 41 53     6 	.ascii "%-8+LASTCLKS%" 
             54 43 4C 4B 53 25
    00000173                          7 10007$:
    00000173 FB               [ 4]  198 	ei
                                    199 ;src/emu_debug.c:112: EMU_MESSAGE("Total Clocks: %TOTALCLKS%");
                                    200 	.MACRO EMULOG112 msg_t, ?llbl 
                                    201 	ld d, d 
                                    202 	jr llbl 
                                    203 	.dw 0x6464 
                                    204 	.dw 0x0000 
                                    205 	.ascii msg_t 
                                    206 llbl:
                                    207 	.ENDM 
    00000174                        208 	EMULOG112 ^/"Total Clocks: %TOTALCLKS%"/ 
    00000174 52               [ 4]    1 	ld d, d 
    00000175 18 1D            [12]    2 	jr 10008$ 
    00000177 64 64                    3 	.dw 0x6464 
    00000179 00 00                    4 	.dw 0x0000 
    0000017B 54 6F 74 61 6C 20 43     5 	.ascii "Total Clocks: %TOTALCLKS%" 
             6C 6F 63 6B 73 3A 20
             25 54 4F 54 41 4C 43
             4C 4B 53 25
    00000194                          6 10008$:
                                    209 ;src/emu_debug.c:115: EMU_MESSAGE("Clocks until VBLANK: %CLKS2VBLANK%");
                                    210 	.MACRO EMULOG115 msg_t, ?llbl 
                                    211 	ld d, d 
                                    212 	jr llbl 
                                    213 	.dw 0x6464 
                                    214 	.dw 0x0000 
                                    215 	.ascii msg_t 
                                    216 llbl:
                                    217 	.ENDM 
    00000194                        218 	EMULOG115 ^/"Clocks until VBLANK: %CLKS2VBLANK%"/ 
    00000194 52               [ 4]    1 	ld d, d 
    00000195 18 26            [12]    2 	jr 10009$ 
    00000197 64 64                    3 	.dw 0x6464 
    00000199 00 00                    4 	.dw 0x0000 
    0000019B 43 6C 6F 63 6B 73 20     5 	.ascii "Clocks until VBLANK: %CLKS2VBLANK%" 
             75 6E 74 69 6C 20 56
             42 4C 41 4E 4B 3A 20
             25 43 4C 4B 53 32 56
             42 4C 41 4E 4B 25
    000001BD                          6 10009$:
                                    219 ;src/emu_debug.c:118: EMU_MESSAGE("Current  ROM bank: %ROMBANK%");
                                    220 	.MACRO EMULOG118 msg_t, ?llbl 
                                    221 	ld d, d 
                                    222 	jr llbl 
                                    223 	.dw 0x6464 
                                    224 	.dw 0x0000 
                                    225 	.ascii msg_t 
                                    226 llbl:
                                    227 	.ENDM 
    000001BD                        228 	EMULOG118 ^/"Current  ROM bank: %ROMBANK%"/ 
    000001BD 52               [ 4]    1 	ld d, d 
    000001BE 18 20            [12]    2 	jr 10010$ 
    000001C0 64 64                    3 	.dw 0x6464 
    000001C2 00 00                    4 	.dw 0x0000 
    000001C4 43 75 72 72 65 6E 74     5 	.ascii "Current  ROM bank: %ROMBANK%" 
             20 20 52 4F 4D 20 62
             61 6E 6B 3A 20 25 52
             4F 4D 42 41 4E 4B 25
    000001E0                          6 10010$:
                                    229 ;src/emu_debug.c:119: EMU_MESSAGE("Current SRAM bank: %SRAMBANK%");
                                    230 	.MACRO EMULOG119 msg_t, ?llbl 
                                    231 	ld d, d 
                                    232 	jr llbl 
                                    233 	.dw 0x6464 
                                    234 	.dw 0x0000 
                                    235 	.ascii msg_t 
                                    236 llbl:
                                    237 	.ENDM 
    000001E0                        238 	EMULOG119 ^/"Current SRAM bank: %SRAMBANK%"/ 
    000001E0 52               [ 4]    1 	ld d, d 
    000001E1 18 21            [12]    2 	jr 10011$ 
    000001E3 64 64                    3 	.dw 0x6464 
    000001E5 00 00                    4 	.dw 0x0000 
    000001E7 43 75 72 72 65 6E 74     5 	.ascii "Current SRAM bank: %SRAMBANK%" 
             20 53 52 41 4D 20 62
             61 6E 6B 3A 20 25 53
             52 41 4D 42 41 4E 4B
             25
    00000204                          6 10011$:
                                    239 ;src/emu_debug.c:121: EMU_MESSAGE("Current VRAM bank: %VRAMBANK%");
                                    240 	.MACRO EMULOG121 msg_t, ?llbl 
                                    241 	ld d, d 
                                    242 	jr llbl 
                                    243 	.dw 0x6464 
                                    244 	.dw 0x0000 
                                    245 	.ascii msg_t 
                                    246 llbl:
                                    247 	.ENDM 
    00000204                        248 	EMULOG121 ^/"Current VRAM bank: %VRAMBANK%"/ 
    00000204 52               [ 4]    1 	ld d, d 
    00000205 18 21            [12]    2 	jr 10012$ 
    00000207 64 64                    3 	.dw 0x6464 
    00000209 00 00                    4 	.dw 0x0000 
    0000020B 43 75 72 72 65 6E 74     5 	.ascii "Current VRAM bank: %VRAMBANK%" 
             20 56 52 41 4D 20 62
             61 6E 6B 3A 20 25 56
             52 41 4D 42 41 4E 4B
             25
    00000228                          6 10012$:
                                    249 ;src/emu_debug.c:122: EMU_MESSAGE("Current WRAM bank: %WRAMBANK%");
                                    250 	.MACRO EMULOG122 msg_t, ?llbl 
                                    251 	ld d, d 
                                    252 	jr llbl 
                                    253 	.dw 0x6464 
                                    254 	.dw 0x0000 
                                    255 	.ascii msg_t 
                                    256 llbl:
                                    257 	.ENDM 
    00000228                        258 	EMULOG122 ^/"Current WRAM bank: %WRAMBANK%"/ 
    00000228 52               [ 4]    1 	ld d, d 
    00000229 18 21            [12]    2 	jr 10013$ 
    0000022B 64 64                    3 	.dw 0x6464 
    0000022D 00 00                    4 	.dw 0x0000 
    0000022F 43 75 72 72 65 6E 74     5 	.ascii "Current WRAM bank: %WRAMBANK%" 
             20 57 52 41 4D 20 62
             61 6E 6B 3A 20 25 57
             52 41 4D 42 41 4E 4B
             25
    0000024C                          6 10013$:
                                    259 ;src/emu_debug.c:125: EMU_MESSAGE("All Registers: %ALLREGS%");
                                    260 	.MACRO EMULOG125 msg_t, ?llbl 
                                    261 	ld d, d 
                                    262 	jr llbl 
                                    263 	.dw 0x6464 
                                    264 	.dw 0x0000 
                                    265 	.ascii msg_t 
                                    266 llbl:
                                    267 	.ENDM 
    0000024C                        268 	EMULOG125 ^/"All Registers: %ALLREGS%"/ 
    0000024C 52               [ 4]    1 	ld d, d 
    0000024D 18 1C            [12]    2 	jr 10014$ 
    0000024F 64 64                    3 	.dw 0x6464 
    00000251 00 00                    4 	.dw 0x0000 
    00000253 41 6C 6C 20 52 65 67     5 	.ascii "All Registers: %ALLREGS%" 
             69 73 74 65 72 73 3A
             20 25 41 4C 4C 52 45
             47 53 25
    0000026B                          6 10014$:
                                    269 ;src/emu_debug.c:128: EMU_MESSAGE("Register A + 1: %(A+1)%");
                                    270 	.MACRO EMULOG128 msg_t, ?llbl 
                                    271 	ld d, d 
                                    272 	jr llbl 
                                    273 	.dw 0x6464 
                                    274 	.dw 0x0000 
                                    275 	.ascii msg_t 
                                    276 llbl:
                                    277 	.ENDM 
    0000026B                        278 	EMULOG128 ^/"Register A + 1: %(A+1)%"/ 
    0000026B 52               [ 4]    1 	ld d, d 
    0000026C 18 1B            [12]    2 	jr 10015$ 
    0000026E 64 64                    3 	.dw 0x6464 
    00000270 00 00                    4 	.dw 0x0000 
    00000272 52 65 67 69 73 74 65     5 	.ascii "Register A + 1: %(A+1)%" 
             72 20 41 20 2B 20 31
             3A 20 25 28 41 2B 31
             29 25
    00000289                          6 10015$:
                                    279 ;src/emu_debug.c:131: EMU_MESSAGE("Current Scanline: %SCANLINE%");
                                    280 	.MACRO EMULOG131 msg_t, ?llbl 
                                    281 	ld d, d 
                                    282 	jr llbl 
                                    283 	.dw 0x6464 
                                    284 	.dw 0x0000 
                                    285 	.ascii msg_t 
                                    286 llbl:
                                    287 	.ENDM 
    00000289                        288 	EMULOG131 ^/"Current Scanline: %SCANLINE%"/ 
    00000289 52               [ 4]    1 	ld d, d 
    0000028A 18 20            [12]    2 	jr 10016$ 
    0000028C 64 64                    3 	.dw 0x6464 
    0000028E 00 00                    4 	.dw 0x0000 
    00000290 43 75 72 72 65 6E 74     5 	.ascii "Current Scanline: %SCANLINE%" 
             20 53 63 61 6E 6C 69
             6E 65 3A 20 25 53 43
             41 4E 4C 49 4E 45 25
    000002AC                          6 10016$:
                                    289 ;src/emu_debug.c:136: EMU_MESSAGE("LY Register (0xFF44): %($ff44)%");
                                    290 	.MACRO EMULOG136 msg_t, ?llbl 
                                    291 	ld d, d 
                                    292 	jr llbl 
                                    293 	.dw 0x6464 
                                    294 	.dw 0x0000 
                                    295 	.ascii msg_t 
                                    296 llbl:
                                    297 	.ENDM 
    000002AC                        298 	EMULOG136 ^/"LY Register (0xFF44): %($ff44)%"/ 
    000002AC 52               [ 4]    1 	ld d, d 
    000002AD 18 23            [12]    2 	jr 10017$ 
    000002AF 64 64                    3 	.dw 0x6464 
    000002B1 00 00                    4 	.dw 0x0000 
    000002B3 4C 59 20 52 65 67 69     5 	.ascii "LY Register (0xFF44): %($ff44)%" 
             73 74 65 72 20 28 30
             78 46 46 34 34 29 3A
             20 25 28 24 66 66 34
             34 29 25
    000002D2                          6 10017$:
                                    299 ;src/emu_debug.c:137: EMU_MESSAGE("LY Register (0xFF44): %($ff44)%");
                                    300 	.MACRO EMULOG137 msg_t, ?llbl 
                                    301 	ld d, d 
                                    302 	jr llbl 
                                    303 	.dw 0x6464 
                                    304 	.dw 0x0000 
                                    305 	.ascii msg_t 
                                    306 llbl:
                                    307 	.ENDM 
    000002D2                        308 	EMULOG137 ^/"LY Register (0xFF44): %($ff44)%"/ 
    000002D2 52               [ 4]    1 	ld d, d 
    000002D3 18 23            [12]    2 	jr 10018$ 
    000002D5 64 64                    3 	.dw 0x6464 
    000002D7 00 00                    4 	.dw 0x0000 
    000002D9 4C 59 20 52 65 67 69     5 	.ascii "LY Register (0xFF44): %($ff44)%" 
             73 74 65 72 20 28 30
             78 46 46 34 34 29 3A
             20 25 28 24 66 66 34
             34 29 25
    000002F8                          6 10018$:
                                    309 ;src/emu_debug.c:139: EMU_MESSAGE("Is LY Register > Line 67: %($ff44)>67%Yes;No;");
                                    310 	.MACRO EMULOG139 msg_t, ?llbl 
                                    311 	ld d, d 
                                    312 	jr llbl 
                                    313 	.dw 0x6464 
                                    314 	.dw 0x0000 
                                    315 	.ascii msg_t 
                                    316 llbl:
                                    317 	.ENDM 
    000002F8                        318 	EMULOG139 ^/"Is LY Register > Line 67: %($ff44)>67%Yes;No;"/ 
    000002F8 52               [ 4]    1 	ld d, d 
    000002F9 18 31            [12]    2 	jr 10019$ 
    000002FB 64 64                    3 	.dw 0x6464 
    000002FD 00 00                    4 	.dw 0x0000 
    000002FF 49 73 20 4C 59 20 52     5 	.ascii "Is LY Register > Line 67: %($ff44)>67%Yes;No;" 
             65 67 69 73 74 65 72
             20 3E 20 4C 69 6E 65
             20 36 37 3A 20 25 28
             24 66 66 34 34 29 3E
             36 37 25 59 65 73 3B
             4E 6F 3B
    0000032C                          6 10019$:
                                    319 ;src/emu_debug.c:145: EMU_MESSAGE("The following lines contain: PROFILE,(SP+$0),(SP+$1),A,TOTALCLKS,ROMBANK,WRAMBANK");
                                    320 	.MACRO EMULOG145 msg_t, ?llbl 
                                    321 	ld d, d 
                                    322 	jr llbl 
                                    323 	.dw 0x6464 
                                    324 	.dw 0x0000 
                                    325 	.ascii msg_t 
                                    326 llbl:
                                    327 	.ENDM 
    0000032C                        328 	EMULOG145 ^/"The following lines contain: PROFILE,(SP+$0),(SP+$1),A,TOTALCLKS,ROMBANK,WRAMBANK"/ 
    0000032C 52               [ 4]    1 	ld d, d 
    0000032D 18 55            [12]    2 	jr 10020$ 
    0000032F 64 64                    3 	.dw 0x6464 
    00000331 00 00                    4 	.dw 0x0000 
    00000333 54 68 65 20 66 6F 6C     5 	.ascii "The following lines contain: PROFILE,(SP+$0),(SP+$1),A,TOTALCLKS,ROMBANK,WRAMBANK" 
             6C 6F 77 69 6E 67 20
             6C 69 6E 65 73 20 63
             6F 6E 74 61 69 6E 3A
             20 50 52 4F 46 49 4C
             45 2C 28 53 50 2B 24
             30 29 2C 28 53 50 2B
             24 31 29 2C 41 2C 54
             4F 54 41 4C 43 4C 4B
             53 2C 52 4F 4D 42 41
             4E 4B 2C 57 52 41 4D
             42 41 4E 4B
    00000384                          6 10020$:
                                    329 ;src/emu_debug.c:147: EMU_profiler_message();
    00000384 CDr00r00         [24]  330 	call	_EMU_profiler_message
                                    331 ;src/emu_debug.c:150: EMU_MESSAGE("PROFILE,%(SP+$0)%,%(SP+$1)%,%A%,%TOTALCLKS%,%ROMBANK%,%WRAMBANK%");
                                    332 	.MACRO EMULOG150 msg_t, ?llbl 
                                    333 	ld d, d 
                                    334 	jr llbl 
                                    335 	.dw 0x6464 
                                    336 	.dw 0x0000 
                                    337 	.ascii msg_t 
                                    338 llbl:
                                    339 	.ENDM 
    00000387                        340 	EMULOG150 ^/"PROFILE,%(SP+$0)%,%(SP+$1)%,%A%,%TOTALCLKS%,%ROMBANK%,%WRAMBANK%"/ 
    00000387 52               [ 4]    1 	ld d, d 
    00000388 18 44            [12]    2 	jr 10021$ 
    0000038A 64 64                    3 	.dw 0x6464 
    0000038C 00 00                    4 	.dw 0x0000 
    0000038E 50 52 4F 46 49 4C 45     5 	.ascii "PROFILE,%(SP+$0)%,%(SP+$1)%,%A%,%TOTALCLKS%,%ROMBANK%,%WRAMBANK%" 
             2C 25 28 53 50 2B 24
             30 29 25 2C 25 28 53
             50 2B 24 31 29 25 2C
             25 41 25 2C 25 54 4F
             54 41 4C 43 4C 4B 53
             25 2C 25 52 4F 4D 42
             41 4E 4B 25 2C 25 57
             52 41 4D 42 41 4E 4B
             25
    000003CE                          6 10021$:
                                    341 ;src/emu_debug.c:158: EMU_printf("var0: %hd; var1: %d; var0*var1=%d\n", (uint8_t)var0, var1, var0 * var1);
    000003CE 11 60 FF         [12]  342 	ld	de, #0xff60
    000003D1 D5               [16]  343 	push	de
    000003D2 11 F6 FF         [12]  344 	ld	de, #0xfff6
    000003D5 D5               [16]  345 	push	de
    000003D6 3E 10            [ 8]  346 	ld	a, #0x10
    000003D8 F5               [16]  347 	push	af
    000003D9 33               [ 8]  348 	inc	sp
    000003DA 11r0Fr04         [12]  349 	ld	de, #___str_3
    000003DD D5               [16]  350 	push	de
    000003DE CDr00r00         [24]  351 	call	_EMU_printf
    000003E1 E8 07            [16]  352 	add	sp, #7
                                    353 ;src/emu_debug.c:161: EMU_TEXT("The End");
                                    354 	.MACRO EMULOG161 msg_t, ?llbl 
                                    355 	ld d, d 
                                    356 	jr llbl 
                                    357 	.dw 0x6464 
                                    358 	.dw 0x0000 
                                    359 	.ascii msg_t 
                                    360 llbl:
                                    361 	.ENDM 
    000003E3                        362 	EMULOG161 ^/"The End"/ 
    000003E3 52               [ 4]    1 	ld d, d 
    000003E4 18 0B            [12]    2 	jr 10022$ 
    000003E6 64 64                    3 	.dw 0x6464 
    000003E8 00 00                    4 	.dw 0x0000 
    000003EA 54 68 65 20 45 6E 64     5 	.ascii "The End" 
    000003F1                          6 10022$:
                                    363 ;src/emu_debug.c:163: return 0;
    000003F1 01 00 00         [12]  364 	ld	bc, #0x0000
                                    365 ;src/emu_debug.c:164: }
    000003F4 C9               [16]  366 	ret
    000003F5                        367 ___str_1:
    000003F5 4D 65 73 73 61 67 65   368 	.ascii "Message to the"
             20 74 6F 20 74 68 65
    00000403 0A                     369 	.db 0x0a
    00000404 53 63 72 65 65 6E      370 	.ascii "Screen"
    0000040A 00                     371 	.db 0x00
    0000040B                        372 ___str_2:
    0000040B 25 64                  373 	.ascii "%d"
    0000040D 0A                     374 	.db 0x0a
    0000040E 00                     375 	.db 0x00
    0000040F                        376 ___str_3:
    0000040F 76 61 72 30 3A 20 25   377 	.ascii "var0: %hd; var1: %d; var0*var1=%d"
             68 64 3B 20 76 61 72
             31 3A 20 25 64 3B 20
             76 61 72 30 2A 76 61
             72 31 3D 25 64
    00000430 0A                     378 	.db 0x0a
    00000431 00                     379 	.db 0x00
                                    380 	.area _CODE
                                    381 	.area _INITIALIZER
    00000000                        382 __xinit____EMU_PROFILER_INIT:
    00000000r00r00                  383 	.dw _EMU_profiler_message
                                    384 	.area _CABS (ABS)
