                                      1 ;--------------------------------------------------------
                                      2 ; File Created by SDCC : free open source ISO C Compiler 
                                      3 ; Version 4.4.1 #14650 (Linux)
                                      4 ;--------------------------------------------------------
                                      5 	.module main
                                      6 	.optsdcc -msm83
                                      7 	
                                      8 ;--------------------------------------------------------
                                      9 ; Public variables in this module
                                     10 ;--------------------------------------------------------
                                     11 	.globl _main
                                     12 	.globl _update_room
                                     13 	.globl _win_room
                                     14 	.globl _set_mid_room
                                     15 	.globl _draw_player
                                     16 	.globl _update_player
                                     17 	.globl _test_win
                                     18 	.globl _update_path
                                     19 	.globl _get_bkg_tile_from_pos
                                     20 	.globl _set_end_screen
                                     21 	.globl _window_lose
                                     22 	.globl _window_win
                                     23 	.globl _set_start_screen
                                     24 	.globl _set_start_room
                                     25 	.globl _print_text
                                     26 	.globl _gotogxy
                                     27 	.globl _gprintf
                                     28 	.globl _set_sprite_data
                                     29 	.globl _set_win_tiles
                                     30 	.globl _set_bkg_tiles
                                     31 	.globl _set_bkg_data
                                     32 	.globl _vsync
                                     33 	.globl _joypad
                                     34 	.globl _player_sprite_id
                                     35 	.globl _time
                                     36 	.globl _path_num
                                     37 	.globl _path_hash
                                     38 	.globl _path
                                     39 	.globl _you_win
                                     40 	.globl _player_y
                                     41 	.globl _player_x
                                     42 	.globl _start_screen
                                     43 	.globl _current_room
                                     44 	.globl _room_3
                                     45 	.globl _room_2
                                     46 	.globl _room_1
                                     47 	.globl _sprite_tiles
                                     48 	.globl _lose_map
                                     49 	.globl _win_map
                                     50 	.globl _window_map
                                     51 	.globl _background_tileset
                                     52 ;--------------------------------------------------------
                                     53 ; special function registers
                                     54 ;--------------------------------------------------------
                                     55 ;--------------------------------------------------------
                                     56 ; ram data
                                     57 ;--------------------------------------------------------
                                     58 	.area _DATA
                                     59 ;--------------------------------------------------------
                                     60 ; ram data
                                     61 ;--------------------------------------------------------
                                     62 	.area _INITIALIZED
    00000000                         63 _sprite_tiles::
    00000000                         64 	.ds 48
    00000030                         65 _room_1::
    00000030                         66 	.ds 360
    00000198                         67 _room_2::
    00000198                         68 	.ds 360
    00000300                         69 _room_3::
    00000300                         70 	.ds 360
    00000468                         71 _current_room::
    00000468                         72 	.ds 2
    0000046A                         73 _start_screen::
    0000046A                         74 	.ds 720
    0000073A                         75 _player_x::
    0000073A                         76 	.ds 2
    0000073C                         77 _player_y::
    0000073C                         78 	.ds 2
    0000073E                         79 _you_win::
    0000073E                         80 	.ds 1
    0000073F                         81 _path::
    0000073F                         82 	.ds 32
    0000075F                         83 _path_hash::
    0000075F                         84 	.ds 16
    0000076F                         85 _path_num::
    0000076F                         86 	.ds 1
    00000770                         87 _time::
    00000770                         88 	.ds 2
    00000772                         89 _player_sprite_id::
    00000772                         90 	.ds 2
                                     91 ;--------------------------------------------------------
                                     92 ; absolute external ram data
                                     93 ;--------------------------------------------------------
                                     94 	.area _DABS (ABS)
                                     95 ;--------------------------------------------------------
                                     96 ; global & static initialisations
                                     97 ;--------------------------------------------------------
                                     98 	.area _HOME
                                     99 	.area _GSINIT
                                    100 	.area _GSFINAL
                                    101 	.area _GSINIT
                                    102 ;--------------------------------------------------------
                                    103 ; Home
                                    104 ;--------------------------------------------------------
                                    105 	.area _HOME
                                    106 	.area _HOME
                                    107 ;--------------------------------------------------------
                                    108 ; code
                                    109 ;--------------------------------------------------------
                                    110 	.area _CODE
                                    111 ;main.c:99: void print_text(char *text, int x, int y) {
                                    112 ;	---------------------------------
                                    113 ; Function print_text
                                    114 ; ---------------------------------
    00000000                        115 _print_text::
                                    116 ;main.c:100: gotogxy(x, y);
    00000000 F8 02            [12]  117 	ldhl	sp,	#2
    00000002 7E               [ 8]  118 	ld	a, (hl)
    00000003 D5               [16]  119 	push	de
    00000004 47               [ 4]  120 	ld	b, a
    00000005 C5               [16]  121 	push	bc
    00000006 CDr00r00         [24]  122 	call	_gotogxy
    00000009 E1               [12]  123 	pop	hl
    0000000A 11rADr03         [12]  124 	ld	de, #___str_0
    0000000D D5               [16]  125 	push	de
    0000000E CDr00r00         [24]  126 	call	_gprintf
    00000011 E8 04            [16]  127 	add	sp, #4
                                    128 ;main.c:102: gotogxy(0, 0);
    00000013 AF               [ 4]  129 	xor	a, a
    00000014 0F               [ 4]  130 	rrca
    00000015 F5               [16]  131 	push	af
    00000016 CDr00r00         [24]  132 	call	_gotogxy
    00000019 E1               [12]  133 	pop	hl
                                    134 ;main.c:103: }
    0000001A E1               [12]  135 	pop	hl
    0000001B F1               [12]  136 	pop	af
    0000001C E9               [ 4]  137 	jp	(hl)
    0000001D                        138 _background_tileset:
    0000001D 00                     139 	.db #0x00	; 0
    0000001E 00                     140 	.db #0x00	; 0
    0000001F 00                     141 	.db #0x00	; 0
    00000020 00                     142 	.db #0x00	; 0
    00000021 00                     143 	.db #0x00	; 0
    00000022 00                     144 	.db #0x00	; 0
    00000023 00                     145 	.db #0x00	; 0
    00000024 00                     146 	.db #0x00	; 0
    00000025 00                     147 	.db #0x00	; 0
    00000026 00                     148 	.db #0x00	; 0
    00000027 00                     149 	.db #0x00	; 0
    00000028 00                     150 	.db #0x00	; 0
    00000029 00                     151 	.db #0x00	; 0
    0000002A 00                     152 	.db #0x00	; 0
    0000002B 00                     153 	.db #0x00	; 0
    0000002C 00                     154 	.db #0x00	; 0
    0000002D 6A                     155 	.db #0x6a	; 106	'j'
    0000002E BF                     156 	.db #0xbf	; 191
    0000002F 53                     157 	.db #0x53	; 83	'S'
    00000030 ED                     158 	.db #0xed	; 237
    00000031 DD                     159 	.db #0xdd	; 221
    00000032 BA                     160 	.db #0xba	; 186
    00000033 21                     161 	.db #0x21	; 33
    00000034 FF                     162 	.db #0xff	; 255
    00000035 36                     163 	.db #0x36	; 54	'6'
    00000036 CD                     164 	.db #0xcd	; 205
    00000037 4A                     165 	.db #0x4a	; 74	'J'
    00000038 FF                     166 	.db #0xff	; 255
    00000039 6A                     167 	.db #0x6a	; 106	'j'
    0000003A BF                     168 	.db #0xbf	; 191
    0000003B A3                     169 	.db #0xa3	; 163
    0000003C FD                     170 	.db #0xfd	; 253
    0000003D B7                     171 	.db #0xb7	; 183
    0000003E FF                     172 	.db #0xff	; 255
    0000003F BE                     173 	.db #0xbe	; 190
    00000040 FF                     174 	.db #0xff	; 255
    00000041 D9                     175 	.db #0xd9	; 217
    00000042 FF                     176 	.db #0xff	; 255
    00000043 CF                     177 	.db #0xcf	; 207
    00000044 FF                     178 	.db #0xff	; 255
    00000045 FF                     179 	.db #0xff	; 255
    00000046 FF                     180 	.db #0xff	; 255
    00000047 99                     181 	.db #0x99	; 153
    00000048 FF                     182 	.db #0xff	; 255
    00000049 6D                     183 	.db #0x6d	; 109	'm'
    0000004A FF                     184 	.db #0xff	; 255
    0000004B EE                     185 	.db #0xee	; 238
    0000004C FF                     186 	.db #0xff	; 255
    0000004D 89                     187 	.db #0x89	; 137
    0000004E 00                     188 	.db #0x00	; 0
    0000004F 00                     189 	.db #0x00	; 0
    00000050 00                     190 	.db #0x00	; 0
    00000051 22                     191 	.db #0x22	; 34
    00000052 00                     192 	.db #0x00	; 0
    00000053 A8                     193 	.db #0xa8	; 168
    00000054 00                     194 	.db #0x00	; 0
    00000055 01                     195 	.db #0x01	; 1
    00000056 10                     196 	.db #0x10	; 16
    00000057 41                     197 	.db #0x41	; 65	'A'
    00000058 10                     198 	.db #0x10	; 16
    00000059 08                     199 	.db #0x08	; 8
    0000005A 4A                     200 	.db #0x4a	; 74	'J'
    0000005B 2A                     201 	.db #0x2a	; 42
    0000005C 2A                     202 	.db #0x2a	; 42
    0000005D 04                     203 	.db #0x04	; 4
    0000005E 00                     204 	.db #0x00	; 0
    0000005F 40                     205 	.db #0x40	; 64
    00000060 00                     206 	.db #0x00	; 0
    00000061 12                     207 	.db #0x12	; 18
    00000062 00                     208 	.db #0x00	; 0
    00000063 80                     209 	.db #0x80	; 128
    00000064 00                     210 	.db #0x00	; 0
    00000065 02                     211 	.db #0x02	; 2
    00000066 00                     212 	.db #0x00	; 0
    00000067 28                     213 	.db #0x28	; 40
    00000068 01                     214 	.db #0x01	; 1
    00000069 00                     215 	.db #0x00	; 0
    0000006A 49                     216 	.db #0x49	; 73	'I'
    0000006B 49                     217 	.db #0x49	; 73	'I'
    0000006C 49                     218 	.db #0x49	; 73	'I'
    0000006D 00                     219 	.db #0x00	; 0
    0000006E 00                     220 	.db #0x00	; 0
    0000006F 00                     221 	.db #0x00	; 0
    00000070 00                     222 	.db #0x00	; 0
    00000071 00                     223 	.db #0x00	; 0
    00000072 00                     224 	.db #0x00	; 0
    00000073 00                     225 	.db #0x00	; 0
    00000074 00                     226 	.db #0x00	; 0
    00000075 00                     227 	.db #0x00	; 0
    00000076 00                     228 	.db #0x00	; 0
    00000077 00                     229 	.db #0x00	; 0
    00000078 00                     230 	.db #0x00	; 0
    00000079 00                     231 	.db #0x00	; 0
    0000007A 00                     232 	.db #0x00	; 0
    0000007B 00                     233 	.db #0x00	; 0
    0000007C 00                     234 	.db #0x00	; 0
    0000007D 00                     235 	.db #0x00	; 0
    0000007E 00                     236 	.db #0x00	; 0
    0000007F 00                     237 	.db #0x00	; 0
    00000080 00                     238 	.db #0x00	; 0
    00000081 00                     239 	.db #0x00	; 0
    00000082 00                     240 	.db #0x00	; 0
    00000083 00                     241 	.db #0x00	; 0
    00000084 00                     242 	.db #0x00	; 0
    00000085 00                     243 	.db #0x00	; 0
    00000086 00                     244 	.db #0x00	; 0
    00000087 00                     245 	.db #0x00	; 0
    00000088 00                     246 	.db #0x00	; 0
    00000089 00                     247 	.db #0x00	; 0
    0000008A 00                     248 	.db #0x00	; 0
    0000008B 00                     249 	.db #0x00	; 0
    0000008C 00                     250 	.db #0x00	; 0
    0000008D 88                     251 	.db #0x88	; 136
    0000008E 00                     252 	.db #0x00	; 0
    0000008F 00                     253 	.db #0x00	; 0
    00000090 00                     254 	.db #0x00	; 0
    00000091 00                     255 	.db #0x00	; 0
    00000092 00                     256 	.db #0x00	; 0
    00000093 22                     257 	.db #0x22	; 34
    00000094 00                     258 	.db #0x00	; 0
    00000095 00                     259 	.db #0x00	; 0
    00000096 00                     260 	.db #0x00	; 0
    00000097 84                     261 	.db #0x84	; 132
    00000098 00                     262 	.db #0x00	; 0
    00000099 20                     263 	.db #0x20	; 32
    0000009A 00                     264 	.db #0x00	; 0
    0000009B 00                     265 	.db #0x00	; 0
    0000009C 00                     266 	.db #0x00	; 0
    0000009D 08                     267 	.db #0x08	; 8
    0000009E 00                     268 	.db #0x00	; 0
    0000009F 80                     269 	.db #0x80	; 128
    000000A0 00                     270 	.db #0x00	; 0
    000000A1 20                     271 	.db #0x20	; 32
    000000A2 00                     272 	.db #0x00	; 0
    000000A3 01                     273 	.db #0x01	; 1
    000000A4 00                     274 	.db #0x00	; 0
    000000A5 00                     275 	.db #0x00	; 0
    000000A6 00                     276 	.db #0x00	; 0
    000000A7 20                     277 	.db #0x20	; 32
    000000A8 00                     278 	.db #0x00	; 0
    000000A9 02                     279 	.db #0x02	; 2
    000000AA 00                     280 	.db #0x00	; 0
    000000AB 80                     281 	.db #0x80	; 128
    000000AC 00                     282 	.db #0x00	; 0
    000000AD 3C                     283 	.db #0x3c	; 60
    000000AE 3C                     284 	.db #0x3c	; 60
    000000AF 66                     285 	.db #0x66	; 102	'f'
    000000B0 66                     286 	.db #0x66	; 102	'f'
    000000B1 66                     287 	.db #0x66	; 102	'f'
    000000B2 66                     288 	.db #0x66	; 102	'f'
    000000B3 7E                     289 	.db #0x7e	; 126
    000000B4 7E                     290 	.db #0x7e	; 126
    000000B5 66                     291 	.db #0x66	; 102	'f'
    000000B6 66                     292 	.db #0x66	; 102	'f'
    000000B7 66                     293 	.db #0x66	; 102	'f'
    000000B8 66                     294 	.db #0x66	; 102	'f'
    000000B9 66                     295 	.db #0x66	; 102	'f'
    000000BA 66                     296 	.db #0x66	; 102	'f'
    000000BB 00                     297 	.db #0x00	; 0
    000000BC 00                     298 	.db #0x00	; 0
    000000BD 7C                     299 	.db #0x7c	; 124
    000000BE 7C                     300 	.db #0x7c	; 124
    000000BF 66                     301 	.db #0x66	; 102	'f'
    000000C0 66                     302 	.db #0x66	; 102	'f'
    000000C1 66                     303 	.db #0x66	; 102	'f'
    000000C2 66                     304 	.db #0x66	; 102	'f'
    000000C3 7C                     305 	.db #0x7c	; 124
    000000C4 7C                     306 	.db #0x7c	; 124
    000000C5 66                     307 	.db #0x66	; 102	'f'
    000000C6 66                     308 	.db #0x66	; 102	'f'
    000000C7 66                     309 	.db #0x66	; 102	'f'
    000000C8 66                     310 	.db #0x66	; 102	'f'
    000000C9 7C                     311 	.db #0x7c	; 124
    000000CA 7C                     312 	.db #0x7c	; 124
    000000CB 00                     313 	.db #0x00	; 0
    000000CC 00                     314 	.db #0x00	; 0
    000000CD 3C                     315 	.db #0x3c	; 60
    000000CE 3C                     316 	.db #0x3c	; 60
    000000CF 62                     317 	.db #0x62	; 98	'b'
    000000D0 62                     318 	.db #0x62	; 98	'b'
    000000D1 60                     319 	.db #0x60	; 96
    000000D2 60                     320 	.db #0x60	; 96
    000000D3 60                     321 	.db #0x60	; 96
    000000D4 60                     322 	.db #0x60	; 96
    000000D5 60                     323 	.db #0x60	; 96
    000000D6 60                     324 	.db #0x60	; 96
    000000D7 62                     325 	.db #0x62	; 98	'b'
    000000D8 62                     326 	.db #0x62	; 98	'b'
    000000D9 3C                     327 	.db #0x3c	; 60
    000000DA 3C                     328 	.db #0x3c	; 60
    000000DB 00                     329 	.db #0x00	; 0
    000000DC 00                     330 	.db #0x00	; 0
    000000DD 7C                     331 	.db #0x7c	; 124
    000000DE 7C                     332 	.db #0x7c	; 124
    000000DF 66                     333 	.db #0x66	; 102	'f'
    000000E0 66                     334 	.db #0x66	; 102	'f'
    000000E1 66                     335 	.db #0x66	; 102	'f'
    000000E2 66                     336 	.db #0x66	; 102	'f'
    000000E3 66                     337 	.db #0x66	; 102	'f'
    000000E4 66                     338 	.db #0x66	; 102	'f'
    000000E5 66                     339 	.db #0x66	; 102	'f'
    000000E6 66                     340 	.db #0x66	; 102	'f'
    000000E7 66                     341 	.db #0x66	; 102	'f'
    000000E8 66                     342 	.db #0x66	; 102	'f'
    000000E9 7C                     343 	.db #0x7c	; 124
    000000EA 7C                     344 	.db #0x7c	; 124
    000000EB 00                     345 	.db #0x00	; 0
    000000EC 00                     346 	.db #0x00	; 0
    000000ED 7E                     347 	.db #0x7e	; 126
    000000EE 7E                     348 	.db #0x7e	; 126
    000000EF 60                     349 	.db #0x60	; 96
    000000F0 60                     350 	.db #0x60	; 96
    000000F1 60                     351 	.db #0x60	; 96
    000000F2 60                     352 	.db #0x60	; 96
    000000F3 7C                     353 	.db #0x7c	; 124
    000000F4 7C                     354 	.db #0x7c	; 124
    000000F5 60                     355 	.db #0x60	; 96
    000000F6 60                     356 	.db #0x60	; 96
    000000F7 60                     357 	.db #0x60	; 96
    000000F8 60                     358 	.db #0x60	; 96
    000000F9 7E                     359 	.db #0x7e	; 126
    000000FA 7E                     360 	.db #0x7e	; 126
    000000FB 00                     361 	.db #0x00	; 0
    000000FC 00                     362 	.db #0x00	; 0
    000000FD 7E                     363 	.db #0x7e	; 126
    000000FE 7E                     364 	.db #0x7e	; 126
    000000FF 60                     365 	.db #0x60	; 96
    00000100 60                     366 	.db #0x60	; 96
    00000101 60                     367 	.db #0x60	; 96
    00000102 60                     368 	.db #0x60	; 96
    00000103 7C                     369 	.db #0x7c	; 124
    00000104 7C                     370 	.db #0x7c	; 124
    00000105 60                     371 	.db #0x60	; 96
    00000106 60                     372 	.db #0x60	; 96
    00000107 60                     373 	.db #0x60	; 96
    00000108 60                     374 	.db #0x60	; 96
    00000109 60                     375 	.db #0x60	; 96
    0000010A 60                     376 	.db #0x60	; 96
    0000010B 00                     377 	.db #0x00	; 0
    0000010C 00                     378 	.db #0x00	; 0
    0000010D 3C                     379 	.db #0x3c	; 60
    0000010E 3C                     380 	.db #0x3c	; 60
    0000010F 62                     381 	.db #0x62	; 98	'b'
    00000110 62                     382 	.db #0x62	; 98	'b'
    00000111 60                     383 	.db #0x60	; 96
    00000112 60                     384 	.db #0x60	; 96
    00000113 6E                     385 	.db #0x6e	; 110	'n'
    00000114 6E                     386 	.db #0x6e	; 110	'n'
    00000115 66                     387 	.db #0x66	; 102	'f'
    00000116 66                     388 	.db #0x66	; 102	'f'
    00000117 66                     389 	.db #0x66	; 102	'f'
    00000118 66                     390 	.db #0x66	; 102	'f'
    00000119 3E                     391 	.db #0x3e	; 62
    0000011A 3E                     392 	.db #0x3e	; 62
    0000011B 00                     393 	.db #0x00	; 0
    0000011C 00                     394 	.db #0x00	; 0
    0000011D 66                     395 	.db #0x66	; 102	'f'
    0000011E 66                     396 	.db #0x66	; 102	'f'
    0000011F 66                     397 	.db #0x66	; 102	'f'
    00000120 66                     398 	.db #0x66	; 102	'f'
    00000121 66                     399 	.db #0x66	; 102	'f'
    00000122 66                     400 	.db #0x66	; 102	'f'
    00000123 7E                     401 	.db #0x7e	; 126
    00000124 7E                     402 	.db #0x7e	; 126
    00000125 66                     403 	.db #0x66	; 102	'f'
    00000126 66                     404 	.db #0x66	; 102	'f'
    00000127 66                     405 	.db #0x66	; 102	'f'
    00000128 66                     406 	.db #0x66	; 102	'f'
    00000129 66                     407 	.db #0x66	; 102	'f'
    0000012A 66                     408 	.db #0x66	; 102	'f'
    0000012B 00                     409 	.db #0x00	; 0
    0000012C 00                     410 	.db #0x00	; 0
    0000012D 18                     411 	.db #0x18	; 24
    0000012E 18                     412 	.db #0x18	; 24
    0000012F 18                     413 	.db #0x18	; 24
    00000130 18                     414 	.db #0x18	; 24
    00000131 18                     415 	.db #0x18	; 24
    00000132 18                     416 	.db #0x18	; 24
    00000133 18                     417 	.db #0x18	; 24
    00000134 18                     418 	.db #0x18	; 24
    00000135 18                     419 	.db #0x18	; 24
    00000136 18                     420 	.db #0x18	; 24
    00000137 18                     421 	.db #0x18	; 24
    00000138 18                     422 	.db #0x18	; 24
    00000139 18                     423 	.db #0x18	; 24
    0000013A 18                     424 	.db #0x18	; 24
    0000013B 00                     425 	.db #0x00	; 0
    0000013C 00                     426 	.db #0x00	; 0
    0000013D 06                     427 	.db #0x06	; 6
    0000013E 06                     428 	.db #0x06	; 6
    0000013F 06                     429 	.db #0x06	; 6
    00000140 06                     430 	.db #0x06	; 6
    00000141 06                     431 	.db #0x06	; 6
    00000142 06                     432 	.db #0x06	; 6
    00000143 06                     433 	.db #0x06	; 6
    00000144 06                     434 	.db #0x06	; 6
    00000145 06                     435 	.db #0x06	; 6
    00000146 06                     436 	.db #0x06	; 6
    00000147 46                     437 	.db #0x46	; 70	'F'
    00000148 46                     438 	.db #0x46	; 70	'F'
    00000149 3C                     439 	.db #0x3c	; 60
    0000014A 3C                     440 	.db #0x3c	; 60
    0000014B 00                     441 	.db #0x00	; 0
    0000014C 00                     442 	.db #0x00	; 0
    0000014D 66                     443 	.db #0x66	; 102	'f'
    0000014E 66                     444 	.db #0x66	; 102	'f'
    0000014F 6C                     445 	.db #0x6c	; 108	'l'
    00000150 6C                     446 	.db #0x6c	; 108	'l'
    00000151 78                     447 	.db #0x78	; 120	'x'
    00000152 78                     448 	.db #0x78	; 120	'x'
    00000153 70                     449 	.db #0x70	; 112	'p'
    00000154 70                     450 	.db #0x70	; 112	'p'
    00000155 78                     451 	.db #0x78	; 120	'x'
    00000156 78                     452 	.db #0x78	; 120	'x'
    00000157 6C                     453 	.db #0x6c	; 108	'l'
    00000158 6C                     454 	.db #0x6c	; 108	'l'
    00000159 66                     455 	.db #0x66	; 102	'f'
    0000015A 66                     456 	.db #0x66	; 102	'f'
    0000015B 00                     457 	.db #0x00	; 0
    0000015C 00                     458 	.db #0x00	; 0
    0000015D 60                     459 	.db #0x60	; 96
    0000015E 60                     460 	.db #0x60	; 96
    0000015F 60                     461 	.db #0x60	; 96
    00000160 60                     462 	.db #0x60	; 96
    00000161 60                     463 	.db #0x60	; 96
    00000162 60                     464 	.db #0x60	; 96
    00000163 60                     465 	.db #0x60	; 96
    00000164 60                     466 	.db #0x60	; 96
    00000165 60                     467 	.db #0x60	; 96
    00000166 60                     468 	.db #0x60	; 96
    00000167 60                     469 	.db #0x60	; 96
    00000168 60                     470 	.db #0x60	; 96
    00000169 7C                     471 	.db #0x7c	; 124
    0000016A 7C                     472 	.db #0x7c	; 124
    0000016B 00                     473 	.db #0x00	; 0
    0000016C 00                     474 	.db #0x00	; 0
    0000016D FC                     475 	.db #0xfc	; 252
    0000016E FC                     476 	.db #0xfc	; 252
    0000016F D6                     477 	.db #0xd6	; 214
    00000170 D6                     478 	.db #0xd6	; 214
    00000171 D6                     479 	.db #0xd6	; 214
    00000172 D6                     480 	.db #0xd6	; 214
    00000173 D6                     481 	.db #0xd6	; 214
    00000174 D6                     482 	.db #0xd6	; 214
    00000175 D6                     483 	.db #0xd6	; 214
    00000176 D6                     484 	.db #0xd6	; 214
    00000177 C6                     485 	.db #0xc6	; 198
    00000178 C6                     486 	.db #0xc6	; 198
    00000179 C6                     487 	.db #0xc6	; 198
    0000017A C6                     488 	.db #0xc6	; 198
    0000017B 00                     489 	.db #0x00	; 0
    0000017C 00                     490 	.db #0x00	; 0
    0000017D 62                     491 	.db #0x62	; 98	'b'
    0000017E 62                     492 	.db #0x62	; 98	'b'
    0000017F 72                     493 	.db #0x72	; 114	'r'
    00000180 72                     494 	.db #0x72	; 114	'r'
    00000181 7A                     495 	.db #0x7a	; 122	'z'
    00000182 7A                     496 	.db #0x7a	; 122	'z'
    00000183 5E                     497 	.db #0x5e	; 94
    00000184 5E                     498 	.db #0x5e	; 94
    00000185 4E                     499 	.db #0x4e	; 78	'N'
    00000186 4E                     500 	.db #0x4e	; 78	'N'
    00000187 46                     501 	.db #0x46	; 70	'F'
    00000188 46                     502 	.db #0x46	; 70	'F'
    00000189 42                     503 	.db #0x42	; 66	'B'
    0000018A 42                     504 	.db #0x42	; 66	'B'
    0000018B 00                     505 	.db #0x00	; 0
    0000018C 00                     506 	.db #0x00	; 0
    0000018D 3C                     507 	.db #0x3c	; 60
    0000018E 3C                     508 	.db #0x3c	; 60
    0000018F 66                     509 	.db #0x66	; 102	'f'
    00000190 66                     510 	.db #0x66	; 102	'f'
    00000191 66                     511 	.db #0x66	; 102	'f'
    00000192 66                     512 	.db #0x66	; 102	'f'
    00000193 66                     513 	.db #0x66	; 102	'f'
    00000194 66                     514 	.db #0x66	; 102	'f'
    00000195 66                     515 	.db #0x66	; 102	'f'
    00000196 66                     516 	.db #0x66	; 102	'f'
    00000197 66                     517 	.db #0x66	; 102	'f'
    00000198 66                     518 	.db #0x66	; 102	'f'
    00000199 3C                     519 	.db #0x3c	; 60
    0000019A 3C                     520 	.db #0x3c	; 60
    0000019B 00                     521 	.db #0x00	; 0
    0000019C 00                     522 	.db #0x00	; 0
    0000019D 7C                     523 	.db #0x7c	; 124
    0000019E 7C                     524 	.db #0x7c	; 124
    0000019F 66                     525 	.db #0x66	; 102	'f'
    000001A0 66                     526 	.db #0x66	; 102	'f'
    000001A1 66                     527 	.db #0x66	; 102	'f'
    000001A2 66                     528 	.db #0x66	; 102	'f'
    000001A3 7C                     529 	.db #0x7c	; 124
    000001A4 7C                     530 	.db #0x7c	; 124
    000001A5 60                     531 	.db #0x60	; 96
    000001A6 60                     532 	.db #0x60	; 96
    000001A7 60                     533 	.db #0x60	; 96
    000001A8 60                     534 	.db #0x60	; 96
    000001A9 60                     535 	.db #0x60	; 96
    000001AA 60                     536 	.db #0x60	; 96
    000001AB 00                     537 	.db #0x00	; 0
    000001AC 00                     538 	.db #0x00	; 0
    000001AD 3C                     539 	.db #0x3c	; 60
    000001AE 3C                     540 	.db #0x3c	; 60
    000001AF 66                     541 	.db #0x66	; 102	'f'
    000001B0 66                     542 	.db #0x66	; 102	'f'
    000001B1 66                     543 	.db #0x66	; 102	'f'
    000001B2 66                     544 	.db #0x66	; 102	'f'
    000001B3 66                     545 	.db #0x66	; 102	'f'
    000001B4 66                     546 	.db #0x66	; 102	'f'
    000001B5 66                     547 	.db #0x66	; 102	'f'
    000001B6 66                     548 	.db #0x66	; 102	'f'
    000001B7 66                     549 	.db #0x66	; 102	'f'
    000001B8 66                     550 	.db #0x66	; 102	'f'
    000001B9 3C                     551 	.db #0x3c	; 60
    000001BA 3C                     552 	.db #0x3c	; 60
    000001BB 06                     553 	.db #0x06	; 6
    000001BC 06                     554 	.db #0x06	; 6
    000001BD 7C                     555 	.db #0x7c	; 124
    000001BE 7C                     556 	.db #0x7c	; 124
    000001BF 66                     557 	.db #0x66	; 102	'f'
    000001C0 66                     558 	.db #0x66	; 102	'f'
    000001C1 66                     559 	.db #0x66	; 102	'f'
    000001C2 66                     560 	.db #0x66	; 102	'f'
    000001C3 7C                     561 	.db #0x7c	; 124
    000001C4 7C                     562 	.db #0x7c	; 124
    000001C5 66                     563 	.db #0x66	; 102	'f'
    000001C6 66                     564 	.db #0x66	; 102	'f'
    000001C7 66                     565 	.db #0x66	; 102	'f'
    000001C8 66                     566 	.db #0x66	; 102	'f'
    000001C9 66                     567 	.db #0x66	; 102	'f'
    000001CA 66                     568 	.db #0x66	; 102	'f'
    000001CB 00                     569 	.db #0x00	; 0
    000001CC 00                     570 	.db #0x00	; 0
    000001CD 3C                     571 	.db #0x3c	; 60
    000001CE 3C                     572 	.db #0x3c	; 60
    000001CF 62                     573 	.db #0x62	; 98	'b'
    000001D0 62                     574 	.db #0x62	; 98	'b'
    000001D1 70                     575 	.db #0x70	; 112	'p'
    000001D2 70                     576 	.db #0x70	; 112	'p'
    000001D3 3C                     577 	.db #0x3c	; 60
    000001D4 3C                     578 	.db #0x3c	; 60
    000001D5 0E                     579 	.db #0x0e	; 14
    000001D6 0E                     580 	.db #0x0e	; 14
    000001D7 46                     581 	.db #0x46	; 70	'F'
    000001D8 46                     582 	.db #0x46	; 70	'F'
    000001D9 3C                     583 	.db #0x3c	; 60
    000001DA 3C                     584 	.db #0x3c	; 60
    000001DB 00                     585 	.db #0x00	; 0
    000001DC 00                     586 	.db #0x00	; 0
    000001DD 7E                     587 	.db #0x7e	; 126
    000001DE 7E                     588 	.db #0x7e	; 126
    000001DF 18                     589 	.db #0x18	; 24
    000001E0 18                     590 	.db #0x18	; 24
    000001E1 18                     591 	.db #0x18	; 24
    000001E2 18                     592 	.db #0x18	; 24
    000001E3 18                     593 	.db #0x18	; 24
    000001E4 18                     594 	.db #0x18	; 24
    000001E5 18                     595 	.db #0x18	; 24
    000001E6 18                     596 	.db #0x18	; 24
    000001E7 18                     597 	.db #0x18	; 24
    000001E8 18                     598 	.db #0x18	; 24
    000001E9 18                     599 	.db #0x18	; 24
    000001EA 18                     600 	.db #0x18	; 24
    000001EB 00                     601 	.db #0x00	; 0
    000001EC 00                     602 	.db #0x00	; 0
    000001ED 66                     603 	.db #0x66	; 102	'f'
    000001EE 66                     604 	.db #0x66	; 102	'f'
    000001EF 66                     605 	.db #0x66	; 102	'f'
    000001F0 66                     606 	.db #0x66	; 102	'f'
    000001F1 66                     607 	.db #0x66	; 102	'f'
    000001F2 66                     608 	.db #0x66	; 102	'f'
    000001F3 66                     609 	.db #0x66	; 102	'f'
    000001F4 66                     610 	.db #0x66	; 102	'f'
    000001F5 66                     611 	.db #0x66	; 102	'f'
    000001F6 66                     612 	.db #0x66	; 102	'f'
    000001F7 66                     613 	.db #0x66	; 102	'f'
    000001F8 66                     614 	.db #0x66	; 102	'f'
    000001F9 3C                     615 	.db #0x3c	; 60
    000001FA 3C                     616 	.db #0x3c	; 60
    000001FB 00                     617 	.db #0x00	; 0
    000001FC 00                     618 	.db #0x00	; 0
    000001FD 66                     619 	.db #0x66	; 102	'f'
    000001FE 66                     620 	.db #0x66	; 102	'f'
    000001FF 66                     621 	.db #0x66	; 102	'f'
    00000200 66                     622 	.db #0x66	; 102	'f'
    00000201 66                     623 	.db #0x66	; 102	'f'
    00000202 66                     624 	.db #0x66	; 102	'f'
    00000203 66                     625 	.db #0x66	; 102	'f'
    00000204 66                     626 	.db #0x66	; 102	'f'
    00000205 66                     627 	.db #0x66	; 102	'f'
    00000206 66                     628 	.db #0x66	; 102	'f'
    00000207 64                     629 	.db #0x64	; 100	'd'
    00000208 64                     630 	.db #0x64	; 100	'd'
    00000209 78                     631 	.db #0x78	; 120	'x'
    0000020A 78                     632 	.db #0x78	; 120	'x'
    0000020B 00                     633 	.db #0x00	; 0
    0000020C 00                     634 	.db #0x00	; 0
    0000020D C6                     635 	.db #0xc6	; 198
    0000020E C6                     636 	.db #0xc6	; 198
    0000020F C6                     637 	.db #0xc6	; 198
    00000210 C6                     638 	.db #0xc6	; 198
    00000211 C6                     639 	.db #0xc6	; 198
    00000212 C6                     640 	.db #0xc6	; 198
    00000213 D6                     641 	.db #0xd6	; 214
    00000214 D6                     642 	.db #0xd6	; 214
    00000215 D6                     643 	.db #0xd6	; 214
    00000216 D6                     644 	.db #0xd6	; 214
    00000217 D6                     645 	.db #0xd6	; 214
    00000218 D6                     646 	.db #0xd6	; 214
    00000219 FC                     647 	.db #0xfc	; 252
    0000021A FC                     648 	.db #0xfc	; 252
    0000021B 00                     649 	.db #0x00	; 0
    0000021C 00                     650 	.db #0x00	; 0
    0000021D 66                     651 	.db #0x66	; 102	'f'
    0000021E 66                     652 	.db #0x66	; 102	'f'
    0000021F 66                     653 	.db #0x66	; 102	'f'
    00000220 66                     654 	.db #0x66	; 102	'f'
    00000221 66                     655 	.db #0x66	; 102	'f'
    00000222 66                     656 	.db #0x66	; 102	'f'
    00000223 3C                     657 	.db #0x3c	; 60
    00000224 3C                     658 	.db #0x3c	; 60
    00000225 66                     659 	.db #0x66	; 102	'f'
    00000226 66                     660 	.db #0x66	; 102	'f'
    00000227 66                     661 	.db #0x66	; 102	'f'
    00000228 66                     662 	.db #0x66	; 102	'f'
    00000229 66                     663 	.db #0x66	; 102	'f'
    0000022A 66                     664 	.db #0x66	; 102	'f'
    0000022B 00                     665 	.db #0x00	; 0
    0000022C 00                     666 	.db #0x00	; 0
    0000022D 66                     667 	.db #0x66	; 102	'f'
    0000022E 66                     668 	.db #0x66	; 102	'f'
    0000022F 66                     669 	.db #0x66	; 102	'f'
    00000230 66                     670 	.db #0x66	; 102	'f'
    00000231 66                     671 	.db #0x66	; 102	'f'
    00000232 66                     672 	.db #0x66	; 102	'f'
    00000233 3C                     673 	.db #0x3c	; 60
    00000234 3C                     674 	.db #0x3c	; 60
    00000235 18                     675 	.db #0x18	; 24
    00000236 18                     676 	.db #0x18	; 24
    00000237 18                     677 	.db #0x18	; 24
    00000238 18                     678 	.db #0x18	; 24
    00000239 18                     679 	.db #0x18	; 24
    0000023A 18                     680 	.db #0x18	; 24
    0000023B 00                     681 	.db #0x00	; 0
    0000023C 00                     682 	.db #0x00	; 0
    0000023D 7E                     683 	.db #0x7e	; 126
    0000023E 7E                     684 	.db #0x7e	; 126
    0000023F 0E                     685 	.db #0x0e	; 14
    00000240 0E                     686 	.db #0x0e	; 14
    00000241 1C                     687 	.db #0x1c	; 28
    00000242 1C                     688 	.db #0x1c	; 28
    00000243 38                     689 	.db #0x38	; 56	'8'
    00000244 38                     690 	.db #0x38	; 56	'8'
    00000245 70                     691 	.db #0x70	; 112	'p'
    00000246 70                     692 	.db #0x70	; 112	'p'
    00000247 60                     693 	.db #0x60	; 96
    00000248 60                     694 	.db #0x60	; 96
    00000249 7E                     695 	.db #0x7e	; 126
    0000024A 7E                     696 	.db #0x7e	; 126
    0000024B 00                     697 	.db #0x00	; 0
    0000024C 00                     698 	.db #0x00	; 0
    0000024D 3C                     699 	.db #0x3c	; 60
    0000024E 3C                     700 	.db #0x3c	; 60
    0000024F 66                     701 	.db #0x66	; 102	'f'
    00000250 66                     702 	.db #0x66	; 102	'f'
    00000251 6E                     703 	.db #0x6e	; 110	'n'
    00000252 6E                     704 	.db #0x6e	; 110	'n'
    00000253 76                     705 	.db #0x76	; 118	'v'
    00000254 76                     706 	.db #0x76	; 118	'v'
    00000255 66                     707 	.db #0x66	; 102	'f'
    00000256 66                     708 	.db #0x66	; 102	'f'
    00000257 66                     709 	.db #0x66	; 102	'f'
    00000258 66                     710 	.db #0x66	; 102	'f'
    00000259 3C                     711 	.db #0x3c	; 60
    0000025A 3C                     712 	.db #0x3c	; 60
    0000025B 00                     713 	.db #0x00	; 0
    0000025C 00                     714 	.db #0x00	; 0
    0000025D 18                     715 	.db #0x18	; 24
    0000025E 18                     716 	.db #0x18	; 24
    0000025F 38                     717 	.db #0x38	; 56	'8'
    00000260 38                     718 	.db #0x38	; 56	'8'
    00000261 18                     719 	.db #0x18	; 24
    00000262 18                     720 	.db #0x18	; 24
    00000263 18                     721 	.db #0x18	; 24
    00000264 18                     722 	.db #0x18	; 24
    00000265 18                     723 	.db #0x18	; 24
    00000266 18                     724 	.db #0x18	; 24
    00000267 18                     725 	.db #0x18	; 24
    00000268 18                     726 	.db #0x18	; 24
    00000269 18                     727 	.db #0x18	; 24
    0000026A 18                     728 	.db #0x18	; 24
    0000026B 00                     729 	.db #0x00	; 0
    0000026C 00                     730 	.db #0x00	; 0
    0000026D 3C                     731 	.db #0x3c	; 60
    0000026E 3C                     732 	.db #0x3c	; 60
    0000026F 66                     733 	.db #0x66	; 102	'f'
    00000270 66                     734 	.db #0x66	; 102	'f'
    00000271 0E                     735 	.db #0x0e	; 14
    00000272 0E                     736 	.db #0x0e	; 14
    00000273 1C                     737 	.db #0x1c	; 28
    00000274 1C                     738 	.db #0x1c	; 28
    00000275 38                     739 	.db #0x38	; 56	'8'
    00000276 38                     740 	.db #0x38	; 56	'8'
    00000277 70                     741 	.db #0x70	; 112	'p'
    00000278 70                     742 	.db #0x70	; 112	'p'
    00000279 7E                     743 	.db #0x7e	; 126
    0000027A 7E                     744 	.db #0x7e	; 126
    0000027B 00                     745 	.db #0x00	; 0
    0000027C 00                     746 	.db #0x00	; 0
    0000027D 7E                     747 	.db #0x7e	; 126
    0000027E 7E                     748 	.db #0x7e	; 126
    0000027F 0C                     749 	.db #0x0c	; 12
    00000280 0C                     750 	.db #0x0c	; 12
    00000281 18                     751 	.db #0x18	; 24
    00000282 18                     752 	.db #0x18	; 24
    00000283 3C                     753 	.db #0x3c	; 60
    00000284 3C                     754 	.db #0x3c	; 60
    00000285 06                     755 	.db #0x06	; 6
    00000286 06                     756 	.db #0x06	; 6
    00000287 46                     757 	.db #0x46	; 70	'F'
    00000288 46                     758 	.db #0x46	; 70	'F'
    00000289 3C                     759 	.db #0x3c	; 60
    0000028A 3C                     760 	.db #0x3c	; 60
    0000028B 00                     761 	.db #0x00	; 0
    0000028C 00                     762 	.db #0x00	; 0
    0000028D 0C                     763 	.db #0x0c	; 12
    0000028E 0C                     764 	.db #0x0c	; 12
    0000028F 1C                     765 	.db #0x1c	; 28
    00000290 1C                     766 	.db #0x1c	; 28
    00000291 2C                     767 	.db #0x2c	; 44
    00000292 2C                     768 	.db #0x2c	; 44
    00000293 4C                     769 	.db #0x4c	; 76	'L'
    00000294 4C                     770 	.db #0x4c	; 76	'L'
    00000295 7E                     771 	.db #0x7e	; 126
    00000296 7E                     772 	.db #0x7e	; 126
    00000297 0C                     773 	.db #0x0c	; 12
    00000298 0C                     774 	.db #0x0c	; 12
    00000299 0C                     775 	.db #0x0c	; 12
    0000029A 0C                     776 	.db #0x0c	; 12
    0000029B 00                     777 	.db #0x00	; 0
    0000029C 00                     778 	.db #0x00	; 0
    0000029D 7E                     779 	.db #0x7e	; 126
    0000029E 7E                     780 	.db #0x7e	; 126
    0000029F 60                     781 	.db #0x60	; 96
    000002A0 60                     782 	.db #0x60	; 96
    000002A1 7C                     783 	.db #0x7c	; 124
    000002A2 7C                     784 	.db #0x7c	; 124
    000002A3 06                     785 	.db #0x06	; 6
    000002A4 06                     786 	.db #0x06	; 6
    000002A5 06                     787 	.db #0x06	; 6
    000002A6 06                     788 	.db #0x06	; 6
    000002A7 46                     789 	.db #0x46	; 70	'F'
    000002A8 46                     790 	.db #0x46	; 70	'F'
    000002A9 3C                     791 	.db #0x3c	; 60
    000002AA 3C                     792 	.db #0x3c	; 60
    000002AB 00                     793 	.db #0x00	; 0
    000002AC 00                     794 	.db #0x00	; 0
    000002AD 1C                     795 	.db #0x1c	; 28
    000002AE 1C                     796 	.db #0x1c	; 28
    000002AF 20                     797 	.db #0x20	; 32
    000002B0 20                     798 	.db #0x20	; 32
    000002B1 60                     799 	.db #0x60	; 96
    000002B2 60                     800 	.db #0x60	; 96
    000002B3 7C                     801 	.db #0x7c	; 124
    000002B4 7C                     802 	.db #0x7c	; 124
    000002B5 66                     803 	.db #0x66	; 102	'f'
    000002B6 66                     804 	.db #0x66	; 102	'f'
    000002B7 66                     805 	.db #0x66	; 102	'f'
    000002B8 66                     806 	.db #0x66	; 102	'f'
    000002B9 3C                     807 	.db #0x3c	; 60
    000002BA 3C                     808 	.db #0x3c	; 60
    000002BB 00                     809 	.db #0x00	; 0
    000002BC 00                     810 	.db #0x00	; 0
    000002BD 7E                     811 	.db #0x7e	; 126
    000002BE 7E                     812 	.db #0x7e	; 126
    000002BF 06                     813 	.db #0x06	; 6
    000002C0 06                     814 	.db #0x06	; 6
    000002C1 0E                     815 	.db #0x0e	; 14
    000002C2 0E                     816 	.db #0x0e	; 14
    000002C3 1C                     817 	.db #0x1c	; 28
    000002C4 1C                     818 	.db #0x1c	; 28
    000002C5 18                     819 	.db #0x18	; 24
    000002C6 18                     820 	.db #0x18	; 24
    000002C7 18                     821 	.db #0x18	; 24
    000002C8 18                     822 	.db #0x18	; 24
    000002C9 18                     823 	.db #0x18	; 24
    000002CA 18                     824 	.db #0x18	; 24
    000002CB 00                     825 	.db #0x00	; 0
    000002CC 00                     826 	.db #0x00	; 0
    000002CD 3C                     827 	.db #0x3c	; 60
    000002CE 3C                     828 	.db #0x3c	; 60
    000002CF 66                     829 	.db #0x66	; 102	'f'
    000002D0 66                     830 	.db #0x66	; 102	'f'
    000002D1 66                     831 	.db #0x66	; 102	'f'
    000002D2 66                     832 	.db #0x66	; 102	'f'
    000002D3 3C                     833 	.db #0x3c	; 60
    000002D4 3C                     834 	.db #0x3c	; 60
    000002D5 66                     835 	.db #0x66	; 102	'f'
    000002D6 66                     836 	.db #0x66	; 102	'f'
    000002D7 66                     837 	.db #0x66	; 102	'f'
    000002D8 66                     838 	.db #0x66	; 102	'f'
    000002D9 3C                     839 	.db #0x3c	; 60
    000002DA 3C                     840 	.db #0x3c	; 60
    000002DB 00                     841 	.db #0x00	; 0
    000002DC 00                     842 	.db #0x00	; 0
    000002DD 3C                     843 	.db #0x3c	; 60
    000002DE 3C                     844 	.db #0x3c	; 60
    000002DF 66                     845 	.db #0x66	; 102	'f'
    000002E0 66                     846 	.db #0x66	; 102	'f'
    000002E1 66                     847 	.db #0x66	; 102	'f'
    000002E2 66                     848 	.db #0x66	; 102	'f'
    000002E3 3E                     849 	.db #0x3e	; 62
    000002E4 3E                     850 	.db #0x3e	; 62
    000002E5 06                     851 	.db #0x06	; 6
    000002E6 06                     852 	.db #0x06	; 6
    000002E7 0C                     853 	.db #0x0c	; 12
    000002E8 0C                     854 	.db #0x0c	; 12
    000002E9 38                     855 	.db #0x38	; 56	'8'
    000002EA 38                     856 	.db #0x38	; 56	'8'
    000002EB 00                     857 	.db #0x00	; 0
    000002EC 00                     858 	.db #0x00	; 0
    000002ED 18                     859 	.db #0x18	; 24
    000002EE 18                     860 	.db #0x18	; 24
    000002EF 18                     861 	.db #0x18	; 24
    000002F0 18                     862 	.db #0x18	; 24
    000002F1 10                     863 	.db #0x10	; 16
    000002F2 10                     864 	.db #0x10	; 16
    000002F3 00                     865 	.db #0x00	; 0
    000002F4 00                     866 	.db #0x00	; 0
    000002F5 00                     867 	.db #0x00	; 0
    000002F6 00                     868 	.db #0x00	; 0
    000002F7 00                     869 	.db #0x00	; 0
    000002F8 00                     870 	.db #0x00	; 0
    000002F9 00                     871 	.db #0x00	; 0
    000002FA 00                     872 	.db #0x00	; 0
    000002FB 00                     873 	.db #0x00	; 0
    000002FC 00                     874 	.db #0x00	; 0
    000002FD 00                     875 	.db #0x00	; 0
    000002FE 00                     876 	.db #0x00	; 0
    000002FF 00                     877 	.db #0x00	; 0
    00000300 00                     878 	.db #0x00	; 0
    00000301 00                     879 	.db #0x00	; 0
    00000302 00                     880 	.db #0x00	; 0
    00000303 3C                     881 	.db #0x3c	; 60
    00000304 3C                     882 	.db #0x3c	; 60
    00000305 00                     883 	.db #0x00	; 0
    00000306 00                     884 	.db #0x00	; 0
    00000307 00                     885 	.db #0x00	; 0
    00000308 00                     886 	.db #0x00	; 0
    00000309 00                     887 	.db #0x00	; 0
    0000030A 00                     888 	.db #0x00	; 0
    0000030B 00                     889 	.db #0x00	; 0
    0000030C 00                     890 	.db #0x00	; 0
    0000030D 00                     891 	.db #0x00	; 0
    0000030E 00                     892 	.db #0x00	; 0
    0000030F 00                     893 	.db #0x00	; 0
    00000310 00                     894 	.db #0x00	; 0
    00000311 00                     895 	.db #0x00	; 0
    00000312 00                     896 	.db #0x00	; 0
    00000313 00                     897 	.db #0x00	; 0
    00000314 00                     898 	.db #0x00	; 0
    00000315 00                     899 	.db #0x00	; 0
    00000316 00                     900 	.db #0x00	; 0
    00000317 18                     901 	.db #0x18	; 24
    00000318 18                     902 	.db #0x18	; 24
    00000319 18                     903 	.db #0x18	; 24
    0000031A 18                     904 	.db #0x18	; 24
    0000031B 00                     905 	.db #0x00	; 0
    0000031C 00                     906 	.db #0x00	; 0
    0000031D 00                     907 	.db #0x00	; 0
    0000031E 00                     908 	.db #0x00	; 0
    0000031F 00                     909 	.db #0x00	; 0
    00000320 00                     910 	.db #0x00	; 0
    00000321 00                     911 	.db #0x00	; 0
    00000322 00                     912 	.db #0x00	; 0
    00000323 00                     913 	.db #0x00	; 0
    00000324 00                     914 	.db #0x00	; 0
    00000325 00                     915 	.db #0x00	; 0
    00000326 00                     916 	.db #0x00	; 0
    00000327 30                     917 	.db #0x30	; 48	'0'
    00000328 30                     918 	.db #0x30	; 48	'0'
    00000329 30                     919 	.db #0x30	; 48	'0'
    0000032A 30                     920 	.db #0x30	; 48	'0'
    0000032B 20                     921 	.db #0x20	; 32
    0000032C 20                     922 	.db #0x20	; 32
    0000032D 00                     923 	.db #0x00	; 0
    0000032E 00                     924 	.db #0x00	; 0
    0000032F 18                     925 	.db #0x18	; 24
    00000330 18                     926 	.db #0x18	; 24
    00000331 18                     927 	.db #0x18	; 24
    00000332 18                     928 	.db #0x18	; 24
    00000333 00                     929 	.db #0x00	; 0
    00000334 00                     930 	.db #0x00	; 0
    00000335 00                     931 	.db #0x00	; 0
    00000336 00                     932 	.db #0x00	; 0
    00000337 18                     933 	.db #0x18	; 24
    00000338 18                     934 	.db #0x18	; 24
    00000339 18                     935 	.db #0x18	; 24
    0000033A 18                     936 	.db #0x18	; 24
    0000033B 00                     937 	.db #0x00	; 0
    0000033C 00                     938 	.db #0x00	; 0
    0000033D 18                     939 	.db #0x18	; 24
    0000033E 18                     940 	.db #0x18	; 24
    0000033F 18                     941 	.db #0x18	; 24
    00000340 18                     942 	.db #0x18	; 24
    00000341 18                     943 	.db #0x18	; 24
    00000342 18                     944 	.db #0x18	; 24
    00000343 18                     945 	.db #0x18	; 24
    00000344 18                     946 	.db #0x18	; 24
    00000345 18                     947 	.db #0x18	; 24
    00000346 18                     948 	.db #0x18	; 24
    00000347 00                     949 	.db #0x00	; 0
    00000348 00                     950 	.db #0x00	; 0
    00000349 18                     951 	.db #0x18	; 24
    0000034A 18                     952 	.db #0x18	; 24
    0000034B 00                     953 	.db #0x00	; 0
    0000034C 00                     954 	.db #0x00	; 0
    0000034D 3C                     955 	.db #0x3c	; 60
    0000034E 3C                     956 	.db #0x3c	; 60
    0000034F 46                     957 	.db #0x46	; 70	'F'
    00000350 46                     958 	.db #0x46	; 70	'F'
    00000351 06                     959 	.db #0x06	; 6
    00000352 06                     960 	.db #0x06	; 6
    00000353 0C                     961 	.db #0x0c	; 12
    00000354 0C                     962 	.db #0x0c	; 12
    00000355 18                     963 	.db #0x18	; 24
    00000356 18                     964 	.db #0x18	; 24
    00000357 18                     965 	.db #0x18	; 24
    00000358 18                     966 	.db #0x18	; 24
    00000359 00                     967 	.db #0x00	; 0
    0000035A 00                     968 	.db #0x00	; 0
    0000035B 18                     969 	.db #0x18	; 24
    0000035C 18                     970 	.db #0x18	; 24
    0000035D 04                     971 	.db #0x04	; 4
    0000035E 04                     972 	.db #0x04	; 4
    0000035F 08                     973 	.db #0x08	; 8
    00000360 08                     974 	.db #0x08	; 8
    00000361 18                     975 	.db #0x18	; 24
    00000362 18                     976 	.db #0x18	; 24
    00000363 18                     977 	.db #0x18	; 24
    00000364 18                     978 	.db #0x18	; 24
    00000365 18                     979 	.db #0x18	; 24
    00000366 18                     980 	.db #0x18	; 24
    00000367 18                     981 	.db #0x18	; 24
    00000368 18                     982 	.db #0x18	; 24
    00000369 08                     983 	.db #0x08	; 8
    0000036A 08                     984 	.db #0x08	; 8
    0000036B 04                     985 	.db #0x04	; 4
    0000036C 04                     986 	.db #0x04	; 4
    0000036D 20                     987 	.db #0x20	; 32
    0000036E 20                     988 	.db #0x20	; 32
    0000036F 10                     989 	.db #0x10	; 16
    00000370 10                     990 	.db #0x10	; 16
    00000371 18                     991 	.db #0x18	; 24
    00000372 18                     992 	.db #0x18	; 24
    00000373 18                     993 	.db #0x18	; 24
    00000374 18                     994 	.db #0x18	; 24
    00000375 18                     995 	.db #0x18	; 24
    00000376 18                     996 	.db #0x18	; 24
    00000377 18                     997 	.db #0x18	; 24
    00000378 18                     998 	.db #0x18	; 24
    00000379 10                     999 	.db #0x10	; 16
    0000037A 10                    1000 	.db #0x10	; 16
    0000037B 20                    1001 	.db #0x20	; 32
    0000037C 20                    1002 	.db #0x20	; 32
    0000037D 00                    1003 	.db #0x00	; 0
    0000037E FE                    1004 	.db #0xfe	; 254
    0000037F 7C                    1005 	.db #0x7c	; 124
    00000380 82                    1006 	.db #0x82	; 130
    00000381 7C                    1007 	.db #0x7c	; 124
    00000382 82                    1008 	.db #0x82	; 130
    00000383 7C                    1009 	.db #0x7c	; 124
    00000384 82                    1010 	.db #0x82	; 130
    00000385 7C                    1011 	.db #0x7c	; 124
    00000386 82                    1012 	.db #0x82	; 130
    00000387 7C                    1013 	.db #0x7c	; 124
    00000388 82                    1014 	.db #0x82	; 130
    00000389 00                    1015 	.db #0x00	; 0
    0000038A FE                    1016 	.db #0xfe	; 254
    0000038B 00                    1017 	.db #0x00	; 0
    0000038C 00                    1018 	.db #0x00	; 0
    0000038D FF                    1019 	.db #0xff	; 255
    0000038E FF                    1020 	.db #0xff	; 255
    0000038F 00                    1021 	.db #0x00	; 0
    00000390 00                    1022 	.db #0x00	; 0
    00000391 FF                    1023 	.db #0xff	; 255
    00000392 FF                    1024 	.db #0xff	; 255
    00000393 FF                    1025 	.db #0xff	; 255
    00000394 FF                    1026 	.db #0xff	; 255
    00000395 00                    1027 	.db #0x00	; 0
    00000396 00                    1028 	.db #0x00	; 0
    00000397 00                    1029 	.db #0x00	; 0
    00000398 00                    1030 	.db #0x00	; 0
    00000399 00                    1031 	.db #0x00	; 0
    0000039A 00                    1032 	.db #0x00	; 0
    0000039B 00                    1033 	.db #0x00	; 0
    0000039C 00                    1034 	.db #0x00	; 0
    0000039D 00                    1035 	.db #0x00	; 0
    0000039E 00                    1036 	.db #0x00	; 0
    0000039F 00                    1037 	.db #0x00	; 0
    000003A0 00                    1038 	.db #0x00	; 0
    000003A1 00                    1039 	.db #0x00	; 0
    000003A2 00                    1040 	.db #0x00	; 0
    000003A3 00                    1041 	.db #0x00	; 0
    000003A4 00                    1042 	.db #0x00	; 0
    000003A5 00                    1043 	.db #0x00	; 0
    000003A6 00                    1044 	.db #0x00	; 0
    000003A7 00                    1045 	.db #0x00	; 0
    000003A8 00                    1046 	.db #0x00	; 0
    000003A9 00                    1047 	.db #0x00	; 0
    000003AA 00                    1048 	.db #0x00	; 0
    000003AB 00                    1049 	.db #0x00	; 0
    000003AC 00                    1050 	.db #0x00	; 0
    000003AD                       1051 ___str_0:
    000003AD 25 73                 1052 	.ascii "%s"
    000003AF 00                    1053 	.db 0x00
                                   1054 ;main.c:123: void set_start_room() {
                                   1055 ;	---------------------------------
                                   1056 ; Function set_start_room
                                   1057 ; ---------------------------------
    000003B0                       1058 _set_start_room::
                                   1059 ;main.c:124: current_room = room_1;
    000003B0 01r30r00         [12] 1060 	ld	bc, #_room_1+0
    000003B3 21r68r04         [12] 1061 	ld	hl, #_current_room
    000003B6 79               [ 4] 1062 	ld	a, c
    000003B7 22               [ 8] 1063 	ld	(hl+), a
    000003B8 70               [ 8] 1064 	ld	(hl), b
                                   1065 ;main.c:125: set_bkg_tiles(0, 0, 20, 18, room_1);
    000003B9 C5               [16] 1066 	push	bc
    000003BA 21 14 12         [12] 1067 	ld	hl, #0x1214
    000003BD E5               [16] 1068 	push	hl
    000003BE AF               [ 4] 1069 	xor	a, a
    000003BF 0F               [ 4] 1070 	rrca
    000003C0 F5               [16] 1071 	push	af
    000003C1 CDr00r00         [24] 1072 	call	_set_bkg_tiles
    000003C4 E8 06            [16] 1073 	add	sp, #6
                                   1074 ;main.c:126: }
    000003C6 C9               [16] 1075 	ret
    000003C7                       1076 _window_map:
    000003C7 C8                    1077 	.db #0xc8	; 200
    000003C8 18                    1078 	.db #0x18	; 24
    000003C9 1A                    1079 	.db #0x1a	; 26
    000003CA 0D                    1080 	.db #0x0d	; 13
    000003CB 1B                    1081 	.db #0x1b	; 27
    000003CC 1B                    1082 	.db #0x1b	; 27
    000003CD C8                    1083 	.db #0xc8	; 200
    000003CE 13                    1084 	.db #0x13	; 19
    000003CF 0D                    1085 	.db #0x0d	; 13
    000003D0 21                    1086 	.db #0x21	; 33
    000003D1 C8                    1087 	.db #0xc8	; 200
    000003D2 1C                    1088 	.db #0x1c	; 28
    000003D3 17                    1089 	.db #0x17	; 23
    000003D4 C8                    1090 	.db #0xc8	; 200
    000003D5 1B                    1091 	.db #0x1b	; 27
    000003D6 1C                    1092 	.db #0x1c	; 28
    000003D7 09                    1093 	.db #0x09	; 9
    000003D8 1A                    1094 	.db #0x1a	; 26
    000003D9 1C                    1095 	.db #0x1c	; 28
    000003DA                       1096 _win_map:
    000003DA C8                    1097 	.db #0xc8	; 200
    000003DB C8                    1098 	.db #0xc8	; 200
    000003DC C8                    1099 	.db #0xc8	; 200
    000003DD C8                    1100 	.db #0xc8	; 200
    000003DE C8                    1101 	.db #0xc8	; 200
    000003DF C8                    1102 	.db #0xc8	; 200
    000003E0 21                    1103 	.db #0x21	; 33
    000003E1 17                    1104 	.db #0x17	; 23
    000003E2 1D                    1105 	.db #0x1d	; 29
    000003E3 C8                    1106 	.db #0xc8	; 200
    000003E4 1F                    1107 	.db #0x1f	; 31
    000003E5 11                    1108 	.db #0x11	; 17
    000003E6 16                    1109 	.db #0x16	; 22
    000003E7 C8                    1110 	.db #0xc8	; 200
    000003E8 32                    1111 	.db #0x32	; 50	'2'
    000003E9 C8                    1112 	.db #0xc8	; 200
    000003EA C8                    1113 	.db #0xc8	; 200
    000003EB C8                    1114 	.db #0xc8	; 200
    000003EC C8                    1115 	.db #0xc8	; 200
    000003ED                       1116 _lose_map:
    000003ED C8                    1117 	.db #0xc8	; 200
    000003EE C8                    1118 	.db #0xc8	; 200
    000003EF C8                    1119 	.db #0xc8	; 200
    000003F0 C8                    1120 	.db #0xc8	; 200
    000003F1 C8                    1121 	.db #0xc8	; 200
    000003F2 C8                    1122 	.db #0xc8	; 200
    000003F3 21                    1123 	.db #0x21	; 33
    000003F4 17                    1124 	.db #0x17	; 23
    000003F5 1D                    1125 	.db #0x1d	; 29
    000003F6 C8                    1126 	.db #0xc8	; 200
    000003F7 14                    1127 	.db #0x14	; 20
    000003F8 17                    1128 	.db #0x17	; 23
    000003F9 1B                    1129 	.db #0x1b	; 27
    000003FA 0D                    1130 	.db #0x0d	; 13
    000003FB 2F                    1131 	.db #0x2f	; 47
    000003FC 2F                    1132 	.db #0x2f	; 47
    000003FD 2F                    1133 	.db #0x2f	; 47
    000003FE C8                    1134 	.db #0xc8	; 200
    000003FF C8                    1135 	.db #0xc8	; 200
                                   1136 ;main.c:128: void set_start_screen() {
                                   1137 ;	---------------------------------
                                   1138 ; Function set_start_screen
                                   1139 ; ---------------------------------
    00000400                       1140 _set_start_screen::
                                   1141 ;main.c:129: set_bkg_tiles(0, 0, 20, 32, start_screen);
    00000400 11r6Ar04         [12] 1142 	ld	de, #_start_screen
    00000403 D5               [16] 1143 	push	de
    00000404 21 14 20         [12] 1144 	ld	hl, #0x2014
    00000407 E5               [16] 1145 	push	hl
    00000408 AF               [ 4] 1146 	xor	a, a
    00000409 0F               [ 4] 1147 	rrca
    0000040A F5               [16] 1148 	push	af
    0000040B AF               [ 4] 1149 	xor	a, a
    0000040C CDr00r00         [24] 1150 	call	_set_bkg_tiles
    0000040F E8 06            [16] 1151 	add	sp, #6
                                   1152 ;main.c:130: current_room = start_screen;
    00000411 21r68r04         [12] 1153 	ld	hl, #_current_room
    00000414 36r6A            [12] 1154 	ld	(hl), #<(_start_screen)
    00000416 23               [ 8] 1155 	inc	hl
    00000417 36s04            [12] 1156 	ld	(hl), #>(_start_screen)
                                   1157 ;main.c:131: }
    00000419 C9               [16] 1158 	ret
                                   1159 ;main.c:133: void window_win() {
                                   1160 ;	---------------------------------
                                   1161 ; Function window_win
                                   1162 ; ---------------------------------
    0000041A                       1163 _window_win::
                                   1164 ;main.c:134: SHOW_WIN;
    0000041A F0r00            [12] 1165 	ldh	a, (_LCDC_REG + 0)
    0000041C F6 20            [ 8] 1166 	or	a, #0x20
    0000041E E0r00            [12] 1167 	ldh	(_LCDC_REG + 0), a
                                   1168 ;main.c:135: set_start_screen();
    00000420 CDr00r04         [24] 1169 	call	_set_start_screen
                                   1170 ;main.c:136: set_win_tiles(0, 1, 19, 1, win_map);
    00000423 11rDAr03         [12] 1171 	ld	de, #_win_map
    00000426 D5               [16] 1172 	push	de
    00000427 21 13 01         [12] 1173 	ld	hl, #0x113
    0000042A E5               [16] 1174 	push	hl
    0000042B AF               [ 4] 1175 	xor	a, a
    0000042C 3C               [ 4] 1176 	inc	a
    0000042D F5               [16] 1177 	push	af
    0000042E CDr00r00         [24] 1178 	call	_set_win_tiles
    00000431 E8 06            [16] 1179 	add	sp, #6
                                   1180 ;./gbdk/include/gb/gb.h:1727: WX_REG=x, WY_REG=y;
    00000433 3E 07            [ 8] 1181 	ld	a, #0x07
    00000435 E0r00            [12] 1182 	ldh	(_WX_REG + 0), a
    00000437 3E 78            [ 8] 1183 	ld	a, #0x78
    00000439 E0r00            [12] 1184 	ldh	(_WY_REG + 0), a
                                   1185 ;main.c:137: move_win(7, 120);
                                   1186 ;main.c:138: }
    0000043B C9               [16] 1187 	ret
                                   1188 ;main.c:140: void window_lose() {
                                   1189 ;	---------------------------------
                                   1190 ; Function window_lose
                                   1191 ; ---------------------------------
    0000043C                       1192 _window_lose::
                                   1193 ;main.c:141: SHOW_WIN;
    0000043C F0r00            [12] 1194 	ldh	a, (_LCDC_REG + 0)
    0000043E F6 20            [ 8] 1195 	or	a, #0x20
    00000440 E0r00            [12] 1196 	ldh	(_LCDC_REG + 0), a
                                   1197 ;main.c:142: set_start_screen();
    00000442 CDr00r04         [24] 1198 	call	_set_start_screen
                                   1199 ;main.c:143: set_win_tiles(0, 1, 19, 1, lose_map);
    00000445 11rEDr03         [12] 1200 	ld	de, #_lose_map
    00000448 D5               [16] 1201 	push	de
    00000449 21 13 01         [12] 1202 	ld	hl, #0x113
    0000044C E5               [16] 1203 	push	hl
    0000044D AF               [ 4] 1204 	xor	a, a
    0000044E 3C               [ 4] 1205 	inc	a
    0000044F F5               [16] 1206 	push	af
    00000450 CDr00r00         [24] 1207 	call	_set_win_tiles
    00000453 E8 06            [16] 1208 	add	sp, #6
                                   1209 ;./gbdk/include/gb/gb.h:1727: WX_REG=x, WY_REG=y;
    00000455 3E 07            [ 8] 1210 	ld	a, #0x07
    00000457 E0r00            [12] 1211 	ldh	(_WX_REG + 0), a
    00000459 3E 78            [ 8] 1212 	ld	a, #0x78
    0000045B E0r00            [12] 1213 	ldh	(_WY_REG + 0), a
                                   1214 ;main.c:144: move_win(7, 120);
                                   1215 ;main.c:145: }
    0000045D C9               [16] 1216 	ret
                                   1217 ;main.c:149: void set_end_screen() {
                                   1218 ;	---------------------------------
                                   1219 ; Function set_end_screen
                                   1220 ; ---------------------------------
    0000045E                       1221 _set_end_screen::
                                   1222 ;main.c:150: player_x = 88;
    0000045E 21r3Ar07         [12] 1223 	ld	hl, #_player_x
    00000461 3E 58            [ 8] 1224 	ld	a, #0x58
    00000463 22               [ 8] 1225 	ld	(hl+), a
    00000464 AF               [ 4] 1226 	xor	a, a
    00000465 77               [ 8] 1227 	ld	(hl), a
                                   1228 ;main.c:151: player_y = 56;
    00000466 21r3Cr07         [12] 1229 	ld	hl, #_player_y
    00000469 3E 38            [ 8] 1230 	ld	a, #0x38
    0000046B 22               [ 8] 1231 	ld	(hl+), a
    0000046C AF               [ 4] 1232 	xor	a, a
    0000046D 77               [ 8] 1233 	ld	(hl), a
                                   1234 ;main.c:152: while(1) {
    0000046E                       1235 00102$:
                                   1236 ;./gbdk/include/gb/gb.h:1463: SCX_REG+=x, SCY_REG+=y;
    0000046E F0r00            [12] 1237 	ldh	a, (_SCY_REG + 0)
    00000470 3C               [ 4] 1238 	inc	a
    00000471 E0r00            [12] 1239 	ldh	(_SCY_REG + 0), a
                                   1240 ;main.c:154: draw_player();
    00000473 CDr18r07         [24] 1241 	call	_draw_player
                                   1242 ;main.c:155: vsync();
    00000476 CDr00r00         [24] 1243 	call	_vsync
                                   1244 ;main.c:157: }
    00000479 18 F3            [12] 1245 	jr	00102$
                                   1246 ;main.c:159: unsigned char get_bkg_tile_from_pos(uint8_t x, uint8_t y) {
                                   1247 ;	---------------------------------
                                   1248 ; Function get_bkg_tile_from_pos
                                   1249 ; ---------------------------------
    0000047B                       1250 _get_bkg_tile_from_pos::
    0000047B E8 FD            [16] 1251 	add	sp, #-3
    0000047D F8 02            [12] 1252 	ldhl	sp,	#2
    0000047F 73               [ 8] 1253 	ld	(hl), e
                                   1254 ;main.c:160: int column  = (x / 8) - 1;
    00000480 2B               [ 8] 1255 	dec	hl
    00000481 4F               [ 4] 1256 	ld	c, a
    00000482 06 00            [ 8] 1257 	ld	b, #0x00
    00000484 CB 28            [ 8] 1258 	sra	b
    00000486 CB 19            [ 8] 1259 	rr	c
    00000488 CB 28            [ 8] 1260 	sra	b
    0000048A CB 19            [ 8] 1261 	rr	c
    0000048C CB 28            [ 8] 1262 	sra	b
    0000048E CB 19            [ 8] 1263 	rr	c
    00000490 11 01 00         [12] 1264 	ld	de, #0x0001
    00000493 79               [ 4] 1265 	ld	a, c
    00000494 93               [ 4] 1266 	sub	a, e
    00000495 5F               [ 4] 1267 	ld	e, a
    00000496 78               [ 4] 1268 	ld	a, b
    00000497 9A               [ 4] 1269 	sbc	a, d
    00000498 32               [ 8] 1270 	ld	(hl-), a
                                   1271 ;main.c:161: int row     = (y / 8) - 1;
    00000499 7B               [ 4] 1272 	ld	a, e
    0000049A 22               [ 8] 1273 	ld	(hl+), a
    0000049B 23               [ 8] 1274 	inc	hl
                                   1275 ;main.c:163: if (column < 0 || row < 0 || column >= 19 || row >= 18)
    0000049C 3A               [ 8] 1276 	ld	a, (hl-)
    0000049D 4F               [ 4] 1277 	ld	c, a
    0000049E 06 00            [ 8] 1278 	ld	b, #0x00
    000004A0 CB 28            [ 8] 1279 	sra	b
    000004A2 CB 19            [ 8] 1280 	rr	c
    000004A4 CB 28            [ 8] 1281 	sra	b
    000004A6 CB 19            [ 8] 1282 	rr	c
    000004A8 CB 28            [ 8] 1283 	sra	b
    000004AA CB 19            [ 8] 1284 	rr	c
    000004AC 0B               [ 8] 1285 	dec	bc
    000004AD CB 7E            [12] 1286 	bit	7, (hl)
    000004AF 20 2B            [12] 1287 	jr	NZ, 00101$
    000004B1 CB 78            [ 8] 1288 	bit	7, b
    000004B3 20 27            [12] 1289 	jr	NZ, 00101$
    000004B5 2B               [ 8] 1290 	dec	hl
    000004B6 2A               [ 8] 1291 	ld	a, (hl+)
    000004B7 D6 13            [ 8] 1292 	sub	a, #0x13
    000004B9 7E               [ 8] 1293 	ld	a, (hl)
    000004BA DE 00            [ 8] 1294 	sbc	a, #0x00
    000004BC 56               [ 8] 1295 	ld	d, (hl)
    000004BD 3E 00            [ 8] 1296 	ld	a, #0x00
    000004BF CB 7F            [ 8] 1297 	bit	7,a
    000004C1 28 07            [12] 1298 	jr	Z, 00135$
    000004C3 CB 7A            [ 8] 1299 	bit	7, d
    000004C5 20 08            [12] 1300 	jr	NZ, 00136$
    000004C7 BF               [ 4] 1301 	cp	a, a
    000004C8 18 05            [12] 1302 	jr	00136$
    000004CA                       1303 00135$:
    000004CA CB 7A            [ 8] 1304 	bit	7, d
    000004CC 28 01            [12] 1305 	jr	Z, 00136$
    000004CE 37               [ 4] 1306 	scf
    000004CF                       1307 00136$:
    000004CF 30 0B            [12] 1308 	jr	NC, 00101$
    000004D1 79               [ 4] 1309 	ld	a, c
    000004D2 D6 12            [ 8] 1310 	sub	a, #0x12
    000004D4 78               [ 4] 1311 	ld	a, b
    000004D5 17               [ 4] 1312 	rla
    000004D6 3F               [ 4] 1313 	ccf
    000004D7 1F               [ 4] 1314 	rra
    000004D8 DE 80            [ 8] 1315 	sbc	a, #0x80
    000004DA 38 04            [12] 1316 	jr	C, 00102$
    000004DC                       1317 00101$:
                                   1318 ;main.c:164: return 7;
    000004DC 3E 07            [ 8] 1319 	ld	a, #0x07
    000004DE 18 19            [12] 1320 	jr	00106$
    000004E0                       1321 00102$:
                                   1322 ;main.c:165: return current_room[column + (row*20)];
    000004E0 69               [ 4] 1323 	ld	l, c
    000004E1 60               [ 4] 1324 	ld	h, b
    000004E2 29               [ 8] 1325 	add	hl, hl
    000004E3 29               [ 8] 1326 	add	hl, hl
    000004E4 09               [ 8] 1327 	add	hl, bc
    000004E5 29               [ 8] 1328 	add	hl, hl
    000004E6 29               [ 8] 1329 	add	hl, hl
    000004E7 4D               [ 4] 1330 	ld	c, l
    000004E8 44               [ 4] 1331 	ld	b, h
    000004E9 E1               [12] 1332 	pop	hl
    000004EA E5               [16] 1333 	push	hl
    000004EB 09               [ 8] 1334 	add	hl, bc
    000004EC 4D               [ 4] 1335 	ld	c, l
    000004ED 44               [ 4] 1336 	ld	b, h
    000004EE 79               [ 4] 1337 	ld	a, c
    000004EF 21r68r04         [12] 1338 	ld	hl, #_current_room
    000004F2 86               [ 8] 1339 	add	a, (hl)
    000004F3 23               [ 8] 1340 	inc	hl
    000004F4 4F               [ 4] 1341 	ld	c, a
    000004F5 78               [ 4] 1342 	ld	a, b
    000004F6 8E               [ 8] 1343 	adc	a, (hl)
    000004F7 47               [ 4] 1344 	ld	b, a
    000004F8 0A               [ 8] 1345 	ld	a, (bc)
    000004F9                       1346 00106$:
                                   1347 ;main.c:166: }
    000004F9 E8 03            [16] 1348 	add	sp, #3
    000004FB C9               [16] 1349 	ret
                                   1350 ;main.c:174: void update_path(char dir) {
                                   1351 ;	---------------------------------
                                   1352 ; Function update_path
                                   1353 ; ---------------------------------
    000004FC                       1354 _update_path::
    000004FC 4F               [ 4] 1355 	ld	c, a
                                   1356 ;main.c:175: path[path_num] = dir; 
    000004FD FAr6Fr07         [16] 1357 	ld	a, (#_path_num)
    00000500 5F               [ 4] 1358 	ld	e, a
    00000501 07               [ 4] 1359 	rlca
    00000502 9F               [ 4] 1360 	sbc	a, a
    00000503 57               [ 4] 1361 	ld	d, a
    00000504 21r3Fr07         [12] 1362 	ld	hl, #_path
    00000507 19               [ 8] 1363 	add	hl, de
    00000508 71               [ 8] 1364 	ld	(hl), c
                                   1365 ;main.c:176: path_num++;
    00000509 21r6Fr07         [12] 1366 	ld	hl, #_path_num
    0000050C 34               [12] 1367 	inc	(hl)
                                   1368 ;main.c:177: if (path_num > path_size) {
    0000050D 5E               [ 8] 1369 	ld	e, (hl)
    0000050E 3E 20            [ 8] 1370 	ld	a,#0x20
    00000510 57               [ 4] 1371 	ld	d,a
    00000511 96               [ 8] 1372 	sub	a, (hl)
    00000512 CB 7B            [ 8] 1373 	bit	7, e
    00000514 28 07            [12] 1374 	jr	Z, 00112$
    00000516 CB 7A            [ 8] 1375 	bit	7, d
    00000518 20 08            [12] 1376 	jr	NZ, 00113$
    0000051A BF               [ 4] 1377 	cp	a, a
    0000051B 18 05            [12] 1378 	jr	00113$
    0000051D                       1379 00112$:
    0000051D CB 7A            [ 8] 1380 	bit	7, d
    0000051F 28 01            [12] 1381 	jr	Z, 00113$
    00000521 37               [ 4] 1382 	scf
    00000522                       1383 00113$:
    00000522 D0               [20] 1384 	ret	NC
                                   1385 ;main.c:179: window_lose();
    00000523 CDr3Cr04         [24] 1386 	call	_window_lose
                                   1387 ;main.c:180: set_end_screen();
                                   1388 ;main.c:182: }
    00000526 C3r5Er04         [16] 1389 	jp	_set_end_screen
                                   1390 ;main.c:183: int test_win() {
                                   1391 ;	---------------------------------
                                   1392 ; Function test_win
                                   1393 ; ---------------------------------
    00000529                       1394 _test_win::
    00000529 3B               [ 8] 1395 	dec	sp
                                   1396 ;main.c:184: you_win = 0;
    0000052A 21r3Er07         [12] 1397 	ld	hl, #_you_win
    0000052D 36 00            [12] 1398 	ld	(hl), #0x00
                                   1399 ;main.c:187: if (path_num == 32) {
    0000052F FAr6Fr07         [16] 1400 	ld	a, (#_path_num)
    00000532 D6 20            [ 8] 1401 	sub	a, #0x20
    00000534 20 4A            [12] 1402 	jr	NZ, 00105$
                                   1403 ;main.c:188: for (int i=0; i<16; i++) {
    00000536 01 00 00         [12] 1404 	ld	bc, #0x0000
    00000539                       1405 00107$:
    00000539 79               [ 4] 1406 	ld	a, c
    0000053A D6 10            [ 8] 1407 	sub	a, #0x10
    0000053C 78               [ 4] 1408 	ld	a, b
    0000053D 17               [ 4] 1409 	rla
    0000053E 3F               [ 4] 1410 	ccf
    0000053F 1F               [ 4] 1411 	rra
    00000540 DE 80            [ 8] 1412 	sbc	a, #0x80
    00000542 30 37            [12] 1413 	jr	NC, 00103$
                                   1414 ;main.c:190: if (path_hash[i] != (path[i*2] ^ path[i*2+1])) {
    00000544 21r5Fr07         [12] 1415 	ld	hl, #_path_hash
    00000547 09               [ 8] 1416 	add	hl, bc
    00000548 7E               [ 8] 1417 	ld	a, (hl)
    00000549 F8 00            [12] 1418 	ldhl	sp,	#0
    0000054B 77               [ 8] 1419 	ld	(hl), a
    0000054C 79               [ 4] 1420 	ld	a, c
    0000054D 87               [ 4] 1421 	add	a, a
    0000054E 57               [ 4] 1422 	ld	d, a
    0000054F 6F               [ 4] 1423 	ld	l, a
                                   1424 ;	spillPairReg hl
                                   1425 ;	spillPairReg hl
    00000550 07               [ 4] 1426 	rlca
    00000551 9F               [ 4] 1427 	sbc	a, a
    00000552 67               [ 4] 1428 	ld	h, a
                                   1429 ;	spillPairReg hl
                                   1430 ;	spillPairReg hl
    00000553 D5               [16] 1431 	push	de
    00000554 11r3Fr07         [12] 1432 	ld	de, #_path
    00000557 19               [ 8] 1433 	add	hl, de
    00000558 D1               [12] 1434 	pop	de
    00000559 5E               [ 8] 1435 	ld	e, (hl)
    0000055A 7A               [ 4] 1436 	ld	a, d
    0000055B 3C               [ 4] 1437 	inc	a
    0000055C 6F               [ 4] 1438 	ld	l, a
                                   1439 ;	spillPairReg hl
                                   1440 ;	spillPairReg hl
    0000055D 07               [ 4] 1441 	rlca
    0000055E 9F               [ 4] 1442 	sbc	a, a
    0000055F 67               [ 4] 1443 	ld	h, a
                                   1444 ;	spillPairReg hl
                                   1445 ;	spillPairReg hl
    00000560 D5               [16] 1446 	push	de
    00000561 11r3Fr07         [12] 1447 	ld	de, #_path
    00000564 19               [ 8] 1448 	add	hl, de
    00000565 D1               [12] 1449 	pop	de
    00000566 7E               [ 8] 1450 	ld	a, (hl)
    00000567 AB               [ 4] 1451 	xor	a, e
    00000568 5F               [ 4] 1452 	ld	e, a
    00000569 F8 00            [12] 1453 	ldhl	sp,	#0
    0000056B 7E               [ 8] 1454 	ld	a, (hl)
    0000056C 93               [ 4] 1455 	sub	a, e
    0000056D 28 09            [12] 1456 	jr	Z, 00108$
                                   1457 ;main.c:192: return you_win = 0;            
    0000056F 21r3Er07         [12] 1458 	ld	hl, #_you_win
    00000572 01 00 00         [12] 1459 	ld	bc, #0x0000
    00000575 71               [ 8] 1460 	ld	(hl), c
    00000576 18 0F            [12] 1461 	jr	00109$
    00000578                       1462 00108$:
                                   1463 ;main.c:188: for (int i=0; i<16; i++) {
    00000578 03               [ 8] 1464 	inc	bc
    00000579 18 BE            [12] 1465 	jr	00107$
    0000057B                       1466 00103$:
                                   1467 ;main.c:195: you_win = 1;
    0000057B 21r3Er07         [12] 1468 	ld	hl, #_you_win
    0000057E 36 01            [12] 1469 	ld	(hl), #0x01
    00000580                       1470 00105$:
                                   1471 ;main.c:197: return you_win;
    00000580 FAr3Er07         [16] 1472 	ld	a, (#_you_win)
    00000583 4F               [ 4] 1473 	ld	c, a
    00000584 07               [ 4] 1474 	rlca
    00000585 9F               [ 4] 1475 	sbc	a, a
    00000586 47               [ 4] 1476 	ld	b, a
    00000587                       1477 00109$:
                                   1478 ;main.c:198: }
    00000587 33               [ 8] 1479 	inc	sp
    00000588 C9               [16] 1480 	ret
                                   1481 ;main.c:200: void update_player(uint8_t joypad_state) {
                                   1482 ;	---------------------------------
                                   1483 ; Function update_player
                                   1484 ; ---------------------------------
    00000589                       1485 _update_player::
    00000589 E8 FA            [16] 1486 	add	sp, #-6
    0000058B F8 05            [12] 1487 	ldhl	sp,	#5
    0000058D 77               [ 8] 1488 	ld	(hl), a
                                   1489 ;main.c:201: int old_x = player_x;
    0000058E FAr3Ar07         [16] 1490 	ld	a, (#_player_x)
    00000591 F8 00            [12] 1491 	ldhl	sp,	#0
    00000593 77               [ 8] 1492 	ld	(hl), a
    00000594 FAr3Br07         [16] 1493 	ld	a, (#_player_x + 1)
    00000597 F8 01            [12] 1494 	ldhl	sp,	#1
    00000599 77               [ 8] 1495 	ld	(hl), a
                                   1496 ;main.c:202: int old_y = player_y;
    0000059A FAr3Cr07         [16] 1497 	ld	a, (#_player_y)
    0000059D F8 02            [12] 1498 	ldhl	sp,	#2
    0000059F 77               [ 8] 1499 	ld	(hl), a
    000005A0 FAr3Dr07         [16] 1500 	ld	a, (#_player_y + 1)
    000005A3 F8 03            [12] 1501 	ldhl	sp,	#3
                                   1502 ;main.c:208: if(joypad_state & J_UP) {
    000005A5 22               [ 8] 1503 	ld	(hl+), a
    000005A6 23               [ 8] 1504 	inc	hl
    000005A7 3A               [ 8] 1505 	ld	a, (hl-)
    000005A8 E6 04            [ 8] 1506 	and	a, #0x04
    000005AA 5F               [ 4] 1507 	ld	e, a
    000005AB 16 00            [ 8] 1508 	ld	d, #0x00
    000005AD 72               [ 8] 1509 	ld	(hl), d
    000005AE 0E 00            [ 8] 1510 	ld	c, #0x00
                                   1511 ;main.c:210: local_tile  = get_bkg_tile_from_pos(player_x, player_y-7);
    000005B0 21r3Ar07         [12] 1512 	ld	hl, #_player_x
    000005B3 46               [ 8] 1513 	ld	b, (hl)
                                   1514 ;main.c:208: if(joypad_state & J_UP) {
    000005B4 7A               [ 4] 1515 	ld	a, d
    000005B5 B3               [ 4] 1516 	or	a, e
    000005B6 28 29            [12] 1517 	jr	Z, 00104$
                                   1518 ;main.c:209: player_y -= player_speed;
    000005B8 21r3Cr07         [12] 1519 	ld	hl, #_player_y
    000005BB 2A               [ 8] 1520 	ld	a, (hl+)
    000005BC 5F               [ 4] 1521 	ld	e, a
    000005BD 3A               [ 8] 1522 	ld	a, (hl-)
    000005BE 57               [ 4] 1523 	ld	d, a
    000005BF 1B               [ 8] 1524 	dec	de
    000005C0 1B               [ 8] 1525 	dec	de
    000005C1 7B               [ 4] 1526 	ld	a, e
    000005C2 22               [ 8] 1527 	ld	(hl+), a
                                   1528 ;main.c:210: local_tile  = get_bkg_tile_from_pos(player_x, player_y-7);
    000005C3 7A               [ 4] 1529 	ld	a, d
    000005C4 32               [ 8] 1530 	ld	(hl-), a
    000005C5 7E               [ 8] 1531 	ld	a, (hl)
    000005C6 C6 F9            [ 8] 1532 	add	a, #0xf9
    000005C8 5F               [ 4] 1533 	ld	e, a
    000005C9 78               [ 4] 1534 	ld	a, b
    000005CA CDr7Br04         [24] 1535 	call	_get_bkg_tile_from_pos
    000005CD F8 04            [12] 1536 	ldhl	sp,	#4
    000005CF 77               [ 8] 1537 	ld	(hl), a
                                   1538 ;main.c:211: local_tile2 = get_bkg_tile_from_pos(player_x+7, player_y-7);
    000005D0 FAr3Cr07         [16] 1539 	ld	a, (#_player_y)
    000005D3 C6 F9            [ 8] 1540 	add	a, #0xf9
    000005D5 5F               [ 4] 1541 	ld	e, a
    000005D6 FAr3Ar07         [16] 1542 	ld	a, (#_player_x)
    000005D9 C6 07            [ 8] 1543 	add	a, #0x07
    000005DB CDr7Br04         [24] 1544 	call	_get_bkg_tile_from_pos
    000005DE 4F               [ 4] 1545 	ld	c, a
    000005DF 18 28            [12] 1546 	jr	00105$
    000005E1                       1547 00104$:
                                   1548 ;main.c:213: else if(joypad_state & J_DOWN) {
    000005E1 E5               [16] 1549 	push	hl
    000005E2 F8 07            [12] 1550 	ldhl	sp,	#7
    000005E4 CB 5E            [12] 1551 	bit	3, (hl)
    000005E6 E1               [12] 1552 	pop	hl
    000005E7 28 20            [12] 1553 	jr	Z, 00105$
                                   1554 ;main.c:214: player_y += player_speed;
    000005E9 21r3Cr07         [12] 1555 	ld	hl, #_player_y
    000005EC 7E               [ 8] 1556 	ld	a, (hl)
    000005ED C6 02            [ 8] 1557 	add	a, #0x02
    000005EF 22               [ 8] 1558 	ld	(hl+), a
    000005F0 7E               [ 8] 1559 	ld	a, (hl)
    000005F1 CE 00            [ 8] 1560 	adc	a, #0x00
                                   1561 ;main.c:215: local_tile  = get_bkg_tile_from_pos(player_x, player_y);
    000005F3 32               [ 8] 1562 	ld	(hl-), a
    000005F4 5E               [ 8] 1563 	ld	e, (hl)
    000005F5 78               [ 4] 1564 	ld	a, b
    000005F6 CDr7Br04         [24] 1565 	call	_get_bkg_tile_from_pos
    000005F9 F8 04            [12] 1566 	ldhl	sp,	#4
    000005FB 77               [ 8] 1567 	ld	(hl), a
                                   1568 ;main.c:216: local_tile2 = get_bkg_tile_from_pos(player_x+7, player_y);
    000005FC 21r3Cr07         [12] 1569 	ld	hl, #_player_y
    000005FF 5E               [ 8] 1570 	ld	e, (hl)
    00000600 FAr3Ar07         [16] 1571 	ld	a, (#_player_x)
    00000603 C6 07            [ 8] 1572 	add	a, #0x07
    00000605 CDr7Br04         [24] 1573 	call	_get_bkg_tile_from_pos
    00000608 4F               [ 4] 1574 	ld	c, a
    00000609                       1575 00105$:
                                   1576 ;main.c:218: if (local_tile == 1 || local_tile == 2 || local_tile2 == 1 || local_tile2 == 2) {
    00000609 F8 04            [12] 1577 	ldhl	sp,	#4
    0000060B 7E               [ 8] 1578 	ld	a, (hl)
    0000060C 3D               [ 4] 1579 	dec	a
    0000060D 28 10            [12] 1580 	jr	Z, 00106$
    0000060F F8 04            [12] 1581 	ldhl	sp,	#4
    00000611 7E               [ 8] 1582 	ld	a, (hl)
    00000612 D6 02            [ 8] 1583 	sub	a, #0x02
    00000614 28 09            [12] 1584 	jr	Z, 00106$
    00000616 79               [ 4] 1585 	ld	a, c
    00000617 3D               [ 4] 1586 	dec	a
    00000618 28 05            [12] 1587 	jr	Z, 00106$
    0000061A 79               [ 4] 1588 	ld	a, c
    0000061B D6 02            [ 8] 1589 	sub	a, #0x02
    0000061D 20 0C            [12] 1590 	jr	NZ, 00107$
    0000061F                       1591 00106$:
                                   1592 ;main.c:219: player_y = old_y;
    0000061F F8 02            [12] 1593 	ldhl	sp,	#2
    00000621 7E               [ 8] 1594 	ld	a, (hl)
    00000622 EAr3Cr07         [16] 1595 	ld	(#_player_y),a
    00000625 F8 03            [12] 1596 	ldhl	sp,	#3
    00000627 7E               [ 8] 1597 	ld	a, (hl)
    00000628 EAr3Dr07         [16] 1598 	ld	(#_player_y + 1),a
    0000062B                       1599 00107$:
                                   1600 ;main.c:210: local_tile  = get_bkg_tile_from_pos(player_x, player_y-7);
    0000062B 21r3Cr07         [12] 1601 	ld	hl, #_player_y
    0000062E 7E               [ 8] 1602 	ld	a, (hl)
                                   1603 ;main.c:224: local_tile  = get_bkg_tile_from_pos(player_x, player_y-7);
    0000062F C6 F9            [ 8] 1604 	add	a, #0xf9
    00000631 5F               [ 4] 1605 	ld	e, a
                                   1606 ;main.c:222: if(joypad_state & J_LEFT) {
    00000632 E5               [16] 1607 	push	hl
    00000633 F8 07            [12] 1608 	ldhl	sp,	#7
    00000635 CB 4E            [12] 1609 	bit	1, (hl)
    00000637 E1               [12] 1610 	pop	hl
    00000638 28 1F            [12] 1611 	jr	Z, 00114$
                                   1612 ;main.c:223: player_x -= player_speed;
    0000063A 21r3Ar07         [12] 1613 	ld	hl, #_player_x
    0000063D 7E               [ 8] 1614 	ld	a, (hl)
    0000063E C6 FE            [ 8] 1615 	add	a, #0xfe
    00000640 22               [ 8] 1616 	ld	(hl+), a
    00000641 7E               [ 8] 1617 	ld	a, (hl)
    00000642 CE FF            [ 8] 1618 	adc	a, #0xff
                                   1619 ;main.c:224: local_tile  = get_bkg_tile_from_pos(player_x, player_y-7);
    00000644 32               [ 8] 1620 	ld	(hl-), a
    00000645 7E               [ 8] 1621 	ld	a, (hl)
    00000646 CDr7Br04         [24] 1622 	call	_get_bkg_tile_from_pos
    00000649 F8 04            [12] 1623 	ldhl	sp,	#4
    0000064B 77               [ 8] 1624 	ld	(hl), a
                                   1625 ;main.c:225: local_tile2 = get_bkg_tile_from_pos(player_x, player_y);
    0000064C 21r3Cr07         [12] 1626 	ld	hl, #_player_y
    0000064F 5E               [ 8] 1627 	ld	e, (hl)
    00000650 FAr3Ar07         [16] 1628 	ld	a, (#_player_x)
    00000653 CDr7Br04         [24] 1629 	call	_get_bkg_tile_from_pos
    00000656 4F               [ 4] 1630 	ld	c, a
    00000657 18 29            [12] 1631 	jr	00115$
    00000659                       1632 00114$:
                                   1633 ;main.c:227: else if(joypad_state & J_RIGHT) {
    00000659 E5               [16] 1634 	push	hl
    0000065A F8 07            [12] 1635 	ldhl	sp,	#7
    0000065C CB 46            [12] 1636 	bit	0, (hl)
    0000065E E1               [12] 1637 	pop	hl
    0000065F 28 21            [12] 1638 	jr	Z, 00115$
                                   1639 ;main.c:228: player_x += player_speed;
    00000661 21r3Ar07         [12] 1640 	ld	hl, #_player_x
    00000664 7E               [ 8] 1641 	ld	a, (hl)
    00000665 C6 02            [ 8] 1642 	add	a, #0x02
    00000667 22               [ 8] 1643 	ld	(hl+), a
    00000668 7E               [ 8] 1644 	ld	a, (hl)
    00000669 CE 00            [ 8] 1645 	adc	a, #0x00
                                   1646 ;main.c:229: local_tile  = get_bkg_tile_from_pos(player_x+7, player_y-7);
    0000066B 32               [ 8] 1647 	ld	(hl-), a
    0000066C 7E               [ 8] 1648 	ld	a, (hl)
    0000066D C6 07            [ 8] 1649 	add	a, #0x07
    0000066F CDr7Br04         [24] 1650 	call	_get_bkg_tile_from_pos
    00000672 F8 04            [12] 1651 	ldhl	sp,	#4
    00000674 77               [ 8] 1652 	ld	(hl), a
                                   1653 ;main.c:230: local_tile2 = get_bkg_tile_from_pos(player_x+7, player_y);
    00000675 21r3Cr07         [12] 1654 	ld	hl, #_player_y
    00000678 5E               [ 8] 1655 	ld	e, (hl)
    00000679 FAr3Ar07         [16] 1656 	ld	a, (#_player_x)
    0000067C C6 07            [ 8] 1657 	add	a, #0x07
    0000067E CDr7Br04         [24] 1658 	call	_get_bkg_tile_from_pos
    00000681 4F               [ 4] 1659 	ld	c, a
    00000682                       1660 00115$:
                                   1661 ;main.c:232: if (local_tile == 1 || local_tile == 2 || local_tile2 == 1 || local_tile2 == 2) {
    00000682 F8 04            [12] 1662 	ldhl	sp,	#4
    00000684 7E               [ 8] 1663 	ld	a, (hl)
    00000685 3D               [ 4] 1664 	dec	a
    00000686 28 10            [12] 1665 	jr	Z, 00116$
    00000688 F8 04            [12] 1666 	ldhl	sp,	#4
    0000068A 7E               [ 8] 1667 	ld	a, (hl)
    0000068B D6 02            [ 8] 1668 	sub	a, #0x02
    0000068D 28 09            [12] 1669 	jr	Z, 00116$
    0000068F 79               [ 4] 1670 	ld	a, c
    00000690 3D               [ 4] 1671 	dec	a
    00000691 28 05            [12] 1672 	jr	Z, 00116$
    00000693 79               [ 4] 1673 	ld	a, c
    00000694 D6 02            [ 8] 1674 	sub	a, #0x02
    00000696 20 0C            [12] 1675 	jr	NZ, 00117$
    00000698                       1676 00116$:
                                   1677 ;main.c:233: player_x = old_x;
    00000698 F8 00            [12] 1678 	ldhl	sp,	#0
    0000069A 7E               [ 8] 1679 	ld	a, (hl)
    0000069B EAr3Ar07         [16] 1680 	ld	(#_player_x),a
    0000069E F8 01            [12] 1681 	ldhl	sp,	#1
    000006A0 7E               [ 8] 1682 	ld	a, (hl)
    000006A1 EAr3Br07         [16] 1683 	ld	(#_player_x + 1),a
    000006A4                       1684 00117$:
                                   1685 ;main.c:237: if (current_room == room_3 && (((player_x / 8)-1) == 10 && ((player_y / 8)-1) == 6 ) && test_win()) {
    000006A4 21r68r04         [12] 1686 	ld	hl, #_current_room
    000006A7 7E               [ 8] 1687 	ld	a, (hl)
    000006A8 D6r00            [ 8] 1688 	sub	a, #<(_room_3)
    000006AA 20 69            [12] 1689 	jr	NZ, 00126$
    000006AC 23               [ 8] 1690 	inc	hl
    000006AD 7E               [ 8] 1691 	ld	a, (hl)
    000006AE D6s03            [ 8] 1692 	sub	a, #>(_room_3)
    000006B0 20 63            [12] 1693 	jr	NZ, 00126$
    000006B2 21r3Ar07         [12] 1694 	ld	hl, #_player_x
    000006B5 2A               [ 8] 1695 	ld	a, (hl+)
    000006B6 4F               [ 4] 1696 	ld	c, a
    000006B7 46               [ 8] 1697 	ld	b, (hl)
    000006B8 CB 78            [ 8] 1698 	bit	7, b
    000006BA 28 06            [12] 1699 	jr	Z, 00128$
    000006BC 21 07 00         [12] 1700 	ld	hl, #0x0007
    000006BF 09               [ 8] 1701 	add	hl, bc
    000006C0 4D               [ 4] 1702 	ld	c, l
    000006C1 44               [ 4] 1703 	ld	b, h
    000006C2                       1704 00128$:
    000006C2 CB 28            [ 8] 1705 	sra	b
    000006C4 CB 19            [ 8] 1706 	rr	c
    000006C6 CB 28            [ 8] 1707 	sra	b
    000006C8 CB 19            [ 8] 1708 	rr	c
    000006CA CB 28            [ 8] 1709 	sra	b
    000006CC CB 19            [ 8] 1710 	rr	c
    000006CE 0B               [ 8] 1711 	dec	bc
    000006CF 79               [ 4] 1712 	ld	a, c
    000006D0 D6 0A            [ 8] 1713 	sub	a, #0x0a
    000006D2 B0               [ 4] 1714 	or	a, b
    000006D3 20 40            [12] 1715 	jr	NZ, 00126$
    000006D5 21r3Cr07         [12] 1716 	ld	hl, #_player_y
    000006D8 2A               [ 8] 1717 	ld	a, (hl+)
    000006D9 4F               [ 4] 1718 	ld	c, a
    000006DA 46               [ 8] 1719 	ld	b, (hl)
    000006DB CB 78            [ 8] 1720 	bit	7, b
    000006DD 28 06            [12] 1721 	jr	Z, 00129$
    000006DF 21 07 00         [12] 1722 	ld	hl, #0x0007
    000006E2 09               [ 8] 1723 	add	hl, bc
    000006E3 4D               [ 4] 1724 	ld	c, l
    000006E4 44               [ 4] 1725 	ld	b, h
    000006E5                       1726 00129$:
    000006E5 CB 28            [ 8] 1727 	sra	b
    000006E7 CB 19            [ 8] 1728 	rr	c
    000006E9 CB 28            [ 8] 1729 	sra	b
    000006EB CB 19            [ 8] 1730 	rr	c
    000006ED CB 28            [ 8] 1731 	sra	b
    000006EF CB 19            [ 8] 1732 	rr	c
    000006F1 0B               [ 8] 1733 	dec	bc
    000006F2 79               [ 4] 1734 	ld	a, c
    000006F3 D6 06            [ 8] 1735 	sub	a, #0x06
    000006F5 B0               [ 4] 1736 	or	a, b
    000006F6 20 1D            [12] 1737 	jr	NZ, 00126$
    000006F8 CDr29r05         [24] 1738 	call	_test_win
    000006FB 78               [ 4] 1739 	ld	a, b
    000006FC B1               [ 4] 1740 	or	a, c
    000006FD 28 16            [12] 1741 	jr	Z, 00126$
                                   1742 ;main.c:238: set_bkg_data(0, 58, background_tileset);
    000006FF 11r1Dr00         [12] 1743 	ld	de, #_background_tileset
    00000702 D5               [16] 1744 	push	de
    00000703 3E 3A            [ 8] 1745 	ld	a, #0x3a
    00000705 F5               [16] 1746 	push	af
    00000706 33               [ 8] 1747 	inc	sp
    00000707 AF               [ 4] 1748 	xor	a, a
    00000708 F5               [16] 1749 	push	af
    00000709 33               [ 8] 1750 	inc	sp
    0000070A CDr00r00         [24] 1751 	call	_set_bkg_data
    0000070D E8 04            [16] 1752 	add	sp, #4
                                   1753 ;main.c:239: window_win();
    0000070F CDr1Ar04         [24] 1754 	call	_window_win
                                   1755 ;main.c:240: set_end_screen();
    00000712 CDr5Er04         [24] 1756 	call	_set_end_screen
    00000715                       1757 00126$:
                                   1758 ;main.c:242: }
    00000715 E8 06            [16] 1759 	add	sp, #6
    00000717 C9               [16] 1760 	ret
                                   1761 ;main.c:246: void draw_player() {
                                   1762 ;	---------------------------------
                                   1763 ; Function draw_player
                                   1764 ; ---------------------------------
    00000718                       1765 _draw_player::
                                   1766 ;main.c:247: time++;
    00000718 21r70r07         [12] 1767 	ld	hl, #_time
    0000071B 34               [12] 1768 	inc	(hl)
    0000071C 20 02            [12] 1769 	jr	NZ, 00114$
    0000071E 23               [ 8] 1770 	inc	hl
    0000071F 34               [12] 1771 	inc	(hl)
    00000720                       1772 00114$:
                                   1773 ;main.c:248: if (time >= 20) {
    00000720 21r70r07         [12] 1774 	ld	hl, #_time
    00000723 2A               [ 8] 1775 	ld	a, (hl+)
    00000724 D6 14            [ 8] 1776 	sub	a, #0x14
    00000726 7E               [ 8] 1777 	ld	a, (hl)
    00000727 DE 00            [ 8] 1778 	sbc	a, #0x00
    00000729 56               [ 8] 1779 	ld	d, (hl)
    0000072A 3E 00            [ 8] 1780 	ld	a, #0x00
    0000072C CB 7F            [ 8] 1781 	bit	7,a
    0000072E 28 07            [12] 1782 	jr	Z, 00115$
    00000730 CB 7A            [ 8] 1783 	bit	7, d
    00000732 20 08            [12] 1784 	jr	NZ, 00116$
    00000734 BF               [ 4] 1785 	cp	a, a
    00000735 18 05            [12] 1786 	jr	00116$
    00000737                       1787 00115$:
    00000737 CB 7A            [ 8] 1788 	bit	7, d
    00000739 28 01            [12] 1789 	jr	Z, 00116$
    0000073B 37               [ 4] 1790 	scf
    0000073C                       1791 00116$:
    0000073C 38 13            [12] 1792 	jr	C, 00102$
                                   1793 ;main.c:249: time = 0;
    0000073E AF               [ 4] 1794 	xor	a, a
    0000073F 21r70r07         [12] 1795 	ld	hl, #_time
    00000742 22               [ 8] 1796 	ld	(hl+), a
    00000743 77               [ 8] 1797 	ld	(hl), a
                                   1798 ;main.c:250: player_sprite_id = !player_sprite_id;
    00000744 21r73r07         [12] 1799 	ld	hl, #_player_sprite_id + 1
    00000747 3A               [ 8] 1800 	ld	a, (hl-)
    00000748 B6               [ 8] 1801 	or	a, (hl)
    00000749 D6 01            [ 8] 1802 	sub	a, #0x01
    0000074B 3E 00            [ 8] 1803 	ld	a, #0x00
    0000074D 17               [ 4] 1804 	rla
    0000074E 22               [ 8] 1805 	ld	(hl+), a
    0000074F 36 00            [12] 1806 	ld	(hl), #0x00
    00000751                       1807 00102$:
                                   1808 ;main.c:252: set_sprite_tile(0, player_sprite_id);
    00000751 21r72r07         [12] 1809 	ld	hl, #_player_sprite_id
    00000754 4E               [ 8] 1810 	ld	c, (hl)
                                   1811 ;./gbdk/include/gb/gb.h:1875: shadow_OAM[nb].tile=tile;
    00000755 21r02r00         [12] 1812 	ld	hl, #(_shadow_OAM + 2)
    00000758 71               [ 8] 1813 	ld	(hl), c
                                   1814 ;main.c:253: move_sprite(0, player_x, player_y);
    00000759 21r3Cr07         [12] 1815 	ld	hl, #_player_y
    0000075C 46               [ 8] 1816 	ld	b, (hl)
    0000075D 21r3Ar07         [12] 1817 	ld	hl, #_player_x
    00000760 4E               [ 8] 1818 	ld	c, (hl)
                                   1819 ;./gbdk/include/gb/gb.h:1961: OAM_item_t * itm = &shadow_OAM[nb];
    00000761 21r00r00         [12] 1820 	ld	hl, #_shadow_OAM
                                   1821 ;./gbdk/include/gb/gb.h:1962: itm->y=y, itm->x=x;
    00000764 78               [ 4] 1822 	ld	a, b
    00000765 22               [ 8] 1823 	ld	(hl+), a
    00000766 71               [ 8] 1824 	ld	(hl), c
                                   1825 ;main.c:253: move_sprite(0, player_x, player_y);
                                   1826 ;main.c:254: }
    00000767 C9               [16] 1827 	ret
                                   1828 ;main.c:256: void set_mid_room() {
                                   1829 ;	---------------------------------
                                   1830 ; Function set_mid_room
                                   1831 ; ---------------------------------
    00000768                       1832 _set_mid_room::
                                   1833 ;main.c:257: current_room = room_2;
    00000768 01r98r01         [12] 1834 	ld	bc, #_room_2+0
    0000076B 21r68r04         [12] 1835 	ld	hl, #_current_room
    0000076E 79               [ 4] 1836 	ld	a, c
    0000076F 22               [ 8] 1837 	ld	(hl+), a
    00000770 70               [ 8] 1838 	ld	(hl), b
                                   1839 ;main.c:258: set_bkg_tiles(0, 0, 20, 18, room_2);
    00000771 C5               [16] 1840 	push	bc
    00000772 21 14 12         [12] 1841 	ld	hl, #0x1214
    00000775 E5               [16] 1842 	push	hl
    00000776 AF               [ 4] 1843 	xor	a, a
    00000777 0F               [ 4] 1844 	rrca
    00000778 F5               [16] 1845 	push	af
    00000779 CDr00r00         [24] 1846 	call	_set_bkg_tiles
    0000077C E8 06            [16] 1847 	add	sp, #6
                                   1848 ;./gbdk/include/gb/gb.h:1989: shadow_OAM[nb].y = 0;
    0000077E 21r04r00         [12] 1849 	ld	hl, #(_shadow_OAM + 4)
    00000781 36 00            [12] 1850 	ld	(hl), #0x00
                                   1851 ;main.c:259: hide_sprite(1);
                                   1852 ;main.c:260: }
    00000783 C9               [16] 1853 	ret
                                   1854 ;main.c:262: void win_room(char win) {
                                   1855 ;	---------------------------------
                                   1856 ; Function win_room
                                   1857 ; ---------------------------------
    00000784                       1858 _win_room::
    00000784 4F               [ 4] 1859 	ld	c, a
                                   1860 ;main.c:263: current_room = room_3;
    00000785 11r00r03         [12] 1861 	ld	de, #_room_3+0
    00000788 21r68r04         [12] 1862 	ld	hl, #_current_room
    0000078B 7B               [ 4] 1863 	ld	a, e
    0000078C 22               [ 8] 1864 	ld	(hl+), a
    0000078D 72               [ 8] 1865 	ld	(hl), d
                                   1866 ;main.c:264: set_bkg_tiles(0, 0, 20, 18, room_3);
    0000078E D5               [16] 1867 	push	de
    0000078F 21 14 12         [12] 1868 	ld	hl, #0x1214
    00000792 E5               [16] 1869 	push	hl
    00000793 AF               [ 4] 1870 	xor	a, a
    00000794 0F               [ 4] 1871 	rrca
    00000795 F5               [16] 1872 	push	af
    00000796 CDr00r00         [24] 1873 	call	_set_bkg_tiles
    00000799 E8 06            [16] 1874 	add	sp, #6
                                   1875 ;main.c:267: if (win) {
    0000079B 79               [ 4] 1876 	ld	a, c
    0000079C B7               [ 4] 1877 	or	a, a
    0000079D C8               [20] 1878 	ret	Z
                                   1879 ;./gbdk/include/gb/gb.h:1961: OAM_item_t * itm = &shadow_OAM[nb];
    0000079E 21r04r00         [12] 1880 	ld	hl, #(_shadow_OAM + 4)
                                   1881 ;./gbdk/include/gb/gb.h:1962: itm->y=y, itm->x=x;
    000007A1 3E 3C            [ 8] 1882 	ld	a, #0x3c
    000007A3 22               [ 8] 1883 	ld	(hl+), a
    000007A4 36 58            [12] 1884 	ld	(hl), #0x58
                                   1885 ;main.c:268: move_sprite(1, 88, 60);
                                   1886 ;main.c:270: }
    000007A6 C9               [16] 1887 	ret
                                   1888 ;main.c:274: void update_room() {
                                   1889 ;	---------------------------------
                                   1890 ; Function update_room
                                   1891 ; ---------------------------------
    000007A7                       1892 _update_room::
                                   1893 ;main.c:276: if (player_y <= 15 && current_room == room_2) {
    000007A7 21r3Cr07         [12] 1894 	ld	hl, #_player_y
    000007AA 3E 0F            [ 8] 1895 	ld	a, #0x0f
    000007AC 96               [ 8] 1896 	sub	a, (hl)
    000007AD 23               [ 8] 1897 	inc	hl
    000007AE 3E 00            [ 8] 1898 	ld	a, #0x00
    000007B0 9E               [ 8] 1899 	sbc	a, (hl)
    000007B1 3E 00            [ 8] 1900 	ld	a, #0x00
    000007B3 57               [ 4] 1901 	ld	d, a
    000007B4 CB 7E            [12] 1902 	bit	7, (hl)
    000007B6 28 07            [12] 1903 	jr	Z, 00156$
    000007B8 CB 7A            [ 8] 1904 	bit	7, d
    000007BA 20 08            [12] 1905 	jr	NZ, 00157$
    000007BC BF               [ 4] 1906 	cp	a, a
    000007BD 18 05            [12] 1907 	jr	00157$
    000007BF                       1908 00156$:
    000007BF CB 7A            [ 8] 1909 	bit	7, d
    000007C1 28 01            [12] 1910 	jr	Z, 00157$
    000007C3 37               [ 4] 1911 	scf
    000007C4                       1912 00157$:
    000007C4 38 2A            [12] 1913 	jr	C, 00102$
    000007C6 21r68r04         [12] 1914 	ld	hl, #_current_room
    000007C9 7E               [ 8] 1915 	ld	a, (hl)
    000007CA D6r98            [ 8] 1916 	sub	a, #<(_room_2)
    000007CC 20 22            [12] 1917 	jr	NZ, 00102$
    000007CE 23               [ 8] 1918 	inc	hl
    000007CF 7E               [ 8] 1919 	ld	a, (hl)
    000007D0 D6s01            [ 8] 1920 	sub	a, #>(_room_2)
    000007D2 20 1C            [12] 1921 	jr	NZ, 00102$
                                   1922 ;main.c:278: update_path('U');
    000007D4 3E 55            [ 8] 1923 	ld	a, #0x55
    000007D6 CDrFCr04         [24] 1924 	call	_update_path
                                   1925 ;main.c:279: win_room(test_win()); player_x = 88; player_y = 151;
    000007D9 CDr29r05         [24] 1926 	call	_test_win
    000007DC 79               [ 4] 1927 	ld	a, c
    000007DD CDr84r07         [24] 1928 	call	_win_room
    000007E0 21r3Ar07         [12] 1929 	ld	hl, #_player_x
    000007E3 3E 58            [ 8] 1930 	ld	a, #0x58
    000007E5 22               [ 8] 1931 	ld	(hl+), a
    000007E6 AF               [ 4] 1932 	xor	a, a
    000007E7 77               [ 8] 1933 	ld	(hl), a
    000007E8 21r3Cr07         [12] 1934 	ld	hl, #_player_y
    000007EB 3E 97            [ 8] 1935 	ld	a, #0x97
    000007ED 22               [ 8] 1936 	ld	(hl+), a
    000007EE AF               [ 4] 1937 	xor	a, a
    000007EF 77               [ 8] 1938 	ld	(hl), a
    000007F0                       1939 00102$:
                                   1940 ;main.c:281: if (player_y <= 15) {
    000007F0 21r3Cr07         [12] 1941 	ld	hl, #_player_y
    000007F3 3E 0F            [ 8] 1942 	ld	a, #0x0f
    000007F5 96               [ 8] 1943 	sub	a, (hl)
    000007F6 23               [ 8] 1944 	inc	hl
    000007F7 3E 00            [ 8] 1945 	ld	a, #0x00
    000007F9 9E               [ 8] 1946 	sbc	a, (hl)
    000007FA 3E 00            [ 8] 1947 	ld	a, #0x00
    000007FC 57               [ 4] 1948 	ld	d, a
    000007FD CB 7E            [12] 1949 	bit	7, (hl)
    000007FF 28 07            [12] 1950 	jr	Z, 00160$
    00000801 CB 7A            [ 8] 1951 	bit	7, d
    00000803 20 08            [12] 1952 	jr	NZ, 00161$
    00000805 BF               [ 4] 1953 	cp	a, a
    00000806 18 05            [12] 1954 	jr	00161$
    00000808                       1955 00160$:
    00000808 CB 7A            [ 8] 1956 	bit	7, d
    0000080A 28 01            [12] 1957 	jr	Z, 00161$
    0000080C 37               [ 4] 1958 	scf
    0000080D                       1959 00161$:
    0000080D 38 18            [12] 1960 	jr	C, 00105$
                                   1961 ;main.c:283: update_path('U');
    0000080F 3E 55            [ 8] 1962 	ld	a, #0x55
    00000811 CDrFCr04         [24] 1963 	call	_update_path
                                   1964 ;main.c:284: set_mid_room(); player_x = 88; player_y = 151;
    00000814 CDr68r07         [24] 1965 	call	_set_mid_room
    00000817 21r3Ar07         [12] 1966 	ld	hl, #_player_x
    0000081A 3E 58            [ 8] 1967 	ld	a, #0x58
    0000081C 22               [ 8] 1968 	ld	(hl+), a
    0000081D AF               [ 4] 1969 	xor	a, a
    0000081E 77               [ 8] 1970 	ld	(hl), a
    0000081F 21r3Cr07         [12] 1971 	ld	hl, #_player_y
    00000822 3E 97            [ 8] 1972 	ld	a, #0x97
    00000824 22               [ 8] 1973 	ld	(hl+), a
    00000825 AF               [ 4] 1974 	xor	a, a
    00000826 77               [ 8] 1975 	ld	(hl), a
    00000827                       1976 00105$:
                                   1977 ;main.c:286: if (player_y >= 152) {
    00000827 21r3Cr07         [12] 1978 	ld	hl, #_player_y
    0000082A 2A               [ 8] 1979 	ld	a, (hl+)
    0000082B D6 98            [ 8] 1980 	sub	a, #0x98
    0000082D 7E               [ 8] 1981 	ld	a, (hl)
    0000082E DE 00            [ 8] 1982 	sbc	a, #0x00
    00000830 56               [ 8] 1983 	ld	d, (hl)
    00000831 3E 00            [ 8] 1984 	ld	a, #0x00
    00000833 CB 7F            [ 8] 1985 	bit	7,a
    00000835 28 07            [12] 1986 	jr	Z, 00162$
    00000837 CB 7A            [ 8] 1987 	bit	7, d
    00000839 20 08            [12] 1988 	jr	NZ, 00163$
    0000083B BF               [ 4] 1989 	cp	a, a
    0000083C 18 05            [12] 1990 	jr	00163$
    0000083E                       1991 00162$:
    0000083E CB 7A            [ 8] 1992 	bit	7, d
    00000840 28 01            [12] 1993 	jr	Z, 00163$
    00000842 37               [ 4] 1994 	scf
    00000843                       1995 00163$:
    00000843 38 18            [12] 1996 	jr	C, 00107$
                                   1997 ;main.c:288: update_path('D');
    00000845 3E 44            [ 8] 1998 	ld	a, #0x44
    00000847 CDrFCr04         [24] 1999 	call	_update_path
                                   2000 ;main.c:289: set_mid_room(); player_x = 88; player_y = 16;
    0000084A CDr68r07         [24] 2001 	call	_set_mid_room
    0000084D 21r3Ar07         [12] 2002 	ld	hl, #_player_x
    00000850 3E 58            [ 8] 2003 	ld	a, #0x58
    00000852 22               [ 8] 2004 	ld	(hl+), a
    00000853 AF               [ 4] 2005 	xor	a, a
    00000854 77               [ 8] 2006 	ld	(hl), a
    00000855 21r3Cr07         [12] 2007 	ld	hl, #_player_y
    00000858 3E 10            [ 8] 2008 	ld	a, #0x10
    0000085A 22               [ 8] 2009 	ld	(hl+), a
    0000085B AF               [ 4] 2010 	xor	a, a
    0000085C 77               [ 8] 2011 	ld	(hl), a
    0000085D                       2012 00107$:
                                   2013 ;main.c:291: if (player_x >= 160) {
    0000085D 21r3Ar07         [12] 2014 	ld	hl, #_player_x
    00000860 2A               [ 8] 2015 	ld	a, (hl+)
    00000861 D6 A0            [ 8] 2016 	sub	a, #0xa0
    00000863 7E               [ 8] 2017 	ld	a, (hl)
    00000864 DE 00            [ 8] 2018 	sbc	a, #0x00
    00000866 56               [ 8] 2019 	ld	d, (hl)
    00000867 3E 00            [ 8] 2020 	ld	a, #0x00
    00000869 CB 7F            [ 8] 2021 	bit	7,a
    0000086B 28 07            [12] 2022 	jr	Z, 00164$
    0000086D CB 7A            [ 8] 2023 	bit	7, d
    0000086F 20 08            [12] 2024 	jr	NZ, 00165$
    00000871 BF               [ 4] 2025 	cp	a, a
    00000872 18 05            [12] 2026 	jr	00165$
    00000874                       2027 00164$:
    00000874 CB 7A            [ 8] 2028 	bit	7, d
    00000876 28 01            [12] 2029 	jr	Z, 00165$
    00000878 37               [ 4] 2030 	scf
    00000879                       2031 00165$:
    00000879 38 18            [12] 2032 	jr	C, 00109$
                                   2033 ;main.c:293: update_path('R');
    0000087B 3E 52            [ 8] 2034 	ld	a, #0x52
    0000087D CDrFCr04         [24] 2035 	call	_update_path
                                   2036 ;main.c:294: set_mid_room(); player_x = 8; player_y = 88;
    00000880 CDr68r07         [24] 2037 	call	_set_mid_room
    00000883 21r3Ar07         [12] 2038 	ld	hl, #_player_x
    00000886 3E 08            [ 8] 2039 	ld	a, #0x08
    00000888 22               [ 8] 2040 	ld	(hl+), a
    00000889 AF               [ 4] 2041 	xor	a, a
    0000088A 77               [ 8] 2042 	ld	(hl), a
    0000088B 21r3Cr07         [12] 2043 	ld	hl, #_player_y
    0000088E 3E 58            [ 8] 2044 	ld	a, #0x58
    00000890 22               [ 8] 2045 	ld	(hl+), a
    00000891 AF               [ 4] 2046 	xor	a, a
    00000892 77               [ 8] 2047 	ld	(hl), a
    00000893                       2048 00109$:
                                   2049 ;main.c:296: if (player_x <= 7) {
    00000893 21r3Ar07         [12] 2050 	ld	hl, #_player_x
    00000896 3E 07            [ 8] 2051 	ld	a, #0x07
    00000898 96               [ 8] 2052 	sub	a, (hl)
    00000899 23               [ 8] 2053 	inc	hl
    0000089A 3E 00            [ 8] 2054 	ld	a, #0x00
    0000089C 9E               [ 8] 2055 	sbc	a, (hl)
    0000089D 3E 00            [ 8] 2056 	ld	a, #0x00
    0000089F 57               [ 4] 2057 	ld	d, a
    000008A0 CB 7E            [12] 2058 	bit	7, (hl)
    000008A2 28 07            [12] 2059 	jr	Z, 00166$
    000008A4 CB 7A            [ 8] 2060 	bit	7, d
    000008A6 20 08            [12] 2061 	jr	NZ, 00167$
    000008A8 BF               [ 4] 2062 	cp	a, a
    000008A9 18 05            [12] 2063 	jr	00167$
    000008AB                       2064 00166$:
    000008AB CB 7A            [ 8] 2065 	bit	7, d
    000008AD 28 01            [12] 2066 	jr	Z, 00167$
    000008AF 37               [ 4] 2067 	scf
    000008B0                       2068 00167$:
    000008B0 D8               [20] 2069 	ret	C
                                   2070 ;main.c:298: update_path('L');
    000008B1 3E 4C            [ 8] 2071 	ld	a, #0x4c
    000008B3 CDrFCr04         [24] 2072 	call	_update_path
                                   2073 ;main.c:299: set_mid_room(); player_x = 159; player_y = 88;
    000008B6 CDr68r07         [24] 2074 	call	_set_mid_room
    000008B9 21r3Ar07         [12] 2075 	ld	hl, #_player_x
    000008BC 3E 9F            [ 8] 2076 	ld	a, #0x9f
    000008BE 22               [ 8] 2077 	ld	(hl+), a
    000008BF AF               [ 4] 2078 	xor	a, a
    000008C0 77               [ 8] 2079 	ld	(hl), a
    000008C1 21r3Cr07         [12] 2080 	ld	hl, #_player_y
    000008C4 3E 58            [ 8] 2081 	ld	a, #0x58
    000008C6 22               [ 8] 2082 	ld	(hl+), a
    000008C7 AF               [ 4] 2083 	xor	a, a
    000008C8 77               [ 8] 2084 	ld	(hl), a
                                   2085 ;main.c:301: }
    000008C9 C9               [16] 2086 	ret
                                   2087 ;main.c:303: void main(void)
                                   2088 ;	---------------------------------
                                   2089 ; Function main
                                   2090 ; ---------------------------------
    000008CA                       2091 _main::
    000008CA 3B               [ 8] 2092 	dec	sp
                                   2093 ;main.c:305: DISPLAY_ON;
    000008CB F0r00            [12] 2094 	ldh	a, (_LCDC_REG + 0)
    000008CD F6 80            [ 8] 2095 	or	a, #0x80
    000008CF E0r00            [12] 2096 	ldh	(_LCDC_REG + 0), a
                                   2097 ;main.c:306: SHOW_BKG;
    000008D1 F0r00            [12] 2098 	ldh	a, (_LCDC_REG + 0)
    000008D3 F6 01            [ 8] 2099 	or	a, #0x01
    000008D5 E0r00            [12] 2100 	ldh	(_LCDC_REG + 0), a
                                   2101 ;main.c:308: set_bkg_data(0, 58, background_tileset);
    000008D7 11r1Dr00         [12] 2102 	ld	de, #_background_tileset
    000008DA D5               [16] 2103 	push	de
    000008DB 21 00 3A         [12] 2104 	ld	hl, #0x3a00
    000008DE E5               [16] 2105 	push	hl
    000008DF CDr00r00         [24] 2106 	call	_set_bkg_data
    000008E2 E8 04            [16] 2107 	add	sp, #4
                                   2108 ;main.c:312: set_start_screen();
    000008E4 CDr00r04         [24] 2109 	call	_set_start_screen
                                   2110 ;main.c:315: SHOW_WIN;
    000008E7 F0r00            [12] 2111 	ldh	a, (_LCDC_REG + 0)
    000008E9 F6 20            [ 8] 2112 	or	a, #0x20
    000008EB E0r00            [12] 2113 	ldh	(_LCDC_REG + 0), a
                                   2114 ;main.c:316: set_win_tiles(0, 1, 19, 1, window_map);
    000008ED 11rC7r03         [12] 2115 	ld	de, #_window_map
    000008F0 D5               [16] 2116 	push	de
    000008F1 21 13 01         [12] 2117 	ld	hl, #0x113
    000008F4 E5               [16] 2118 	push	hl
    000008F5 AF               [ 4] 2119 	xor	a, a
    000008F6 3C               [ 4] 2120 	inc	a
    000008F7 F5               [16] 2121 	push	af
    000008F8 CDr00r00         [24] 2122 	call	_set_win_tiles
    000008FB E8 06            [16] 2123 	add	sp, #6
                                   2124 ;./gbdk/include/gb/gb.h:1727: WX_REG=x, WY_REG=y;
    000008FD 3E 07            [ 8] 2125 	ld	a, #0x07
    000008FF E0r00            [12] 2126 	ldh	(_WX_REG + 0), a
    00000901 3E 78            [ 8] 2127 	ld	a, #0x78
    00000903 E0r00            [12] 2128 	ldh	(_WY_REG + 0), a
                                   2129 ;main.c:320: char game_started = 0;
    00000905 0E 00            [ 8] 2130 	ld	c, #0x00
                                   2131 ;main.c:323: while(game_started == 0) {
    00000907                       2132 00103$:
    00000907 79               [ 4] 2133 	ld	a, c
    00000908 B7               [ 4] 2134 	or	a, a
    00000909 20 12            [12] 2135 	jr	NZ, 00105$
                                   2136 ;main.c:324: if(joypad())
    0000090B CDr00r00         [24] 2137 	call	_joypad
    0000090E B7               [ 4] 2138 	or	a, a
    0000090F 28 02            [12] 2139 	jr	Z, 00102$
                                   2140 ;main.c:325: game_started = 1;
    00000911 0E 01            [ 8] 2141 	ld	c, #0x01
    00000913                       2142 00102$:
                                   2143 ;./gbdk/include/gb/gb.h:1463: SCX_REG+=x, SCY_REG+=y;
    00000913 F0r00            [12] 2144 	ldh	a, (_SCY_REG + 0)
    00000915 3C               [ 4] 2145 	inc	a
    00000916 E0r00            [12] 2146 	ldh	(_SCY_REG + 0), a
                                   2147 ;main.c:327: vsync();
    00000918 CDr00r00         [24] 2148 	call	_vsync
    0000091B 18 EA            [12] 2149 	jr	00103$
    0000091D                       2150 00105$:
                                   2151 ;main.c:329: HIDE_WIN;
    0000091D F0r00            [12] 2152 	ldh	a, (_LCDC_REG + 0)
    0000091F E6 DF            [ 8] 2153 	and	a, #0xdf
    00000921 E0r00            [12] 2154 	ldh	(_LCDC_REG + 0), a
                                   2155 ;main.c:331: set_start_room();
    00000923 CDrB0r03         [24] 2156 	call	_set_start_room
                                   2157 ;./gbdk/include/gb/gb.h:1449: SCX_REG=x, SCY_REG=y;
    00000926 AF               [ 4] 2158 	xor	a, a
    00000927 E0r00            [12] 2159 	ldh	(_SCX_REG + 0), a
    00000929 AF               [ 4] 2160 	xor	a, a
    0000092A E0r00            [12] 2161 	ldh	(_SCY_REG + 0), a
                                   2162 ;main.c:334: SHOW_SPRITES;
    0000092C F0r00            [12] 2163 	ldh	a, (_LCDC_REG + 0)
    0000092E F6 02            [ 8] 2164 	or	a, #0x02
    00000930 E0r00            [12] 2165 	ldh	(_LCDC_REG + 0), a
                                   2166 ;main.c:335: set_sprite_data(0, 3, sprite_tiles);
    00000932 11r00r00         [12] 2167 	ld	de, #_sprite_tiles
    00000935 D5               [16] 2168 	push	de
    00000936 3E 03            [ 8] 2169 	ld	a, #0x03
    00000938 F5               [16] 2170 	push	af
    00000939 33               [ 8] 2171 	inc	sp
    0000093A AF               [ 4] 2172 	xor	a, a
    0000093B F5               [16] 2173 	push	af
    0000093C 33               [ 8] 2174 	inc	sp
    0000093D CDr00r00         [24] 2175 	call	_set_sprite_data
    00000940 E8 04            [16] 2176 	add	sp, #4
                                   2177 ;main.c:336: set_sprite_tile(0, player_sprite_id); // Start with the first sprite tile
    00000942 21r72r07         [12] 2178 	ld	hl, #_player_sprite_id
    00000945 4E               [ 8] 2179 	ld	c, (hl)
                                   2180 ;./gbdk/include/gb/gb.h:1875: shadow_OAM[nb].tile=tile;
    00000946 21r02r00         [12] 2181 	ld	hl, #(_shadow_OAM + 2)
    00000949 71               [ 8] 2182 	ld	(hl), c
                                   2183 ;main.c:337: move_sprite(0, player_x, player_y);
    0000094A 21r3Cr07         [12] 2184 	ld	hl, #_player_y
    0000094D 4E               [ 8] 2185 	ld	c, (hl)
    0000094E 21r3Ar07         [12] 2186 	ld	hl, #_player_x
    00000951 46               [ 8] 2187 	ld	b, (hl)
                                   2188 ;./gbdk/include/gb/gb.h:1961: OAM_item_t * itm = &shadow_OAM[nb];
    00000952 21r00r00         [12] 2189 	ld	hl, #_shadow_OAM
                                   2190 ;./gbdk/include/gb/gb.h:1962: itm->y=y, itm->x=x;
    00000955 71               [ 8] 2191 	ld	(hl), c
    00000956 23               [ 8] 2192 	inc	hl
    00000957 70               [ 8] 2193 	ld	(hl), b
                                   2194 ;./gbdk/include/gb/gb.h:1875: shadow_OAM[nb].tile=tile;
    00000958 21r06r00         [12] 2195 	ld	hl, #(_shadow_OAM + 6)
    0000095B 36 02            [12] 2196 	ld	(hl), #0x02
                                   2197 ;./gbdk/include/gb/gb.h:1989: shadow_OAM[nb].y = 0;
    0000095D 21r04r00         [12] 2198 	ld	hl, #(_shadow_OAM + 4)
    00000960 36 00            [12] 2199 	ld	(hl), #0x00
                                   2200 ;main.c:344: while(1) {
    00000962                       2201 00107$:
                                   2202 ;main.c:345: i = joypad();
    00000962 CDr00r00         [24] 2203 	call	_joypad
                                   2204 ;main.c:346: update_player(i);
    00000965 F8 00            [12] 2205 	ldhl	sp,#0
    00000967 77               [ 8] 2206 	ld	(hl), a
    00000968 7E               [ 8] 2207 	ld	a, (hl)
    00000969 CDr89r05         [24] 2208 	call	_update_player
                                   2209 ;main.c:347: update_room();
    0000096C CDrA7r07         [24] 2210 	call	_update_room
                                   2211 ;main.c:348: draw_player();
    0000096F CDr18r07         [24] 2212 	call	_draw_player
                                   2213 ;main.c:350: vsync();
    00000972 CDr00r00         [24] 2214 	call	_vsync
    00000975 18 EB            [12] 2215 	jr	00107$
                                   2216 ;main.c:354: }
    00000977 33               [ 8] 2217 	inc	sp
    00000978 C9               [16] 2218 	ret
                                   2219 	.area _CODE
                                   2220 	.area _INITIALIZER
    00000000                       2221 __xinit__sprite_tiles:
    00000000 00                    2222 	.db #0x00	; 0
    00000001 00                    2223 	.db #0x00	; 0
    00000002 00                    2224 	.db #0x00	; 0
    00000003 00                    2225 	.db #0x00	; 0
    00000004 24                    2226 	.db #0x24	; 36
    00000005 42                    2227 	.db #0x42	; 66	'B'
    00000006 66                    2228 	.db #0x66	; 102	'f'
    00000007 3C                    2229 	.db #0x3c	; 60
    00000008 18                    2230 	.db #0x18	; 24
    00000009 24                    2231 	.db #0x24	; 36
    0000000A 00                    2232 	.db #0x00	; 0
    0000000B 3C                    2233 	.db #0x3c	; 60
    0000000C 24                    2234 	.db #0x24	; 36
    0000000D 24                    2235 	.db #0x24	; 36
    0000000E 66                    2236 	.db #0x66	; 102	'f'
    0000000F 66                    2237 	.db #0x66	; 102	'f'
    00000010 00                    2238 	.db #0x00	; 0
    00000011 00                    2239 	.db #0x00	; 0
    00000012 00                    2240 	.db #0x00	; 0
    00000013 00                    2241 	.db #0x00	; 0
    00000014 24                    2242 	.db #0x24	; 36
    00000015 42                    2243 	.db #0x42	; 66	'B'
    00000016 66                    2244 	.db #0x66	; 102	'f'
    00000017 00                    2245 	.db #0x00	; 0
    00000018 7E                    2246 	.db #0x7e	; 126
    00000019 24                    2247 	.db #0x24	; 36
    0000001A 00                    2248 	.db #0x00	; 0
    0000001B 3C                    2249 	.db #0x3c	; 60
    0000001C 24                    2250 	.db #0x24	; 36
    0000001D 24                    2251 	.db #0x24	; 36
    0000001E 66                    2252 	.db #0x66	; 102	'f'
    0000001F 66                    2253 	.db #0x66	; 102	'f'
    00000020 00                    2254 	.db #0x00	; 0
    00000021 00                    2255 	.db #0x00	; 0
    00000022 3C                    2256 	.db #0x3c	; 60
    00000023 3C                    2257 	.db #0x3c	; 60
    00000024 66                    2258 	.db #0x66	; 102	'f'
    00000025 5A                    2259 	.db #0x5a	; 90	'Z'
    00000026 DB                    2260 	.db #0xdb	; 219
    00000027 A5                    2261 	.db #0xa5	; 165
    00000028 FF                    2262 	.db #0xff	; 255
    00000029 FF                    2263 	.db #0xff	; 255
    0000002A AB                    2264 	.db #0xab	; 171
    0000002B D5                    2265 	.db #0xd5	; 213
    0000002C D5                    2266 	.db #0xd5	; 213
    0000002D AB                    2267 	.db #0xab	; 171
    0000002E FF                    2268 	.db #0xff	; 255
    0000002F FF                    2269 	.db #0xff	; 255
    00000030                       2270 __xinit__room_1:
    00000030 02                    2271 	.db #0x02	; 2
    00000031 02                    2272 	.db #0x02	; 2
    00000032 02                    2273 	.db #0x02	; 2
    00000033 02                    2274 	.db #0x02	; 2
    00000034 01                    2275 	.db #0x01	; 1
    00000035 07                    2276 	.db #0x07	; 7
    00000036 07                    2277 	.db #0x07	; 7
    00000037 07                    2278 	.db #0x07	; 7
    00000038 07                    2279 	.db #0x07	; 7
    00000039 07                    2280 	.db #0x07	; 7
    0000003A 07                    2281 	.db #0x07	; 7
    0000003B 07                    2282 	.db #0x07	; 7
    0000003C 07                    2283 	.db #0x07	; 7
    0000003D 07                    2284 	.db #0x07	; 7
    0000003E 07                    2285 	.db #0x07	; 7
    0000003F 01                    2286 	.db #0x01	; 1
    00000040 02                    2287 	.db #0x02	; 2
    00000041 02                    2288 	.db #0x02	; 2
    00000042 02                    2289 	.db #0x02	; 2
    00000043 02                    2290 	.db #0x02	; 2
    00000044 02                    2291 	.db #0x02	; 2
    00000045 02                    2292 	.db #0x02	; 2
    00000046 01                    2293 	.db #0x01	; 1
    00000047 01                    2294 	.db #0x01	; 1
    00000048 01                    2295 	.db #0x01	; 1
    00000049 07                    2296 	.db #0x07	; 7
    0000004A 07                    2297 	.db #0x07	; 7
    0000004B 07                    2298 	.db #0x07	; 7
    0000004C 07                    2299 	.db #0x07	; 7
    0000004D 07                    2300 	.db #0x07	; 7
    0000004E 07                    2301 	.db #0x07	; 7
    0000004F 07                    2302 	.db #0x07	; 7
    00000050 07                    2303 	.db #0x07	; 7
    00000051 07                    2304 	.db #0x07	; 7
    00000052 07                    2305 	.db #0x07	; 7
    00000053 01                    2306 	.db #0x01	; 1
    00000054 01                    2307 	.db #0x01	; 1
    00000055 01                    2308 	.db #0x01	; 1
    00000056 02                    2309 	.db #0x02	; 2
    00000057 02                    2310 	.db #0x02	; 2
    00000058 02                    2311 	.db #0x02	; 2
    00000059 02                    2312 	.db #0x02	; 2
    0000005A 01                    2313 	.db #0x01	; 1
    0000005B 01                    2314 	.db #0x01	; 1
    0000005C 07                    2315 	.db #0x07	; 7
    0000005D 07                    2316 	.db #0x07	; 7
    0000005E 07                    2317 	.db #0x07	; 7
    0000005F 07                    2318 	.db #0x07	; 7
    00000060 07                    2319 	.db #0x07	; 7
    00000061 07                    2320 	.db #0x07	; 7
    00000062 07                    2321 	.db #0x07	; 7
    00000063 07                    2322 	.db #0x07	; 7
    00000064 07                    2323 	.db #0x07	; 7
    00000065 07                    2324 	.db #0x07	; 7
    00000066 07                    2325 	.db #0x07	; 7
    00000067 07                    2326 	.db #0x07	; 7
    00000068 01                    2327 	.db #0x01	; 1
    00000069 01                    2328 	.db #0x01	; 1
    0000006A 01                    2329 	.db #0x01	; 1
    0000006B 02                    2330 	.db #0x02	; 2
    0000006C 02                    2331 	.db #0x02	; 2
    0000006D 01                    2332 	.db #0x01	; 1
    0000006E 01                    2333 	.db #0x01	; 1
    0000006F 07                    2334 	.db #0x07	; 7
    00000070 07                    2335 	.db #0x07	; 7
    00000071 07                    2336 	.db #0x07	; 7
    00000072 07                    2337 	.db #0x07	; 7
    00000073 07                    2338 	.db #0x07	; 7
    00000074 07                    2339 	.db #0x07	; 7
    00000075 07                    2340 	.db #0x07	; 7
    00000076 07                    2341 	.db #0x07	; 7
    00000077 07                    2342 	.db #0x07	; 7
    00000078 07                    2343 	.db #0x07	; 7
    00000079 07                    2344 	.db #0x07	; 7
    0000007A 07                    2345 	.db #0x07	; 7
    0000007B 07                    2346 	.db #0x07	; 7
    0000007C 07                    2347 	.db #0x07	; 7
    0000007D 01                    2348 	.db #0x01	; 1
    0000007E 01                    2349 	.db #0x01	; 1
    0000007F 02                    2350 	.db #0x02	; 2
    00000080 02                    2351 	.db #0x02	; 2
    00000081 01                    2352 	.db #0x01	; 1
    00000082 01                    2353 	.db #0x01	; 1
    00000083 07                    2354 	.db #0x07	; 7
    00000084 07                    2355 	.db #0x07	; 7
    00000085 03                    2356 	.db #0x03	; 3
    00000086 07                    2357 	.db #0x07	; 7
    00000087 07                    2358 	.db #0x07	; 7
    00000088 07                    2359 	.db #0x07	; 7
    00000089 07                    2360 	.db #0x07	; 7
    0000008A 03                    2361 	.db #0x03	; 3
    0000008B 07                    2362 	.db #0x07	; 7
    0000008C 07                    2363 	.db #0x07	; 7
    0000008D 07                    2364 	.db #0x07	; 7
    0000008E 03                    2365 	.db #0x03	; 3
    0000008F 07                    2366 	.db #0x07	; 7
    00000090 07                    2367 	.db #0x07	; 7
    00000091 07                    2368 	.db #0x07	; 7
    00000092 01                    2369 	.db #0x01	; 1
    00000093 02                    2370 	.db #0x02	; 2
    00000094 02                    2371 	.db #0x02	; 2
    00000095 01                    2372 	.db #0x01	; 1
    00000096 07                    2373 	.db #0x07	; 7
    00000097 07                    2374 	.db #0x07	; 7
    00000098 07                    2375 	.db #0x07	; 7
    00000099 07                    2376 	.db #0x07	; 7
    0000009A 07                    2377 	.db #0x07	; 7
    0000009B 07                    2378 	.db #0x07	; 7
    0000009C 07                    2379 	.db #0x07	; 7
    0000009D 07                    2380 	.db #0x07	; 7
    0000009E 07                    2381 	.db #0x07	; 7
    0000009F 07                    2382 	.db #0x07	; 7
    000000A0 07                    2383 	.db #0x07	; 7
    000000A1 07                    2384 	.db #0x07	; 7
    000000A2 07                    2385 	.db #0x07	; 7
    000000A3 07                    2386 	.db #0x07	; 7
    000000A4 07                    2387 	.db #0x07	; 7
    000000A5 07                    2388 	.db #0x07	; 7
    000000A6 01                    2389 	.db #0x01	; 1
    000000A7 02                    2390 	.db #0x02	; 2
    000000A8 02                    2391 	.db #0x02	; 2
    000000A9 01                    2392 	.db #0x01	; 1
    000000AA 07                    2393 	.db #0x07	; 7
    000000AB 07                    2394 	.db #0x07	; 7
    000000AC 07                    2395 	.db #0x07	; 7
    000000AD 03                    2396 	.db #0x03	; 3
    000000AE 07                    2397 	.db #0x07	; 7
    000000AF 07                    2398 	.db #0x07	; 7
    000000B0 07                    2399 	.db #0x07	; 7
    000000B1 07                    2400 	.db #0x07	; 7
    000000B2 04                    2401 	.db #0x04	; 4
    000000B3 07                    2402 	.db #0x07	; 7
    000000B4 04                    2403 	.db #0x04	; 4
    000000B5 07                    2404 	.db #0x07	; 7
    000000B6 07                    2405 	.db #0x07	; 7
    000000B7 07                    2406 	.db #0x07	; 7
    000000B8 07                    2407 	.db #0x07	; 7
    000000B9 07                    2408 	.db #0x07	; 7
    000000BA 01                    2409 	.db #0x01	; 1
    000000BB 02                    2410 	.db #0x02	; 2
    000000BC 01                    2411 	.db #0x01	; 1
    000000BD 01                    2412 	.db #0x01	; 1
    000000BE 07                    2413 	.db #0x07	; 7
    000000BF 07                    2414 	.db #0x07	; 7
    000000C0 07                    2415 	.db #0x07	; 7
    000000C1 07                    2416 	.db #0x07	; 7
    000000C2 07                    2417 	.db #0x07	; 7
    000000C3 07                    2418 	.db #0x07	; 7
    000000C4 03                    2419 	.db #0x03	; 3
    000000C5 07                    2420 	.db #0x07	; 7
    000000C6 07                    2421 	.db #0x07	; 7
    000000C7 07                    2422 	.db #0x07	; 7
    000000C8 07                    2423 	.db #0x07	; 7
    000000C9 07                    2424 	.db #0x07	; 7
    000000CA 07                    2425 	.db #0x07	; 7
    000000CB 04                    2426 	.db #0x04	; 4
    000000CC 03                    2427 	.db #0x03	; 3
    000000CD 07                    2428 	.db #0x07	; 7
    000000CE 01                    2429 	.db #0x01	; 1
    000000CF 01                    2430 	.db #0x01	; 1
    000000D0 02                    2431 	.db #0x02	; 2
    000000D1 01                    2432 	.db #0x01	; 1
    000000D2 07                    2433 	.db #0x07	; 7
    000000D3 07                    2434 	.db #0x07	; 7
    000000D4 07                    2435 	.db #0x07	; 7
    000000D5 07                    2436 	.db #0x07	; 7
    000000D6 07                    2437 	.db #0x07	; 7
    000000D7 07                    2438 	.db #0x07	; 7
    000000D8 07                    2439 	.db #0x07	; 7
    000000D9 07                    2440 	.db #0x07	; 7
    000000DA 07                    2441 	.db #0x07	; 7
    000000DB 07                    2442 	.db #0x07	; 7
    000000DC 07                    2443 	.db #0x07	; 7
    000000DD 04                    2444 	.db #0x04	; 4
    000000DE 07                    2445 	.db #0x07	; 7
    000000DF 07                    2446 	.db #0x07	; 7
    000000E0 07                    2447 	.db #0x07	; 7
    000000E1 07                    2448 	.db #0x07	; 7
    000000E2 01                    2449 	.db #0x01	; 1
    000000E3 02                    2450 	.db #0x02	; 2
    000000E4 01                    2451 	.db #0x01	; 1
    000000E5 01                    2452 	.db #0x01	; 1
    000000E6 07                    2453 	.db #0x07	; 7
    000000E7 07                    2454 	.db #0x07	; 7
    000000E8 07                    2455 	.db #0x07	; 7
    000000E9 04                    2456 	.db #0x04	; 4
    000000EA 07                    2457 	.db #0x07	; 7
    000000EB 07                    2458 	.db #0x07	; 7
    000000EC 04                    2459 	.db #0x04	; 4
    000000ED 07                    2460 	.db #0x07	; 7
    000000EE 07                    2461 	.db #0x07	; 7
    000000EF 07                    2462 	.db #0x07	; 7
    000000F0 07                    2463 	.db #0x07	; 7
    000000F1 03                    2464 	.db #0x03	; 3
    000000F2 07                    2465 	.db #0x07	; 7
    000000F3 07                    2466 	.db #0x07	; 7
    000000F4 07                    2467 	.db #0x07	; 7
    000000F5 07                    2468 	.db #0x07	; 7
    000000F6 01                    2469 	.db #0x01	; 1
    000000F7 01                    2470 	.db #0x01	; 1
    000000F8 02                    2471 	.db #0x02	; 2
    000000F9 01                    2472 	.db #0x01	; 1
    000000FA 07                    2473 	.db #0x07	; 7
    000000FB 07                    2474 	.db #0x07	; 7
    000000FC 07                    2475 	.db #0x07	; 7
    000000FD 03                    2476 	.db #0x03	; 3
    000000FE 07                    2477 	.db #0x07	; 7
    000000FF 07                    2478 	.db #0x07	; 7
    00000100 07                    2479 	.db #0x07	; 7
    00000101 04                    2480 	.db #0x04	; 4
    00000102 07                    2481 	.db #0x07	; 7
    00000103 07                    2482 	.db #0x07	; 7
    00000104 07                    2483 	.db #0x07	; 7
    00000105 07                    2484 	.db #0x07	; 7
    00000106 07                    2485 	.db #0x07	; 7
    00000107 07                    2486 	.db #0x07	; 7
    00000108 07                    2487 	.db #0x07	; 7
    00000109 07                    2488 	.db #0x07	; 7
    0000010A 01                    2489 	.db #0x01	; 1
    0000010B 02                    2490 	.db #0x02	; 2
    0000010C 01                    2491 	.db #0x01	; 1
    0000010D 01                    2492 	.db #0x01	; 1
    0000010E 07                    2493 	.db #0x07	; 7
    0000010F 07                    2494 	.db #0x07	; 7
    00000110 07                    2495 	.db #0x07	; 7
    00000111 07                    2496 	.db #0x07	; 7
    00000112 07                    2497 	.db #0x07	; 7
    00000113 03                    2498 	.db #0x03	; 3
    00000114 07                    2499 	.db #0x07	; 7
    00000115 07                    2500 	.db #0x07	; 7
    00000116 07                    2501 	.db #0x07	; 7
    00000117 03                    2502 	.db #0x03	; 3
    00000118 07                    2503 	.db #0x07	; 7
    00000119 07                    2504 	.db #0x07	; 7
    0000011A 07                    2505 	.db #0x07	; 7
    0000011B 07                    2506 	.db #0x07	; 7
    0000011C 07                    2507 	.db #0x07	; 7
    0000011D 07                    2508 	.db #0x07	; 7
    0000011E 01                    2509 	.db #0x01	; 1
    0000011F 02                    2510 	.db #0x02	; 2
    00000120 02                    2511 	.db #0x02	; 2
    00000121 01                    2512 	.db #0x01	; 1
    00000122 07                    2513 	.db #0x07	; 7
    00000123 07                    2514 	.db #0x07	; 7
    00000124 07                    2515 	.db #0x07	; 7
    00000125 03                    2516 	.db #0x03	; 3
    00000126 07                    2517 	.db #0x07	; 7
    00000127 04                    2518 	.db #0x04	; 4
    00000128 07                    2519 	.db #0x07	; 7
    00000129 07                    2520 	.db #0x07	; 7
    0000012A 07                    2521 	.db #0x07	; 7
    0000012B 07                    2522 	.db #0x07	; 7
    0000012C 07                    2523 	.db #0x07	; 7
    0000012D 07                    2524 	.db #0x07	; 7
    0000012E 04                    2525 	.db #0x04	; 4
    0000012F 07                    2526 	.db #0x07	; 7
    00000130 07                    2527 	.db #0x07	; 7
    00000131 07                    2528 	.db #0x07	; 7
    00000132 01                    2529 	.db #0x01	; 1
    00000133 02                    2530 	.db #0x02	; 2
    00000134 02                    2531 	.db #0x02	; 2
    00000135 01                    2532 	.db #0x01	; 1
    00000136 03                    2533 	.db #0x03	; 3
    00000137 07                    2534 	.db #0x07	; 7
    00000138 07                    2535 	.db #0x07	; 7
    00000139 07                    2536 	.db #0x07	; 7
    0000013A 07                    2537 	.db #0x07	; 7
    0000013B 03                    2538 	.db #0x03	; 3
    0000013C 07                    2539 	.db #0x07	; 7
    0000013D 07                    2540 	.db #0x07	; 7
    0000013E 07                    2541 	.db #0x07	; 7
    0000013F 07                    2542 	.db #0x07	; 7
    00000140 07                    2543 	.db #0x07	; 7
    00000141 03                    2544 	.db #0x03	; 3
    00000142 07                    2545 	.db #0x07	; 7
    00000143 07                    2546 	.db #0x07	; 7
    00000144 07                    2547 	.db #0x07	; 7
    00000145 04                    2548 	.db #0x04	; 4
    00000146 01                    2549 	.db #0x01	; 1
    00000147 02                    2550 	.db #0x02	; 2
    00000148 02                    2551 	.db #0x02	; 2
    00000149 01                    2552 	.db #0x01	; 1
    0000014A 01                    2553 	.db #0x01	; 1
    0000014B 07                    2554 	.db #0x07	; 7
    0000014C 07                    2555 	.db #0x07	; 7
    0000014D 07                    2556 	.db #0x07	; 7
    0000014E 07                    2557 	.db #0x07	; 7
    0000014F 07                    2558 	.db #0x07	; 7
    00000150 07                    2559 	.db #0x07	; 7
    00000151 07                    2560 	.db #0x07	; 7
    00000152 04                    2561 	.db #0x04	; 4
    00000153 07                    2562 	.db #0x07	; 7
    00000154 07                    2563 	.db #0x07	; 7
    00000155 07                    2564 	.db #0x07	; 7
    00000156 07                    2565 	.db #0x07	; 7
    00000157 07                    2566 	.db #0x07	; 7
    00000158 07                    2567 	.db #0x07	; 7
    00000159 01                    2568 	.db #0x01	; 1
    0000015A 01                    2569 	.db #0x01	; 1
    0000015B 02                    2570 	.db #0x02	; 2
    0000015C 02                    2571 	.db #0x02	; 2
    0000015D 01                    2572 	.db #0x01	; 1
    0000015E 01                    2573 	.db #0x01	; 1
    0000015F 01                    2574 	.db #0x01	; 1
    00000160 01                    2575 	.db #0x01	; 1
    00000161 04                    2576 	.db #0x04	; 4
    00000162 07                    2577 	.db #0x07	; 7
    00000163 04                    2578 	.db #0x04	; 4
    00000164 07                    2579 	.db #0x07	; 7
    00000165 04                    2580 	.db #0x04	; 4
    00000166 07                    2581 	.db #0x07	; 7
    00000167 07                    2582 	.db #0x07	; 7
    00000168 07                    2583 	.db #0x07	; 7
    00000169 04                    2584 	.db #0x04	; 4
    0000016A 07                    2585 	.db #0x07	; 7
    0000016B 01                    2586 	.db #0x01	; 1
    0000016C 01                    2587 	.db #0x01	; 1
    0000016D 01                    2588 	.db #0x01	; 1
    0000016E 02                    2589 	.db #0x02	; 2
    0000016F 02                    2590 	.db #0x02	; 2
    00000170 02                    2591 	.db #0x02	; 2
    00000171 02                    2592 	.db #0x02	; 2
    00000172 01                    2593 	.db #0x01	; 1
    00000173 01                    2594 	.db #0x01	; 1
    00000174 01                    2595 	.db #0x01	; 1
    00000175 01                    2596 	.db #0x01	; 1
    00000176 01                    2597 	.db #0x01	; 1
    00000177 01                    2598 	.db #0x01	; 1
    00000178 01                    2599 	.db #0x01	; 1
    00000179 01                    2600 	.db #0x01	; 1
    0000017A 01                    2601 	.db #0x01	; 1
    0000017B 01                    2602 	.db #0x01	; 1
    0000017C 01                    2603 	.db #0x01	; 1
    0000017D 01                    2604 	.db #0x01	; 1
    0000017E 01                    2605 	.db #0x01	; 1
    0000017F 01                    2606 	.db #0x01	; 1
    00000180 01                    2607 	.db #0x01	; 1
    00000181 02                    2608 	.db #0x02	; 2
    00000182 02                    2609 	.db #0x02	; 2
    00000183 02                    2610 	.db #0x02	; 2
    00000184 02                    2611 	.db #0x02	; 2
    00000185 02                    2612 	.db #0x02	; 2
    00000186 02                    2613 	.db #0x02	; 2
    00000187 02                    2614 	.db #0x02	; 2
    00000188 02                    2615 	.db #0x02	; 2
    00000189 02                    2616 	.db #0x02	; 2
    0000018A 01                    2617 	.db #0x01	; 1
    0000018B 02                    2618 	.db #0x02	; 2
    0000018C 02                    2619 	.db #0x02	; 2
    0000018D 02                    2620 	.db #0x02	; 2
    0000018E 01                    2621 	.db #0x01	; 1
    0000018F 02                    2622 	.db #0x02	; 2
    00000190 01                    2623 	.db #0x01	; 1
    00000191 02                    2624 	.db #0x02	; 2
    00000192 02                    2625 	.db #0x02	; 2
    00000193 02                    2626 	.db #0x02	; 2
    00000194 02                    2627 	.db #0x02	; 2
    00000195 02                    2628 	.db #0x02	; 2
    00000196 02                    2629 	.db #0x02	; 2
    00000197 02                    2630 	.db #0x02	; 2
    00000198                       2631 __xinit__room_2:
    00000198 02                    2632 	.db #0x02	; 2
    00000199 02                    2633 	.db #0x02	; 2
    0000019A 02                    2634 	.db #0x02	; 2
    0000019B 02                    2635 	.db #0x02	; 2
    0000019C 02                    2636 	.db #0x02	; 2
    0000019D 02                    2637 	.db #0x02	; 2
    0000019E 02                    2638 	.db #0x02	; 2
    0000019F 02                    2639 	.db #0x02	; 2
    000001A0 02                    2640 	.db #0x02	; 2
    000001A1 07                    2641 	.db #0x07	; 7
    000001A2 07                    2642 	.db #0x07	; 7
    000001A3 07                    2643 	.db #0x07	; 7
    000001A4 02                    2644 	.db #0x02	; 2
    000001A5 02                    2645 	.db #0x02	; 2
    000001A6 02                    2646 	.db #0x02	; 2
    000001A7 02                    2647 	.db #0x02	; 2
    000001A8 02                    2648 	.db #0x02	; 2
    000001A9 02                    2649 	.db #0x02	; 2
    000001AA 02                    2650 	.db #0x02	; 2
    000001AB 02                    2651 	.db #0x02	; 2
    000001AC 02                    2652 	.db #0x02	; 2
    000001AD 02                    2653 	.db #0x02	; 2
    000001AE 01                    2654 	.db #0x01	; 1
    000001AF 01                    2655 	.db #0x01	; 1
    000001B0 01                    2656 	.db #0x01	; 1
    000001B1 01                    2657 	.db #0x01	; 1
    000001B2 01                    2658 	.db #0x01	; 1
    000001B3 01                    2659 	.db #0x01	; 1
    000001B4 01                    2660 	.db #0x01	; 1
    000001B5 07                    2661 	.db #0x07	; 7
    000001B6 07                    2662 	.db #0x07	; 7
    000001B7 07                    2663 	.db #0x07	; 7
    000001B8 01                    2664 	.db #0x01	; 1
    000001B9 01                    2665 	.db #0x01	; 1
    000001BA 01                    2666 	.db #0x01	; 1
    000001BB 01                    2667 	.db #0x01	; 1
    000001BC 01                    2668 	.db #0x01	; 1
    000001BD 01                    2669 	.db #0x01	; 1
    000001BE 02                    2670 	.db #0x02	; 2
    000001BF 02                    2671 	.db #0x02	; 2
    000001C0 02                    2672 	.db #0x02	; 2
    000001C1 02                    2673 	.db #0x02	; 2
    000001C2 01                    2674 	.db #0x01	; 1
    000001C3 01                    2675 	.db #0x01	; 1
    000001C4 07                    2676 	.db #0x07	; 7
    000001C5 07                    2677 	.db #0x07	; 7
    000001C6 07                    2678 	.db #0x07	; 7
    000001C7 07                    2679 	.db #0x07	; 7
    000001C8 07                    2680 	.db #0x07	; 7
    000001C9 07                    2681 	.db #0x07	; 7
    000001CA 07                    2682 	.db #0x07	; 7
    000001CB 07                    2683 	.db #0x07	; 7
    000001CC 07                    2684 	.db #0x07	; 7
    000001CD 07                    2685 	.db #0x07	; 7
    000001CE 07                    2686 	.db #0x07	; 7
    000001CF 07                    2687 	.db #0x07	; 7
    000001D0 01                    2688 	.db #0x01	; 1
    000001D1 01                    2689 	.db #0x01	; 1
    000001D2 01                    2690 	.db #0x01	; 1
    000001D3 02                    2691 	.db #0x02	; 2
    000001D4 02                    2692 	.db #0x02	; 2
    000001D5 01                    2693 	.db #0x01	; 1
    000001D6 01                    2694 	.db #0x01	; 1
    000001D7 07                    2695 	.db #0x07	; 7
    000001D8 07                    2696 	.db #0x07	; 7
    000001D9 07                    2697 	.db #0x07	; 7
    000001DA 07                    2698 	.db #0x07	; 7
    000001DB 07                    2699 	.db #0x07	; 7
    000001DC 07                    2700 	.db #0x07	; 7
    000001DD 07                    2701 	.db #0x07	; 7
    000001DE 07                    2702 	.db #0x07	; 7
    000001DF 07                    2703 	.db #0x07	; 7
    000001E0 07                    2704 	.db #0x07	; 7
    000001E1 07                    2705 	.db #0x07	; 7
    000001E2 07                    2706 	.db #0x07	; 7
    000001E3 07                    2707 	.db #0x07	; 7
    000001E4 07                    2708 	.db #0x07	; 7
    000001E5 01                    2709 	.db #0x01	; 1
    000001E6 01                    2710 	.db #0x01	; 1
    000001E7 02                    2711 	.db #0x02	; 2
    000001E8 02                    2712 	.db #0x02	; 2
    000001E9 01                    2713 	.db #0x01	; 1
    000001EA 01                    2714 	.db #0x01	; 1
    000001EB 07                    2715 	.db #0x07	; 7
    000001EC 07                    2716 	.db #0x07	; 7
    000001ED 03                    2717 	.db #0x03	; 3
    000001EE 07                    2718 	.db #0x07	; 7
    000001EF 07                    2719 	.db #0x07	; 7
    000001F0 07                    2720 	.db #0x07	; 7
    000001F1 07                    2721 	.db #0x07	; 7
    000001F2 03                    2722 	.db #0x03	; 3
    000001F3 07                    2723 	.db #0x07	; 7
    000001F4 07                    2724 	.db #0x07	; 7
    000001F5 07                    2725 	.db #0x07	; 7
    000001F6 03                    2726 	.db #0x03	; 3
    000001F7 07                    2727 	.db #0x07	; 7
    000001F8 07                    2728 	.db #0x07	; 7
    000001F9 07                    2729 	.db #0x07	; 7
    000001FA 01                    2730 	.db #0x01	; 1
    000001FB 02                    2731 	.db #0x02	; 2
    000001FC 02                    2732 	.db #0x02	; 2
    000001FD 01                    2733 	.db #0x01	; 1
    000001FE 07                    2734 	.db #0x07	; 7
    000001FF 07                    2735 	.db #0x07	; 7
    00000200 07                    2736 	.db #0x07	; 7
    00000201 07                    2737 	.db #0x07	; 7
    00000202 07                    2738 	.db #0x07	; 7
    00000203 07                    2739 	.db #0x07	; 7
    00000204 07                    2740 	.db #0x07	; 7
    00000205 07                    2741 	.db #0x07	; 7
    00000206 07                    2742 	.db #0x07	; 7
    00000207 07                    2743 	.db #0x07	; 7
    00000208 07                    2744 	.db #0x07	; 7
    00000209 07                    2745 	.db #0x07	; 7
    0000020A 07                    2746 	.db #0x07	; 7
    0000020B 07                    2747 	.db #0x07	; 7
    0000020C 07                    2748 	.db #0x07	; 7
    0000020D 07                    2749 	.db #0x07	; 7
    0000020E 01                    2750 	.db #0x01	; 1
    0000020F 02                    2751 	.db #0x02	; 2
    00000210 02                    2752 	.db #0x02	; 2
    00000211 01                    2753 	.db #0x01	; 1
    00000212 07                    2754 	.db #0x07	; 7
    00000213 07                    2755 	.db #0x07	; 7
    00000214 07                    2756 	.db #0x07	; 7
    00000215 03                    2757 	.db #0x03	; 3
    00000216 07                    2758 	.db #0x07	; 7
    00000217 07                    2759 	.db #0x07	; 7
    00000218 07                    2760 	.db #0x07	; 7
    00000219 07                    2761 	.db #0x07	; 7
    0000021A 04                    2762 	.db #0x04	; 4
    0000021B 07                    2763 	.db #0x07	; 7
    0000021C 04                    2764 	.db #0x04	; 4
    0000021D 07                    2765 	.db #0x07	; 7
    0000021E 07                    2766 	.db #0x07	; 7
    0000021F 07                    2767 	.db #0x07	; 7
    00000220 07                    2768 	.db #0x07	; 7
    00000221 07                    2769 	.db #0x07	; 7
    00000222 01                    2770 	.db #0x01	; 1
    00000223 02                    2771 	.db #0x02	; 2
    00000224 01                    2772 	.db #0x01	; 1
    00000225 01                    2773 	.db #0x01	; 1
    00000226 07                    2774 	.db #0x07	; 7
    00000227 07                    2775 	.db #0x07	; 7
    00000228 07                    2776 	.db #0x07	; 7
    00000229 07                    2777 	.db #0x07	; 7
    0000022A 07                    2778 	.db #0x07	; 7
    0000022B 07                    2779 	.db #0x07	; 7
    0000022C 03                    2780 	.db #0x03	; 3
    0000022D 07                    2781 	.db #0x07	; 7
    0000022E 07                    2782 	.db #0x07	; 7
    0000022F 07                    2783 	.db #0x07	; 7
    00000230 07                    2784 	.db #0x07	; 7
    00000231 07                    2785 	.db #0x07	; 7
    00000232 07                    2786 	.db #0x07	; 7
    00000233 04                    2787 	.db #0x04	; 4
    00000234 03                    2788 	.db #0x03	; 3
    00000235 07                    2789 	.db #0x07	; 7
    00000236 01                    2790 	.db #0x01	; 1
    00000237 01                    2791 	.db #0x01	; 1
    00000238 07                    2792 	.db #0x07	; 7
    00000239 07                    2793 	.db #0x07	; 7
    0000023A 07                    2794 	.db #0x07	; 7
    0000023B 07                    2795 	.db #0x07	; 7
    0000023C 07                    2796 	.db #0x07	; 7
    0000023D 07                    2797 	.db #0x07	; 7
    0000023E 07                    2798 	.db #0x07	; 7
    0000023F 07                    2799 	.db #0x07	; 7
    00000240 07                    2800 	.db #0x07	; 7
    00000241 07                    2801 	.db #0x07	; 7
    00000242 07                    2802 	.db #0x07	; 7
    00000243 07                    2803 	.db #0x07	; 7
    00000244 07                    2804 	.db #0x07	; 7
    00000245 04                    2805 	.db #0x04	; 4
    00000246 07                    2806 	.db #0x07	; 7
    00000247 07                    2807 	.db #0x07	; 7
    00000248 07                    2808 	.db #0x07	; 7
    00000249 07                    2809 	.db #0x07	; 7
    0000024A 07                    2810 	.db #0x07	; 7
    0000024B 07                    2811 	.db #0x07	; 7
    0000024C 07                    2812 	.db #0x07	; 7
    0000024D 07                    2813 	.db #0x07	; 7
    0000024E 07                    2814 	.db #0x07	; 7
    0000024F 07                    2815 	.db #0x07	; 7
    00000250 07                    2816 	.db #0x07	; 7
    00000251 04                    2817 	.db #0x04	; 4
    00000252 07                    2818 	.db #0x07	; 7
    00000253 07                    2819 	.db #0x07	; 7
    00000254 04                    2820 	.db #0x04	; 4
    00000255 07                    2821 	.db #0x07	; 7
    00000256 07                    2822 	.db #0x07	; 7
    00000257 07                    2823 	.db #0x07	; 7
    00000258 07                    2824 	.db #0x07	; 7
    00000259 03                    2825 	.db #0x03	; 3
    0000025A 07                    2826 	.db #0x07	; 7
    0000025B 07                    2827 	.db #0x07	; 7
    0000025C 07                    2828 	.db #0x07	; 7
    0000025D 07                    2829 	.db #0x07	; 7
    0000025E 07                    2830 	.db #0x07	; 7
    0000025F 07                    2831 	.db #0x07	; 7
    00000260 07                    2832 	.db #0x07	; 7
    00000261 07                    2833 	.db #0x07	; 7
    00000262 07                    2834 	.db #0x07	; 7
    00000263 07                    2835 	.db #0x07	; 7
    00000264 07                    2836 	.db #0x07	; 7
    00000265 03                    2837 	.db #0x03	; 3
    00000266 07                    2838 	.db #0x07	; 7
    00000267 07                    2839 	.db #0x07	; 7
    00000268 07                    2840 	.db #0x07	; 7
    00000269 04                    2841 	.db #0x04	; 4
    0000026A 07                    2842 	.db #0x07	; 7
    0000026B 07                    2843 	.db #0x07	; 7
    0000026C 07                    2844 	.db #0x07	; 7
    0000026D 07                    2845 	.db #0x07	; 7
    0000026E 07                    2846 	.db #0x07	; 7
    0000026F 07                    2847 	.db #0x07	; 7
    00000270 07                    2848 	.db #0x07	; 7
    00000271 07                    2849 	.db #0x07	; 7
    00000272 07                    2850 	.db #0x07	; 7
    00000273 07                    2851 	.db #0x07	; 7
    00000274 01                    2852 	.db #0x01	; 1
    00000275 01                    2853 	.db #0x01	; 1
    00000276 07                    2854 	.db #0x07	; 7
    00000277 07                    2855 	.db #0x07	; 7
    00000278 07                    2856 	.db #0x07	; 7
    00000279 07                    2857 	.db #0x07	; 7
    0000027A 07                    2858 	.db #0x07	; 7
    0000027B 03                    2859 	.db #0x03	; 3
    0000027C 07                    2860 	.db #0x07	; 7
    0000027D 07                    2861 	.db #0x07	; 7
    0000027E 07                    2862 	.db #0x07	; 7
    0000027F 03                    2863 	.db #0x03	; 3
    00000280 07                    2864 	.db #0x07	; 7
    00000281 07                    2865 	.db #0x07	; 7
    00000282 07                    2866 	.db #0x07	; 7
    00000283 07                    2867 	.db #0x07	; 7
    00000284 07                    2868 	.db #0x07	; 7
    00000285 07                    2869 	.db #0x07	; 7
    00000286 01                    2870 	.db #0x01	; 1
    00000287 01                    2871 	.db #0x01	; 1
    00000288 02                    2872 	.db #0x02	; 2
    00000289 01                    2873 	.db #0x01	; 1
    0000028A 07                    2874 	.db #0x07	; 7
    0000028B 07                    2875 	.db #0x07	; 7
    0000028C 07                    2876 	.db #0x07	; 7
    0000028D 03                    2877 	.db #0x03	; 3
    0000028E 07                    2878 	.db #0x07	; 7
    0000028F 04                    2879 	.db #0x04	; 4
    00000290 07                    2880 	.db #0x07	; 7
    00000291 07                    2881 	.db #0x07	; 7
    00000292 07                    2882 	.db #0x07	; 7
    00000293 07                    2883 	.db #0x07	; 7
    00000294 07                    2884 	.db #0x07	; 7
    00000295 07                    2885 	.db #0x07	; 7
    00000296 04                    2886 	.db #0x04	; 4
    00000297 07                    2887 	.db #0x07	; 7
    00000298 07                    2888 	.db #0x07	; 7
    00000299 07                    2889 	.db #0x07	; 7
    0000029A 01                    2890 	.db #0x01	; 1
    0000029B 02                    2891 	.db #0x02	; 2
    0000029C 02                    2892 	.db #0x02	; 2
    0000029D 01                    2893 	.db #0x01	; 1
    0000029E 03                    2894 	.db #0x03	; 3
    0000029F 07                    2895 	.db #0x07	; 7
    000002A0 07                    2896 	.db #0x07	; 7
    000002A1 07                    2897 	.db #0x07	; 7
    000002A2 07                    2898 	.db #0x07	; 7
    000002A3 03                    2899 	.db #0x03	; 3
    000002A4 07                    2900 	.db #0x07	; 7
    000002A5 07                    2901 	.db #0x07	; 7
    000002A6 07                    2902 	.db #0x07	; 7
    000002A7 07                    2903 	.db #0x07	; 7
    000002A8 07                    2904 	.db #0x07	; 7
    000002A9 03                    2905 	.db #0x03	; 3
    000002AA 07                    2906 	.db #0x07	; 7
    000002AB 07                    2907 	.db #0x07	; 7
    000002AC 07                    2908 	.db #0x07	; 7
    000002AD 04                    2909 	.db #0x04	; 4
    000002AE 01                    2910 	.db #0x01	; 1
    000002AF 02                    2911 	.db #0x02	; 2
    000002B0 02                    2912 	.db #0x02	; 2
    000002B1 01                    2913 	.db #0x01	; 1
    000002B2 01                    2914 	.db #0x01	; 1
    000002B3 07                    2915 	.db #0x07	; 7
    000002B4 07                    2916 	.db #0x07	; 7
    000002B5 07                    2917 	.db #0x07	; 7
    000002B6 07                    2918 	.db #0x07	; 7
    000002B7 07                    2919 	.db #0x07	; 7
    000002B8 07                    2920 	.db #0x07	; 7
    000002B9 07                    2921 	.db #0x07	; 7
    000002BA 04                    2922 	.db #0x04	; 4
    000002BB 07                    2923 	.db #0x07	; 7
    000002BC 07                    2924 	.db #0x07	; 7
    000002BD 07                    2925 	.db #0x07	; 7
    000002BE 07                    2926 	.db #0x07	; 7
    000002BF 07                    2927 	.db #0x07	; 7
    000002C0 07                    2928 	.db #0x07	; 7
    000002C1 01                    2929 	.db #0x01	; 1
    000002C2 01                    2930 	.db #0x01	; 1
    000002C3 02                    2931 	.db #0x02	; 2
    000002C4 02                    2932 	.db #0x02	; 2
    000002C5 01                    2933 	.db #0x01	; 1
    000002C6 01                    2934 	.db #0x01	; 1
    000002C7 01                    2935 	.db #0x01	; 1
    000002C8 01                    2936 	.db #0x01	; 1
    000002C9 04                    2937 	.db #0x04	; 4
    000002CA 07                    2938 	.db #0x07	; 7
    000002CB 04                    2939 	.db #0x04	; 4
    000002CC 07                    2940 	.db #0x07	; 7
    000002CD 04                    2941 	.db #0x04	; 4
    000002CE 07                    2942 	.db #0x07	; 7
    000002CF 07                    2943 	.db #0x07	; 7
    000002D0 07                    2944 	.db #0x07	; 7
    000002D1 04                    2945 	.db #0x04	; 4
    000002D2 07                    2946 	.db #0x07	; 7
    000002D3 01                    2947 	.db #0x01	; 1
    000002D4 01                    2948 	.db #0x01	; 1
    000002D5 01                    2949 	.db #0x01	; 1
    000002D6 02                    2950 	.db #0x02	; 2
    000002D7 02                    2951 	.db #0x02	; 2
    000002D8 02                    2952 	.db #0x02	; 2
    000002D9 02                    2953 	.db #0x02	; 2
    000002DA 01                    2954 	.db #0x01	; 1
    000002DB 01                    2955 	.db #0x01	; 1
    000002DC 01                    2956 	.db #0x01	; 1
    000002DD 01                    2957 	.db #0x01	; 1
    000002DE 01                    2958 	.db #0x01	; 1
    000002DF 01                    2959 	.db #0x01	; 1
    000002E0 01                    2960 	.db #0x01	; 1
    000002E1 07                    2961 	.db #0x07	; 7
    000002E2 07                    2962 	.db #0x07	; 7
    000002E3 07                    2963 	.db #0x07	; 7
    000002E4 01                    2964 	.db #0x01	; 1
    000002E5 01                    2965 	.db #0x01	; 1
    000002E6 01                    2966 	.db #0x01	; 1
    000002E7 01                    2967 	.db #0x01	; 1
    000002E8 01                    2968 	.db #0x01	; 1
    000002E9 02                    2969 	.db #0x02	; 2
    000002EA 02                    2970 	.db #0x02	; 2
    000002EB 02                    2971 	.db #0x02	; 2
    000002EC 02                    2972 	.db #0x02	; 2
    000002ED 02                    2973 	.db #0x02	; 2
    000002EE 02                    2974 	.db #0x02	; 2
    000002EF 02                    2975 	.db #0x02	; 2
    000002F0 02                    2976 	.db #0x02	; 2
    000002F1 02                    2977 	.db #0x02	; 2
    000002F2 02                    2978 	.db #0x02	; 2
    000002F3 02                    2979 	.db #0x02	; 2
    000002F4 01                    2980 	.db #0x01	; 1
    000002F5 07                    2981 	.db #0x07	; 7
    000002F6 07                    2982 	.db #0x07	; 7
    000002F7 07                    2983 	.db #0x07	; 7
    000002F8 01                    2984 	.db #0x01	; 1
    000002F9 02                    2985 	.db #0x02	; 2
    000002FA 02                    2986 	.db #0x02	; 2
    000002FB 02                    2987 	.db #0x02	; 2
    000002FC 02                    2988 	.db #0x02	; 2
    000002FD 02                    2989 	.db #0x02	; 2
    000002FE 02                    2990 	.db #0x02	; 2
    000002FF 02                    2991 	.db #0x02	; 2
    00000300                       2992 __xinit__room_3:
    00000300 02                    2993 	.db #0x02	; 2
    00000301 02                    2994 	.db #0x02	; 2
    00000302 02                    2995 	.db #0x02	; 2
    00000303 02                    2996 	.db #0x02	; 2
    00000304 02                    2997 	.db #0x02	; 2
    00000305 02                    2998 	.db #0x02	; 2
    00000306 02                    2999 	.db #0x02	; 2
    00000307 02                    3000 	.db #0x02	; 2
    00000308 02                    3001 	.db #0x02	; 2
    00000309 02                    3002 	.db #0x02	; 2
    0000030A 02                    3003 	.db #0x02	; 2
    0000030B 02                    3004 	.db #0x02	; 2
    0000030C 02                    3005 	.db #0x02	; 2
    0000030D 02                    3006 	.db #0x02	; 2
    0000030E 02                    3007 	.db #0x02	; 2
    0000030F 02                    3008 	.db #0x02	; 2
    00000310 02                    3009 	.db #0x02	; 2
    00000311 02                    3010 	.db #0x02	; 2
    00000312 02                    3011 	.db #0x02	; 2
    00000313 02                    3012 	.db #0x02	; 2
    00000314 02                    3013 	.db #0x02	; 2
    00000315 02                    3014 	.db #0x02	; 2
    00000316 01                    3015 	.db #0x01	; 1
    00000317 01                    3016 	.db #0x01	; 1
    00000318 01                    3017 	.db #0x01	; 1
    00000319 01                    3018 	.db #0x01	; 1
    0000031A 01                    3019 	.db #0x01	; 1
    0000031B 01                    3020 	.db #0x01	; 1
    0000031C 01                    3021 	.db #0x01	; 1
    0000031D 01                    3022 	.db #0x01	; 1
    0000031E 01                    3023 	.db #0x01	; 1
    0000031F 01                    3024 	.db #0x01	; 1
    00000320 01                    3025 	.db #0x01	; 1
    00000321 01                    3026 	.db #0x01	; 1
    00000322 01                    3027 	.db #0x01	; 1
    00000323 01                    3028 	.db #0x01	; 1
    00000324 01                    3029 	.db #0x01	; 1
    00000325 01                    3030 	.db #0x01	; 1
    00000326 02                    3031 	.db #0x02	; 2
    00000327 02                    3032 	.db #0x02	; 2
    00000328 02                    3033 	.db #0x02	; 2
    00000329 02                    3034 	.db #0x02	; 2
    0000032A 01                    3035 	.db #0x01	; 1
    0000032B 01                    3036 	.db #0x01	; 1
    0000032C 07                    3037 	.db #0x07	; 7
    0000032D 07                    3038 	.db #0x07	; 7
    0000032E 07                    3039 	.db #0x07	; 7
    0000032F 07                    3040 	.db #0x07	; 7
    00000330 07                    3041 	.db #0x07	; 7
    00000331 07                    3042 	.db #0x07	; 7
    00000332 07                    3043 	.db #0x07	; 7
    00000333 07                    3044 	.db #0x07	; 7
    00000334 07                    3045 	.db #0x07	; 7
    00000335 07                    3046 	.db #0x07	; 7
    00000336 07                    3047 	.db #0x07	; 7
    00000337 07                    3048 	.db #0x07	; 7
    00000338 01                    3049 	.db #0x01	; 1
    00000339 01                    3050 	.db #0x01	; 1
    0000033A 01                    3051 	.db #0x01	; 1
    0000033B 02                    3052 	.db #0x02	; 2
    0000033C 02                    3053 	.db #0x02	; 2
    0000033D 01                    3054 	.db #0x01	; 1
    0000033E 01                    3055 	.db #0x01	; 1
    0000033F 07                    3056 	.db #0x07	; 7
    00000340 07                    3057 	.db #0x07	; 7
    00000341 07                    3058 	.db #0x07	; 7
    00000342 07                    3059 	.db #0x07	; 7
    00000343 07                    3060 	.db #0x07	; 7
    00000344 07                    3061 	.db #0x07	; 7
    00000345 07                    3062 	.db #0x07	; 7
    00000346 07                    3063 	.db #0x07	; 7
    00000347 07                    3064 	.db #0x07	; 7
    00000348 07                    3065 	.db #0x07	; 7
    00000349 07                    3066 	.db #0x07	; 7
    0000034A 07                    3067 	.db #0x07	; 7
    0000034B 07                    3068 	.db #0x07	; 7
    0000034C 07                    3069 	.db #0x07	; 7
    0000034D 01                    3070 	.db #0x01	; 1
    0000034E 01                    3071 	.db #0x01	; 1
    0000034F 02                    3072 	.db #0x02	; 2
    00000350 02                    3073 	.db #0x02	; 2
    00000351 01                    3074 	.db #0x01	; 1
    00000352 01                    3075 	.db #0x01	; 1
    00000353 07                    3076 	.db #0x07	; 7
    00000354 07                    3077 	.db #0x07	; 7
    00000355 03                    3078 	.db #0x03	; 3
    00000356 01                    3079 	.db #0x01	; 1
    00000357 07                    3080 	.db #0x07	; 7
    00000358 07                    3081 	.db #0x07	; 7
    00000359 07                    3082 	.db #0x07	; 7
    0000035A 03                    3083 	.db #0x03	; 3
    0000035B 07                    3084 	.db #0x07	; 7
    0000035C 07                    3085 	.db #0x07	; 7
    0000035D 07                    3086 	.db #0x07	; 7
    0000035E 01                    3087 	.db #0x01	; 1
    0000035F 01                    3088 	.db #0x01	; 1
    00000360 07                    3089 	.db #0x07	; 7
    00000361 07                    3090 	.db #0x07	; 7
    00000362 01                    3091 	.db #0x01	; 1
    00000363 02                    3092 	.db #0x02	; 2
    00000364 02                    3093 	.db #0x02	; 2
    00000365 01                    3094 	.db #0x01	; 1
    00000366 07                    3095 	.db #0x07	; 7
    00000367 07                    3096 	.db #0x07	; 7
    00000368 07                    3097 	.db #0x07	; 7
    00000369 01                    3098 	.db #0x01	; 1
    0000036A 02                    3099 	.db #0x02	; 2
    0000036B 07                    3100 	.db #0x07	; 7
    0000036C 07                    3101 	.db #0x07	; 7
    0000036D 07                    3102 	.db #0x07	; 7
    0000036E 07                    3103 	.db #0x07	; 7
    0000036F 07                    3104 	.db #0x07	; 7
    00000370 07                    3105 	.db #0x07	; 7
    00000371 01                    3106 	.db #0x01	; 1
    00000372 01                    3107 	.db #0x01	; 1
    00000373 02                    3108 	.db #0x02	; 2
    00000374 07                    3109 	.db #0x07	; 7
    00000375 07                    3110 	.db #0x07	; 7
    00000376 01                    3111 	.db #0x01	; 1
    00000377 02                    3112 	.db #0x02	; 2
    00000378 02                    3113 	.db #0x02	; 2
    00000379 01                    3114 	.db #0x01	; 1
    0000037A 07                    3115 	.db #0x07	; 7
    0000037B 07                    3116 	.db #0x07	; 7
    0000037C 07                    3117 	.db #0x07	; 7
    0000037D 01                    3118 	.db #0x01	; 1
    0000037E 02                    3119 	.db #0x02	; 2
    0000037F 01                    3120 	.db #0x01	; 1
    00000380 07                    3121 	.db #0x07	; 7
    00000381 07                    3122 	.db #0x07	; 7
    00000382 04                    3123 	.db #0x04	; 4
    00000383 07                    3124 	.db #0x07	; 7
    00000384 04                    3125 	.db #0x04	; 4
    00000385 07                    3126 	.db #0x07	; 7
    00000386 01                    3127 	.db #0x01	; 1
    00000387 02                    3128 	.db #0x02	; 2
    00000388 01                    3129 	.db #0x01	; 1
    00000389 07                    3130 	.db #0x07	; 7
    0000038A 01                    3131 	.db #0x01	; 1
    0000038B 02                    3132 	.db #0x02	; 2
    0000038C 02                    3133 	.db #0x02	; 2
    0000038D 01                    3134 	.db #0x01	; 1
    0000038E 07                    3135 	.db #0x07	; 7
    0000038F 07                    3136 	.db #0x07	; 7
    00000390 07                    3137 	.db #0x07	; 7
    00000391 07                    3138 	.db #0x07	; 7
    00000392 01                    3139 	.db #0x01	; 1
    00000393 07                    3140 	.db #0x07	; 7
    00000394 03                    3141 	.db #0x03	; 3
    00000395 07                    3142 	.db #0x07	; 7
    00000396 07                    3143 	.db #0x07	; 7
    00000397 07                    3144 	.db #0x07	; 7
    00000398 07                    3145 	.db #0x07	; 7
    00000399 07                    3146 	.db #0x07	; 7
    0000039A 07                    3147 	.db #0x07	; 7
    0000039B 01                    3148 	.db #0x01	; 1
    0000039C 03                    3149 	.db #0x03	; 3
    0000039D 07                    3150 	.db #0x07	; 7
    0000039E 01                    3151 	.db #0x01	; 1
    0000039F 02                    3152 	.db #0x02	; 2
    000003A0 02                    3153 	.db #0x02	; 2
    000003A1 01                    3154 	.db #0x01	; 1
    000003A2 07                    3155 	.db #0x07	; 7
    000003A3 07                    3156 	.db #0x07	; 7
    000003A4 07                    3157 	.db #0x07	; 7
    000003A5 07                    3158 	.db #0x07	; 7
    000003A6 07                    3159 	.db #0x07	; 7
    000003A7 07                    3160 	.db #0x07	; 7
    000003A8 07                    3161 	.db #0x07	; 7
    000003A9 07                    3162 	.db #0x07	; 7
    000003AA 07                    3163 	.db #0x07	; 7
    000003AB 07                    3164 	.db #0x07	; 7
    000003AC 07                    3165 	.db #0x07	; 7
    000003AD 04                    3166 	.db #0x04	; 4
    000003AE 07                    3167 	.db #0x07	; 7
    000003AF 07                    3168 	.db #0x07	; 7
    000003B0 07                    3169 	.db #0x07	; 7
    000003B1 07                    3170 	.db #0x07	; 7
    000003B2 01                    3171 	.db #0x01	; 1
    000003B3 02                    3172 	.db #0x02	; 2
    000003B4 02                    3173 	.db #0x02	; 2
    000003B5 01                    3174 	.db #0x01	; 1
    000003B6 07                    3175 	.db #0x07	; 7
    000003B7 07                    3176 	.db #0x07	; 7
    000003B8 07                    3177 	.db #0x07	; 7
    000003B9 04                    3178 	.db #0x04	; 4
    000003BA 07                    3179 	.db #0x07	; 7
    000003BB 07                    3180 	.db #0x07	; 7
    000003BC 04                    3181 	.db #0x04	; 4
    000003BD 07                    3182 	.db #0x07	; 7
    000003BE 07                    3183 	.db #0x07	; 7
    000003BF 07                    3184 	.db #0x07	; 7
    000003C0 07                    3185 	.db #0x07	; 7
    000003C1 03                    3186 	.db #0x03	; 3
    000003C2 07                    3187 	.db #0x07	; 7
    000003C3 07                    3188 	.db #0x07	; 7
    000003C4 07                    3189 	.db #0x07	; 7
    000003C5 07                    3190 	.db #0x07	; 7
    000003C6 01                    3191 	.db #0x01	; 1
    000003C7 02                    3192 	.db #0x02	; 2
    000003C8 02                    3193 	.db #0x02	; 2
    000003C9 01                    3194 	.db #0x01	; 1
    000003CA 07                    3195 	.db #0x07	; 7
    000003CB 07                    3196 	.db #0x07	; 7
    000003CC 07                    3197 	.db #0x07	; 7
    000003CD 01                    3198 	.db #0x01	; 1
    000003CE 07                    3199 	.db #0x07	; 7
    000003CF 07                    3200 	.db #0x07	; 7
    000003D0 07                    3201 	.db #0x07	; 7
    000003D1 04                    3202 	.db #0x04	; 4
    000003D2 07                    3203 	.db #0x07	; 7
    000003D3 07                    3204 	.db #0x07	; 7
    000003D4 07                    3205 	.db #0x07	; 7
    000003D5 07                    3206 	.db #0x07	; 7
    000003D6 07                    3207 	.db #0x07	; 7
    000003D7 07                    3208 	.db #0x07	; 7
    000003D8 07                    3209 	.db #0x07	; 7
    000003D9 07                    3210 	.db #0x07	; 7
    000003DA 01                    3211 	.db #0x01	; 1
    000003DB 02                    3212 	.db #0x02	; 2
    000003DC 02                    3213 	.db #0x02	; 2
    000003DD 01                    3214 	.db #0x01	; 1
    000003DE 07                    3215 	.db #0x07	; 7
    000003DF 07                    3216 	.db #0x07	; 7
    000003E0 01                    3217 	.db #0x01	; 1
    000003E1 02                    3218 	.db #0x02	; 2
    000003E2 07                    3219 	.db #0x07	; 7
    000003E3 03                    3220 	.db #0x03	; 3
    000003E4 07                    3221 	.db #0x07	; 7
    000003E5 07                    3222 	.db #0x07	; 7
    000003E6 07                    3223 	.db #0x07	; 7
    000003E7 03                    3224 	.db #0x03	; 3
    000003E8 07                    3225 	.db #0x07	; 7
    000003E9 07                    3226 	.db #0x07	; 7
    000003EA 01                    3227 	.db #0x01	; 1
    000003EB 01                    3228 	.db #0x01	; 1
    000003EC 07                    3229 	.db #0x07	; 7
    000003ED 07                    3230 	.db #0x07	; 7
    000003EE 01                    3231 	.db #0x01	; 1
    000003EF 02                    3232 	.db #0x02	; 2
    000003F0 02                    3233 	.db #0x02	; 2
    000003F1 01                    3234 	.db #0x01	; 1
    000003F2 07                    3235 	.db #0x07	; 7
    000003F3 07                    3236 	.db #0x07	; 7
    000003F4 07                    3237 	.db #0x07	; 7
    000003F5 01                    3238 	.db #0x01	; 1
    000003F6 07                    3239 	.db #0x07	; 7
    000003F7 04                    3240 	.db #0x04	; 4
    000003F8 07                    3241 	.db #0x07	; 7
    000003F9 07                    3242 	.db #0x07	; 7
    000003FA 07                    3243 	.db #0x07	; 7
    000003FB 07                    3244 	.db #0x07	; 7
    000003FC 07                    3245 	.db #0x07	; 7
    000003FD 07                    3246 	.db #0x07	; 7
    000003FE 04                    3247 	.db #0x04	; 4
    000003FF 01                    3248 	.db #0x01	; 1
    00000400 07                    3249 	.db #0x07	; 7
    00000401 07                    3250 	.db #0x07	; 7
    00000402 01                    3251 	.db #0x01	; 1
    00000403 02                    3252 	.db #0x02	; 2
    00000404 02                    3253 	.db #0x02	; 2
    00000405 01                    3254 	.db #0x01	; 1
    00000406 03                    3255 	.db #0x03	; 3
    00000407 07                    3256 	.db #0x07	; 7
    00000408 07                    3257 	.db #0x07	; 7
    00000409 07                    3258 	.db #0x07	; 7
    0000040A 07                    3259 	.db #0x07	; 7
    0000040B 03                    3260 	.db #0x03	; 3
    0000040C 07                    3261 	.db #0x07	; 7
    0000040D 07                    3262 	.db #0x07	; 7
    0000040E 07                    3263 	.db #0x07	; 7
    0000040F 07                    3264 	.db #0x07	; 7
    00000410 07                    3265 	.db #0x07	; 7
    00000411 03                    3266 	.db #0x03	; 3
    00000412 07                    3267 	.db #0x07	; 7
    00000413 07                    3268 	.db #0x07	; 7
    00000414 07                    3269 	.db #0x07	; 7
    00000415 04                    3270 	.db #0x04	; 4
    00000416 01                    3271 	.db #0x01	; 1
    00000417 02                    3272 	.db #0x02	; 2
    00000418 02                    3273 	.db #0x02	; 2
    00000419 01                    3274 	.db #0x01	; 1
    0000041A 01                    3275 	.db #0x01	; 1
    0000041B 07                    3276 	.db #0x07	; 7
    0000041C 07                    3277 	.db #0x07	; 7
    0000041D 07                    3278 	.db #0x07	; 7
    0000041E 07                    3279 	.db #0x07	; 7
    0000041F 07                    3280 	.db #0x07	; 7
    00000420 07                    3281 	.db #0x07	; 7
    00000421 07                    3282 	.db #0x07	; 7
    00000422 04                    3283 	.db #0x04	; 4
    00000423 07                    3284 	.db #0x07	; 7
    00000424 07                    3285 	.db #0x07	; 7
    00000425 07                    3286 	.db #0x07	; 7
    00000426 07                    3287 	.db #0x07	; 7
    00000427 07                    3288 	.db #0x07	; 7
    00000428 07                    3289 	.db #0x07	; 7
    00000429 01                    3290 	.db #0x01	; 1
    0000042A 01                    3291 	.db #0x01	; 1
    0000042B 02                    3292 	.db #0x02	; 2
    0000042C 02                    3293 	.db #0x02	; 2
    0000042D 01                    3294 	.db #0x01	; 1
    0000042E 01                    3295 	.db #0x01	; 1
    0000042F 01                    3296 	.db #0x01	; 1
    00000430 01                    3297 	.db #0x01	; 1
    00000431 04                    3298 	.db #0x04	; 4
    00000432 07                    3299 	.db #0x07	; 7
    00000433 04                    3300 	.db #0x04	; 4
    00000434 07                    3301 	.db #0x07	; 7
    00000435 04                    3302 	.db #0x04	; 4
    00000436 07                    3303 	.db #0x07	; 7
    00000437 07                    3304 	.db #0x07	; 7
    00000438 07                    3305 	.db #0x07	; 7
    00000439 04                    3306 	.db #0x04	; 4
    0000043A 07                    3307 	.db #0x07	; 7
    0000043B 01                    3308 	.db #0x01	; 1
    0000043C 01                    3309 	.db #0x01	; 1
    0000043D 01                    3310 	.db #0x01	; 1
    0000043E 02                    3311 	.db #0x02	; 2
    0000043F 02                    3312 	.db #0x02	; 2
    00000440 02                    3313 	.db #0x02	; 2
    00000441 02                    3314 	.db #0x02	; 2
    00000442 01                    3315 	.db #0x01	; 1
    00000443 01                    3316 	.db #0x01	; 1
    00000444 01                    3317 	.db #0x01	; 1
    00000445 01                    3318 	.db #0x01	; 1
    00000446 01                    3319 	.db #0x01	; 1
    00000447 01                    3320 	.db #0x01	; 1
    00000448 01                    3321 	.db #0x01	; 1
    00000449 07                    3322 	.db #0x07	; 7
    0000044A 07                    3323 	.db #0x07	; 7
    0000044B 07                    3324 	.db #0x07	; 7
    0000044C 01                    3325 	.db #0x01	; 1
    0000044D 01                    3326 	.db #0x01	; 1
    0000044E 01                    3327 	.db #0x01	; 1
    0000044F 01                    3328 	.db #0x01	; 1
    00000450 01                    3329 	.db #0x01	; 1
    00000451 02                    3330 	.db #0x02	; 2
    00000452 02                    3331 	.db #0x02	; 2
    00000453 02                    3332 	.db #0x02	; 2
    00000454 02                    3333 	.db #0x02	; 2
    00000455 02                    3334 	.db #0x02	; 2
    00000456 02                    3335 	.db #0x02	; 2
    00000457 02                    3336 	.db #0x02	; 2
    00000458 02                    3337 	.db #0x02	; 2
    00000459 02                    3338 	.db #0x02	; 2
    0000045A 02                    3339 	.db #0x02	; 2
    0000045B 02                    3340 	.db #0x02	; 2
    0000045C 01                    3341 	.db #0x01	; 1
    0000045D 07                    3342 	.db #0x07	; 7
    0000045E 07                    3343 	.db #0x07	; 7
    0000045F 07                    3344 	.db #0x07	; 7
    00000460 01                    3345 	.db #0x01	; 1
    00000461 02                    3346 	.db #0x02	; 2
    00000462 02                    3347 	.db #0x02	; 2
    00000463 02                    3348 	.db #0x02	; 2
    00000464 02                    3349 	.db #0x02	; 2
    00000465 02                    3350 	.db #0x02	; 2
    00000466 02                    3351 	.db #0x02	; 2
    00000467 02                    3352 	.db #0x02	; 2
    00000468                       3353 __xinit__current_room:
    00000468r30r00                 3354 	.dw _room_1
    0000046A                       3355 __xinit__start_screen:
    0000046A 02                    3356 	.db #0x02	; 2
    0000046B 01                    3357 	.db #0x01	; 1
    0000046C 01                    3358 	.db #0x01	; 1
    0000046D 07                    3359 	.db #0x07	; 7
    0000046E 03                    3360 	.db #0x03	; 3
    0000046F 07                    3361 	.db #0x07	; 7
    00000470 07                    3362 	.db #0x07	; 7
    00000471 07                    3363 	.db #0x07	; 7
    00000472 07                    3364 	.db #0x07	; 7
    00000473 07                    3365 	.db #0x07	; 7
    00000474 07                    3366 	.db #0x07	; 7
    00000475 07                    3367 	.db #0x07	; 7
    00000476 07                    3368 	.db #0x07	; 7
    00000477 03                    3369 	.db #0x03	; 3
    00000478 07                    3370 	.db #0x07	; 7
    00000479 07                    3371 	.db #0x07	; 7
    0000047A 01                    3372 	.db #0x01	; 1
    0000047B 02                    3373 	.db #0x02	; 2
    0000047C 02                    3374 	.db #0x02	; 2
    0000047D 01                    3375 	.db #0x01	; 1
    0000047E 02                    3376 	.db #0x02	; 2
    0000047F 01                    3377 	.db #0x01	; 1
    00000480 01                    3378 	.db #0x01	; 1
    00000481 07                    3379 	.db #0x07	; 7
    00000482 07                    3380 	.db #0x07	; 7
    00000483 07                    3381 	.db #0x07	; 7
    00000484 03                    3382 	.db #0x03	; 3
    00000485 07                    3383 	.db #0x07	; 7
    00000486 07                    3384 	.db #0x07	; 7
    00000487 07                    3385 	.db #0x07	; 7
    00000488 07                    3386 	.db #0x07	; 7
    00000489 07                    3387 	.db #0x07	; 7
    0000048A 07                    3388 	.db #0x07	; 7
    0000048B 03                    3389 	.db #0x03	; 3
    0000048C 07                    3390 	.db #0x07	; 7
    0000048D 07                    3391 	.db #0x07	; 7
    0000048E 01                    3392 	.db #0x01	; 1
    0000048F 01                    3393 	.db #0x01	; 1
    00000490 02                    3394 	.db #0x02	; 2
    00000491 02                    3395 	.db #0x02	; 2
    00000492 02                    3396 	.db #0x02	; 2
    00000493 02                    3397 	.db #0x02	; 2
    00000494 01                    3398 	.db #0x01	; 1
    00000495 07                    3399 	.db #0x07	; 7
    00000496 07                    3400 	.db #0x07	; 7
    00000497 07                    3401 	.db #0x07	; 7
    00000498 07                    3402 	.db #0x07	; 7
    00000499 07                    3403 	.db #0x07	; 7
    0000049A 07                    3404 	.db #0x07	; 7
    0000049B 07                    3405 	.db #0x07	; 7
    0000049C 03                    3406 	.db #0x03	; 3
    0000049D 07                    3407 	.db #0x07	; 7
    0000049E 07                    3408 	.db #0x07	; 7
    0000049F 07                    3409 	.db #0x07	; 7
    000004A0 03                    3410 	.db #0x03	; 3
    000004A1 07                    3411 	.db #0x07	; 7
    000004A2 01                    3412 	.db #0x01	; 1
    000004A3 01                    3413 	.db #0x01	; 1
    000004A4 02                    3414 	.db #0x02	; 2
    000004A5 02                    3415 	.db #0x02	; 2
    000004A6 02                    3416 	.db #0x02	; 2
    000004A7 02                    3417 	.db #0x02	; 2
    000004A8 01                    3418 	.db #0x01	; 1
    000004A9 01                    3419 	.db #0x01	; 1
    000004AA 07                    3420 	.db #0x07	; 7
    000004AB 07                    3421 	.db #0x07	; 7
    000004AC 07                    3422 	.db #0x07	; 7
    000004AD 07                    3423 	.db #0x07	; 7
    000004AE 07                    3424 	.db #0x07	; 7
    000004AF 07                    3425 	.db #0x07	; 7
    000004B0 07                    3426 	.db #0x07	; 7
    000004B1 07                    3427 	.db #0x07	; 7
    000004B2 07                    3428 	.db #0x07	; 7
    000004B3 07                    3429 	.db #0x07	; 7
    000004B4 07                    3430 	.db #0x07	; 7
    000004B5 07                    3431 	.db #0x07	; 7
    000004B6 07                    3432 	.db #0x07	; 7
    000004B7 01                    3433 	.db #0x01	; 1
    000004B8 02                    3434 	.db #0x02	; 2
    000004B9 02                    3435 	.db #0x02	; 2
    000004BA 02                    3436 	.db #0x02	; 2
    000004BB 01                    3437 	.db #0x01	; 1
    000004BC 01                    3438 	.db #0x01	; 1
    000004BD 01                    3439 	.db #0x01	; 1
    000004BE 07                    3440 	.db #0x07	; 7
    000004BF 03                    3441 	.db #0x03	; 3
    000004C0 07                    3442 	.db #0x07	; 7
    000004C1 07                    3443 	.db #0x07	; 7
    000004C2 07                    3444 	.db #0x07	; 7
    000004C3 07                    3445 	.db #0x07	; 7
    000004C4 03                    3446 	.db #0x03	; 3
    000004C5 07                    3447 	.db #0x07	; 7
    000004C6 07                    3448 	.db #0x07	; 7
    000004C7 07                    3449 	.db #0x07	; 7
    000004C8 03                    3450 	.db #0x03	; 3
    000004C9 07                    3451 	.db #0x07	; 7
    000004CA 07                    3452 	.db #0x07	; 7
    000004CB 01                    3453 	.db #0x01	; 1
    000004CC 01                    3454 	.db #0x01	; 1
    000004CD 02                    3455 	.db #0x02	; 2
    000004CE 02                    3456 	.db #0x02	; 2
    000004CF 02                    3457 	.db #0x02	; 2
    000004D0 01                    3458 	.db #0x01	; 1
    000004D1 01                    3459 	.db #0x01	; 1
    000004D2 07                    3460 	.db #0x07	; 7
    000004D3 07                    3461 	.db #0x07	; 7
    000004D4 07                    3462 	.db #0x07	; 7
    000004D5 03                    3463 	.db #0x03	; 3
    000004D6 07                    3464 	.db #0x07	; 7
    000004D7 07                    3465 	.db #0x07	; 7
    000004D8 07                    3466 	.db #0x07	; 7
    000004D9 07                    3467 	.db #0x07	; 7
    000004DA 07                    3468 	.db #0x07	; 7
    000004DB 07                    3469 	.db #0x07	; 7
    000004DC 07                    3470 	.db #0x07	; 7
    000004DD 07                    3471 	.db #0x07	; 7
    000004DE 07                    3472 	.db #0x07	; 7
    000004DF 01                    3473 	.db #0x01	; 1
    000004E0 01                    3474 	.db #0x01	; 1
    000004E1 02                    3475 	.db #0x02	; 2
    000004E2 02                    3476 	.db #0x02	; 2
    000004E3 02                    3477 	.db #0x02	; 2
    000004E4 02                    3478 	.db #0x02	; 2
    000004E5 01                    3479 	.db #0x01	; 1
    000004E6 07                    3480 	.db #0x07	; 7
    000004E7 03                    3481 	.db #0x03	; 3
    000004E8 07                    3482 	.db #0x07	; 7
    000004E9 07                    3483 	.db #0x07	; 7
    000004EA 07                    3484 	.db #0x07	; 7
    000004EB 07                    3485 	.db #0x07	; 7
    000004EC 04                    3486 	.db #0x04	; 4
    000004ED 07                    3487 	.db #0x07	; 7
    000004EE 04                    3488 	.db #0x04	; 4
    000004EF 07                    3489 	.db #0x07	; 7
    000004F0 07                    3490 	.db #0x07	; 7
    000004F1 07                    3491 	.db #0x07	; 7
    000004F2 07                    3492 	.db #0x07	; 7
    000004F3 01                    3493 	.db #0x01	; 1
    000004F4 02                    3494 	.db #0x02	; 2
    000004F5 02                    3495 	.db #0x02	; 2
    000004F6 01                    3496 	.db #0x01	; 1
    000004F7 02                    3497 	.db #0x02	; 2
    000004F8 02                    3498 	.db #0x02	; 2
    000004F9 01                    3499 	.db #0x01	; 1
    000004FA 07                    3500 	.db #0x07	; 7
    000004FB 07                    3501 	.db #0x07	; 7
    000004FC 07                    3502 	.db #0x07	; 7
    000004FD 07                    3503 	.db #0x07	; 7
    000004FE 03                    3504 	.db #0x03	; 3
    000004FF 07                    3505 	.db #0x07	; 7
    00000500 07                    3506 	.db #0x07	; 7
    00000501 07                    3507 	.db #0x07	; 7
    00000502 07                    3508 	.db #0x07	; 7
    00000503 07                    3509 	.db #0x07	; 7
    00000504 07                    3510 	.db #0x07	; 7
    00000505 04                    3511 	.db #0x04	; 4
    00000506 01                    3512 	.db #0x01	; 1
    00000507 01                    3513 	.db #0x01	; 1
    00000508 02                    3514 	.db #0x02	; 2
    00000509 01                    3515 	.db #0x01	; 1
    0000050A 02                    3516 	.db #0x02	; 2
    0000050B 02                    3517 	.db #0x02	; 2
    0000050C 02                    3518 	.db #0x02	; 2
    0000050D 01                    3519 	.db #0x01	; 1
    0000050E 07                    3520 	.db #0x07	; 7
    0000050F 07                    3521 	.db #0x07	; 7
    00000510 07                    3522 	.db #0x07	; 7
    00000511 07                    3523 	.db #0x07	; 7
    00000512 07                    3524 	.db #0x07	; 7
    00000513 07                    3525 	.db #0x07	; 7
    00000514 07                    3526 	.db #0x07	; 7
    00000515 07                    3527 	.db #0x07	; 7
    00000516 07                    3528 	.db #0x07	; 7
    00000517 04                    3529 	.db #0x04	; 4
    00000518 07                    3530 	.db #0x07	; 7
    00000519 07                    3531 	.db #0x07	; 7
    0000051A 01                    3532 	.db #0x01	; 1
    0000051B 02                    3533 	.db #0x02	; 2
    0000051C 02                    3534 	.db #0x02	; 2
    0000051D 01                    3535 	.db #0x01	; 1
    0000051E 02                    3536 	.db #0x02	; 2
    0000051F 02                    3537 	.db #0x02	; 2
    00000520 01                    3538 	.db #0x01	; 1
    00000521 01                    3539 	.db #0x01	; 1
    00000522 07                    3540 	.db #0x07	; 7
    00000523 04                    3541 	.db #0x04	; 4
    00000524 07                    3542 	.db #0x07	; 7
    00000525 07                    3543 	.db #0x07	; 7
    00000526 04                    3544 	.db #0x04	; 4
    00000527 07                    3545 	.db #0x07	; 7
    00000528 07                    3546 	.db #0x07	; 7
    00000529 07                    3547 	.db #0x07	; 7
    0000052A 07                    3548 	.db #0x07	; 7
    0000052B 03                    3549 	.db #0x03	; 3
    0000052C 07                    3550 	.db #0x07	; 7
    0000052D 07                    3551 	.db #0x07	; 7
    0000052E 01                    3552 	.db #0x01	; 1
    0000052F 01                    3553 	.db #0x01	; 1
    00000530 02                    3554 	.db #0x02	; 2
    00000531 02                    3555 	.db #0x02	; 2
    00000532 02                    3556 	.db #0x02	; 2
    00000533 02                    3557 	.db #0x02	; 2
    00000534 01                    3558 	.db #0x01	; 1
    00000535 07                    3559 	.db #0x07	; 7
    00000536 07                    3560 	.db #0x07	; 7
    00000537 03                    3561 	.db #0x03	; 3
    00000538 07                    3562 	.db #0x07	; 7
    00000539 07                    3563 	.db #0x07	; 7
    0000053A 07                    3564 	.db #0x07	; 7
    0000053B 04                    3565 	.db #0x04	; 4
    0000053C 07                    3566 	.db #0x07	; 7
    0000053D 07                    3567 	.db #0x07	; 7
    0000053E 07                    3568 	.db #0x07	; 7
    0000053F 07                    3569 	.db #0x07	; 7
    00000540 07                    3570 	.db #0x07	; 7
    00000541 07                    3571 	.db #0x07	; 7
    00000542 07                    3572 	.db #0x07	; 7
    00000543 01                    3573 	.db #0x01	; 1
    00000544 02                    3574 	.db #0x02	; 2
    00000545 02                    3575 	.db #0x02	; 2
    00000546 02                    3576 	.db #0x02	; 2
    00000547 02                    3577 	.db #0x02	; 2
    00000548 01                    3578 	.db #0x01	; 1
    00000549 07                    3579 	.db #0x07	; 7
    0000054A 07                    3580 	.db #0x07	; 7
    0000054B 07                    3581 	.db #0x07	; 7
    0000054C 07                    3582 	.db #0x07	; 7
    0000054D 03                    3583 	.db #0x03	; 3
    0000054E 07                    3584 	.db #0x07	; 7
    0000054F 07                    3585 	.db #0x07	; 7
    00000550 07                    3586 	.db #0x07	; 7
    00000551 03                    3587 	.db #0x03	; 3
    00000552 07                    3588 	.db #0x07	; 7
    00000553 07                    3589 	.db #0x07	; 7
    00000554 07                    3590 	.db #0x07	; 7
    00000555 07                    3591 	.db #0x07	; 7
    00000556 07                    3592 	.db #0x07	; 7
    00000557 01                    3593 	.db #0x01	; 1
    00000558 02                    3594 	.db #0x02	; 2
    00000559 02                    3595 	.db #0x02	; 2
    0000055A 02                    3596 	.db #0x02	; 2
    0000055B 02                    3597 	.db #0x02	; 2
    0000055C 01                    3598 	.db #0x01	; 1
    0000055D 01                    3599 	.db #0x01	; 1
    0000055E 07                    3600 	.db #0x07	; 7
    0000055F 03                    3601 	.db #0x03	; 3
    00000560 07                    3602 	.db #0x07	; 7
    00000561 04                    3603 	.db #0x04	; 4
    00000562 07                    3604 	.db #0x07	; 7
    00000563 07                    3605 	.db #0x07	; 7
    00000564 07                    3606 	.db #0x07	; 7
    00000565 07                    3607 	.db #0x07	; 7
    00000566 07                    3608 	.db #0x07	; 7
    00000567 07                    3609 	.db #0x07	; 7
    00000568 04                    3610 	.db #0x04	; 4
    00000569 07                    3611 	.db #0x07	; 7
    0000056A 07                    3612 	.db #0x07	; 7
    0000056B 01                    3613 	.db #0x01	; 1
    0000056C 01                    3614 	.db #0x01	; 1
    0000056D 02                    3615 	.db #0x02	; 2
    0000056E 02                    3616 	.db #0x02	; 2
    0000056F 02                    3617 	.db #0x02	; 2
    00000570 02                    3618 	.db #0x02	; 2
    00000571 01                    3619 	.db #0x01	; 1
    00000572 07                    3620 	.db #0x07	; 7
    00000573 07                    3621 	.db #0x07	; 7
    00000574 07                    3622 	.db #0x07	; 7
    00000575 03                    3623 	.db #0x03	; 3
    00000576 07                    3624 	.db #0x07	; 7
    00000577 07                    3625 	.db #0x07	; 7
    00000578 07                    3626 	.db #0x07	; 7
    00000579 03                    3627 	.db #0x03	; 3
    0000057A 07                    3628 	.db #0x07	; 7
    0000057B 03                    3629 	.db #0x03	; 3
    0000057C 07                    3630 	.db #0x07	; 7
    0000057D 07                    3631 	.db #0x07	; 7
    0000057E 07                    3632 	.db #0x07	; 7
    0000057F 01                    3633 	.db #0x01	; 1
    00000580 02                    3634 	.db #0x02	; 2
    00000581 02                    3635 	.db #0x02	; 2
    00000582 01                    3636 	.db #0x01	; 1
    00000583 02                    3637 	.db #0x02	; 2
    00000584 02                    3638 	.db #0x02	; 2
    00000585 01                    3639 	.db #0x01	; 1
    00000586 07                    3640 	.db #0x07	; 7
    00000587 07                    3641 	.db #0x07	; 7
    00000588 07                    3642 	.db #0x07	; 7
    00000589 07                    3643 	.db #0x07	; 7
    0000058A 07                    3644 	.db #0x07	; 7
    0000058B 07                    3645 	.db #0x07	; 7
    0000058C 04                    3646 	.db #0x04	; 4
    0000058D 07                    3647 	.db #0x07	; 7
    0000058E 07                    3648 	.db #0x07	; 7
    0000058F 07                    3649 	.db #0x07	; 7
    00000590 07                    3650 	.db #0x07	; 7
    00000591 07                    3651 	.db #0x07	; 7
    00000592 07                    3652 	.db #0x07	; 7
    00000593 01                    3653 	.db #0x01	; 1
    00000594 02                    3654 	.db #0x02	; 2
    00000595 02                    3655 	.db #0x02	; 2
    00000596 02                    3656 	.db #0x02	; 2
    00000597 02                    3657 	.db #0x02	; 2
    00000598 01                    3658 	.db #0x01	; 1
    00000599 01                    3659 	.db #0x01	; 1
    0000059A 07                    3660 	.db #0x07	; 7
    0000059B 04                    3661 	.db #0x04	; 4
    0000059C 07                    3662 	.db #0x07	; 7
    0000059D 04                    3663 	.db #0x04	; 4
    0000059E 07                    3664 	.db #0x07	; 7
    0000059F 04                    3665 	.db #0x04	; 4
    000005A0 07                    3666 	.db #0x07	; 7
    000005A1 07                    3667 	.db #0x07	; 7
    000005A2 07                    3668 	.db #0x07	; 7
    000005A3 04                    3669 	.db #0x04	; 4
    000005A4 07                    3670 	.db #0x07	; 7
    000005A5 07                    3671 	.db #0x07	; 7
    000005A6 01                    3672 	.db #0x01	; 1
    000005A7 01                    3673 	.db #0x01	; 1
    000005A8 02                    3674 	.db #0x02	; 2
    000005A9 02                    3675 	.db #0x02	; 2
    000005AA 02                    3676 	.db #0x02	; 2
    000005AB 02                    3677 	.db #0x02	; 2
    000005AC 01                    3678 	.db #0x01	; 1
    000005AD 07                    3679 	.db #0x07	; 7
    000005AE 07                    3680 	.db #0x07	; 7
    000005AF 03                    3681 	.db #0x03	; 3
    000005B0 07                    3682 	.db #0x07	; 7
    000005B1 07                    3683 	.db #0x07	; 7
    000005B2 07                    3684 	.db #0x07	; 7
    000005B3 07                    3685 	.db #0x07	; 7
    000005B4 07                    3686 	.db #0x07	; 7
    000005B5 07                    3687 	.db #0x07	; 7
    000005B6 07                    3688 	.db #0x07	; 7
    000005B7 07                    3689 	.db #0x07	; 7
    000005B8 07                    3690 	.db #0x07	; 7
    000005B9 07                    3691 	.db #0x07	; 7
    000005BA 01                    3692 	.db #0x01	; 1
    000005BB 02                    3693 	.db #0x02	; 2
    000005BC 02                    3694 	.db #0x02	; 2
    000005BD 01                    3695 	.db #0x01	; 1
    000005BE 02                    3696 	.db #0x02	; 2
    000005BF 01                    3697 	.db #0x01	; 1
    000005C0 01                    3698 	.db #0x01	; 1
    000005C1 07                    3699 	.db #0x07	; 7
    000005C2 07                    3700 	.db #0x07	; 7
    000005C3 07                    3701 	.db #0x07	; 7
    000005C4 07                    3702 	.db #0x07	; 7
    000005C5 07                    3703 	.db #0x07	; 7
    000005C6 07                    3704 	.db #0x07	; 7
    000005C7 03                    3705 	.db #0x03	; 3
    000005C8 07                    3706 	.db #0x07	; 7
    000005C9 03                    3707 	.db #0x03	; 3
    000005CA 07                    3708 	.db #0x07	; 7
    000005CB 07                    3709 	.db #0x07	; 7
    000005CC 07                    3710 	.db #0x07	; 7
    000005CD 07                    3711 	.db #0x07	; 7
    000005CE 01                    3712 	.db #0x01	; 1
    000005CF 02                    3713 	.db #0x02	; 2
    000005D0 01                    3714 	.db #0x01	; 1
    000005D1 01                    3715 	.db #0x01	; 1
    000005D2 02                    3716 	.db #0x02	; 2
    000005D3 01                    3717 	.db #0x01	; 1
    000005D4 01                    3718 	.db #0x01	; 1
    000005D5 07                    3719 	.db #0x07	; 7
    000005D6 03                    3720 	.db #0x03	; 3
    000005D7 07                    3721 	.db #0x07	; 7
    000005D8 07                    3722 	.db #0x07	; 7
    000005D9 07                    3723 	.db #0x07	; 7
    000005DA 07                    3724 	.db #0x07	; 7
    000005DB 07                    3725 	.db #0x07	; 7
    000005DC 07                    3726 	.db #0x07	; 7
    000005DD 07                    3727 	.db #0x07	; 7
    000005DE 07                    3728 	.db #0x07	; 7
    000005DF 03                    3729 	.db #0x03	; 3
    000005E0 07                    3730 	.db #0x07	; 7
    000005E1 07                    3731 	.db #0x07	; 7
    000005E2 01                    3732 	.db #0x01	; 1
    000005E3 02                    3733 	.db #0x02	; 2
    000005E4 02                    3734 	.db #0x02	; 2
    000005E5 01                    3735 	.db #0x01	; 1
    000005E6 02                    3736 	.db #0x02	; 2
    000005E7 01                    3737 	.db #0x01	; 1
    000005E8 01                    3738 	.db #0x01	; 1
    000005E9 07                    3739 	.db #0x07	; 7
    000005EA 07                    3740 	.db #0x07	; 7
    000005EB 07                    3741 	.db #0x07	; 7
    000005EC 03                    3742 	.db #0x03	; 3
    000005ED 07                    3743 	.db #0x07	; 7
    000005EE 07                    3744 	.db #0x07	; 7
    000005EF 07                    3745 	.db #0x07	; 7
    000005F0 07                    3746 	.db #0x07	; 7
    000005F1 07                    3747 	.db #0x07	; 7
    000005F2 07                    3748 	.db #0x07	; 7
    000005F3 03                    3749 	.db #0x03	; 3
    000005F4 07                    3750 	.db #0x07	; 7
    000005F5 07                    3751 	.db #0x07	; 7
    000005F6 01                    3752 	.db #0x01	; 1
    000005F7 01                    3753 	.db #0x01	; 1
    000005F8 02                    3754 	.db #0x02	; 2
    000005F9 02                    3755 	.db #0x02	; 2
    000005FA 02                    3756 	.db #0x02	; 2
    000005FB 02                    3757 	.db #0x02	; 2
    000005FC 01                    3758 	.db #0x01	; 1
    000005FD 07                    3759 	.db #0x07	; 7
    000005FE 07                    3760 	.db #0x07	; 7
    000005FF 07                    3761 	.db #0x07	; 7
    00000600 07                    3762 	.db #0x07	; 7
    00000601 07                    3763 	.db #0x07	; 7
    00000602 07                    3764 	.db #0x07	; 7
    00000603 07                    3765 	.db #0x07	; 7
    00000604 03                    3766 	.db #0x03	; 3
    00000605 07                    3767 	.db #0x07	; 7
    00000606 07                    3768 	.db #0x07	; 7
    00000607 07                    3769 	.db #0x07	; 7
    00000608 03                    3770 	.db #0x03	; 3
    00000609 07                    3771 	.db #0x07	; 7
    0000060A 01                    3772 	.db #0x01	; 1
    0000060B 01                    3773 	.db #0x01	; 1
    0000060C 02                    3774 	.db #0x02	; 2
    0000060D 02                    3775 	.db #0x02	; 2
    0000060E 02                    3776 	.db #0x02	; 2
    0000060F 02                    3777 	.db #0x02	; 2
    00000610 01                    3778 	.db #0x01	; 1
    00000611 01                    3779 	.db #0x01	; 1
    00000612 07                    3780 	.db #0x07	; 7
    00000613 07                    3781 	.db #0x07	; 7
    00000614 07                    3782 	.db #0x07	; 7
    00000615 07                    3783 	.db #0x07	; 7
    00000616 07                    3784 	.db #0x07	; 7
    00000617 07                    3785 	.db #0x07	; 7
    00000618 07                    3786 	.db #0x07	; 7
    00000619 07                    3787 	.db #0x07	; 7
    0000061A 07                    3788 	.db #0x07	; 7
    0000061B 07                    3789 	.db #0x07	; 7
    0000061C 07                    3790 	.db #0x07	; 7
    0000061D 07                    3791 	.db #0x07	; 7
    0000061E 07                    3792 	.db #0x07	; 7
    0000061F 01                    3793 	.db #0x01	; 1
    00000620 02                    3794 	.db #0x02	; 2
    00000621 02                    3795 	.db #0x02	; 2
    00000622 02                    3796 	.db #0x02	; 2
    00000623 01                    3797 	.db #0x01	; 1
    00000624 01                    3798 	.db #0x01	; 1
    00000625 01                    3799 	.db #0x01	; 1
    00000626 07                    3800 	.db #0x07	; 7
    00000627 03                    3801 	.db #0x03	; 3
    00000628 07                    3802 	.db #0x07	; 7
    00000629 07                    3803 	.db #0x07	; 7
    0000062A 07                    3804 	.db #0x07	; 7
    0000062B 07                    3805 	.db #0x07	; 7
    0000062C 03                    3806 	.db #0x03	; 3
    0000062D 07                    3807 	.db #0x07	; 7
    0000062E 07                    3808 	.db #0x07	; 7
    0000062F 07                    3809 	.db #0x07	; 7
    00000630 03                    3810 	.db #0x03	; 3
    00000631 07                    3811 	.db #0x07	; 7
    00000632 07                    3812 	.db #0x07	; 7
    00000633 01                    3813 	.db #0x01	; 1
    00000634 01                    3814 	.db #0x01	; 1
    00000635 02                    3815 	.db #0x02	; 2
    00000636 02                    3816 	.db #0x02	; 2
    00000637 02                    3817 	.db #0x02	; 2
    00000638 01                    3818 	.db #0x01	; 1
    00000639 01                    3819 	.db #0x01	; 1
    0000063A 07                    3820 	.db #0x07	; 7
    0000063B 07                    3821 	.db #0x07	; 7
    0000063C 07                    3822 	.db #0x07	; 7
    0000063D 03                    3823 	.db #0x03	; 3
    0000063E 07                    3824 	.db #0x07	; 7
    0000063F 07                    3825 	.db #0x07	; 7
    00000640 07                    3826 	.db #0x07	; 7
    00000641 07                    3827 	.db #0x07	; 7
    00000642 07                    3828 	.db #0x07	; 7
    00000643 07                    3829 	.db #0x07	; 7
    00000644 07                    3830 	.db #0x07	; 7
    00000645 07                    3831 	.db #0x07	; 7
    00000646 07                    3832 	.db #0x07	; 7
    00000647 01                    3833 	.db #0x01	; 1
    00000648 01                    3834 	.db #0x01	; 1
    00000649 02                    3835 	.db #0x02	; 2
    0000064A 02                    3836 	.db #0x02	; 2
    0000064B 02                    3837 	.db #0x02	; 2
    0000064C 02                    3838 	.db #0x02	; 2
    0000064D 01                    3839 	.db #0x01	; 1
    0000064E 07                    3840 	.db #0x07	; 7
    0000064F 03                    3841 	.db #0x03	; 3
    00000650 07                    3842 	.db #0x07	; 7
    00000651 07                    3843 	.db #0x07	; 7
    00000652 07                    3844 	.db #0x07	; 7
    00000653 07                    3845 	.db #0x07	; 7
    00000654 04                    3846 	.db #0x04	; 4
    00000655 07                    3847 	.db #0x07	; 7
    00000656 04                    3848 	.db #0x04	; 4
    00000657 07                    3849 	.db #0x07	; 7
    00000658 07                    3850 	.db #0x07	; 7
    00000659 07                    3851 	.db #0x07	; 7
    0000065A 07                    3852 	.db #0x07	; 7
    0000065B 01                    3853 	.db #0x01	; 1
    0000065C 02                    3854 	.db #0x02	; 2
    0000065D 02                    3855 	.db #0x02	; 2
    0000065E 01                    3856 	.db #0x01	; 1
    0000065F 02                    3857 	.db #0x02	; 2
    00000660 02                    3858 	.db #0x02	; 2
    00000661 01                    3859 	.db #0x01	; 1
    00000662 07                    3860 	.db #0x07	; 7
    00000663 07                    3861 	.db #0x07	; 7
    00000664 07                    3862 	.db #0x07	; 7
    00000665 07                    3863 	.db #0x07	; 7
    00000666 03                    3864 	.db #0x03	; 3
    00000667 07                    3865 	.db #0x07	; 7
    00000668 07                    3866 	.db #0x07	; 7
    00000669 07                    3867 	.db #0x07	; 7
    0000066A 07                    3868 	.db #0x07	; 7
    0000066B 07                    3869 	.db #0x07	; 7
    0000066C 07                    3870 	.db #0x07	; 7
    0000066D 04                    3871 	.db #0x04	; 4
    0000066E 01                    3872 	.db #0x01	; 1
    0000066F 01                    3873 	.db #0x01	; 1
    00000670 02                    3874 	.db #0x02	; 2
    00000671 01                    3875 	.db #0x01	; 1
    00000672 02                    3876 	.db #0x02	; 2
    00000673 02                    3877 	.db #0x02	; 2
    00000674 02                    3878 	.db #0x02	; 2
    00000675 01                    3879 	.db #0x01	; 1
    00000676 07                    3880 	.db #0x07	; 7
    00000677 07                    3881 	.db #0x07	; 7
    00000678 07                    3882 	.db #0x07	; 7
    00000679 07                    3883 	.db #0x07	; 7
    0000067A 07                    3884 	.db #0x07	; 7
    0000067B 07                    3885 	.db #0x07	; 7
    0000067C 07                    3886 	.db #0x07	; 7
    0000067D 07                    3887 	.db #0x07	; 7
    0000067E 07                    3888 	.db #0x07	; 7
    0000067F 04                    3889 	.db #0x04	; 4
    00000680 07                    3890 	.db #0x07	; 7
    00000681 07                    3891 	.db #0x07	; 7
    00000682 01                    3892 	.db #0x01	; 1
    00000683 02                    3893 	.db #0x02	; 2
    00000684 02                    3894 	.db #0x02	; 2
    00000685 01                    3895 	.db #0x01	; 1
    00000686 02                    3896 	.db #0x02	; 2
    00000687 02                    3897 	.db #0x02	; 2
    00000688 01                    3898 	.db #0x01	; 1
    00000689 01                    3899 	.db #0x01	; 1
    0000068A 07                    3900 	.db #0x07	; 7
    0000068B 04                    3901 	.db #0x04	; 4
    0000068C 07                    3902 	.db #0x07	; 7
    0000068D 07                    3903 	.db #0x07	; 7
    0000068E 04                    3904 	.db #0x04	; 4
    0000068F 07                    3905 	.db #0x07	; 7
    00000690 07                    3906 	.db #0x07	; 7
    00000691 07                    3907 	.db #0x07	; 7
    00000692 07                    3908 	.db #0x07	; 7
    00000693 03                    3909 	.db #0x03	; 3
    00000694 07                    3910 	.db #0x07	; 7
    00000695 07                    3911 	.db #0x07	; 7
    00000696 01                    3912 	.db #0x01	; 1
    00000697 01                    3913 	.db #0x01	; 1
    00000698 02                    3914 	.db #0x02	; 2
    00000699 02                    3915 	.db #0x02	; 2
    0000069A 02                    3916 	.db #0x02	; 2
    0000069B 02                    3917 	.db #0x02	; 2
    0000069C 01                    3918 	.db #0x01	; 1
    0000069D 07                    3919 	.db #0x07	; 7
    0000069E 07                    3920 	.db #0x07	; 7
    0000069F 03                    3921 	.db #0x03	; 3
    000006A0 07                    3922 	.db #0x07	; 7
    000006A1 07                    3923 	.db #0x07	; 7
    000006A2 07                    3924 	.db #0x07	; 7
    000006A3 04                    3925 	.db #0x04	; 4
    000006A4 07                    3926 	.db #0x07	; 7
    000006A5 07                    3927 	.db #0x07	; 7
    000006A6 07                    3928 	.db #0x07	; 7
    000006A7 07                    3929 	.db #0x07	; 7
    000006A8 07                    3930 	.db #0x07	; 7
    000006A9 07                    3931 	.db #0x07	; 7
    000006AA 07                    3932 	.db #0x07	; 7
    000006AB 01                    3933 	.db #0x01	; 1
    000006AC 02                    3934 	.db #0x02	; 2
    000006AD 02                    3935 	.db #0x02	; 2
    000006AE 02                    3936 	.db #0x02	; 2
    000006AF 02                    3937 	.db #0x02	; 2
    000006B0 01                    3938 	.db #0x01	; 1
    000006B1 07                    3939 	.db #0x07	; 7
    000006B2 07                    3940 	.db #0x07	; 7
    000006B3 07                    3941 	.db #0x07	; 7
    000006B4 07                    3942 	.db #0x07	; 7
    000006B5 03                    3943 	.db #0x03	; 3
    000006B6 07                    3944 	.db #0x07	; 7
    000006B7 07                    3945 	.db #0x07	; 7
    000006B8 07                    3946 	.db #0x07	; 7
    000006B9 03                    3947 	.db #0x03	; 3
    000006BA 07                    3948 	.db #0x07	; 7
    000006BB 07                    3949 	.db #0x07	; 7
    000006BC 07                    3950 	.db #0x07	; 7
    000006BD 07                    3951 	.db #0x07	; 7
    000006BE 07                    3952 	.db #0x07	; 7
    000006BF 01                    3953 	.db #0x01	; 1
    000006C0 02                    3954 	.db #0x02	; 2
    000006C1 02                    3955 	.db #0x02	; 2
    000006C2 02                    3956 	.db #0x02	; 2
    000006C3 02                    3957 	.db #0x02	; 2
    000006C4 01                    3958 	.db #0x01	; 1
    000006C5 01                    3959 	.db #0x01	; 1
    000006C6 07                    3960 	.db #0x07	; 7
    000006C7 03                    3961 	.db #0x03	; 3
    000006C8 07                    3962 	.db #0x07	; 7
    000006C9 04                    3963 	.db #0x04	; 4
    000006CA 07                    3964 	.db #0x07	; 7
    000006CB 07                    3965 	.db #0x07	; 7
    000006CC 07                    3966 	.db #0x07	; 7
    000006CD 07                    3967 	.db #0x07	; 7
    000006CE 07                    3968 	.db #0x07	; 7
    000006CF 07                    3969 	.db #0x07	; 7
    000006D0 04                    3970 	.db #0x04	; 4
    000006D1 07                    3971 	.db #0x07	; 7
    000006D2 07                    3972 	.db #0x07	; 7
    000006D3 01                    3973 	.db #0x01	; 1
    000006D4 01                    3974 	.db #0x01	; 1
    000006D5 02                    3975 	.db #0x02	; 2
    000006D6 02                    3976 	.db #0x02	; 2
    000006D7 02                    3977 	.db #0x02	; 2
    000006D8 02                    3978 	.db #0x02	; 2
    000006D9 01                    3979 	.db #0x01	; 1
    000006DA 07                    3980 	.db #0x07	; 7
    000006DB 07                    3981 	.db #0x07	; 7
    000006DC 07                    3982 	.db #0x07	; 7
    000006DD 03                    3983 	.db #0x03	; 3
    000006DE 07                    3984 	.db #0x07	; 7
    000006DF 07                    3985 	.db #0x07	; 7
    000006E0 07                    3986 	.db #0x07	; 7
    000006E1 03                    3987 	.db #0x03	; 3
    000006E2 07                    3988 	.db #0x07	; 7
    000006E3 03                    3989 	.db #0x03	; 3
    000006E4 07                    3990 	.db #0x07	; 7
    000006E5 07                    3991 	.db #0x07	; 7
    000006E6 07                    3992 	.db #0x07	; 7
    000006E7 01                    3993 	.db #0x01	; 1
    000006E8 02                    3994 	.db #0x02	; 2
    000006E9 02                    3995 	.db #0x02	; 2
    000006EA 01                    3996 	.db #0x01	; 1
    000006EB 02                    3997 	.db #0x02	; 2
    000006EC 02                    3998 	.db #0x02	; 2
    000006ED 01                    3999 	.db #0x01	; 1
    000006EE 07                    4000 	.db #0x07	; 7
    000006EF 07                    4001 	.db #0x07	; 7
    000006F0 07                    4002 	.db #0x07	; 7
    000006F1 07                    4003 	.db #0x07	; 7
    000006F2 07                    4004 	.db #0x07	; 7
    000006F3 07                    4005 	.db #0x07	; 7
    000006F4 04                    4006 	.db #0x04	; 4
    000006F5 07                    4007 	.db #0x07	; 7
    000006F6 07                    4008 	.db #0x07	; 7
    000006F7 07                    4009 	.db #0x07	; 7
    000006F8 07                    4010 	.db #0x07	; 7
    000006F9 07                    4011 	.db #0x07	; 7
    000006FA 07                    4012 	.db #0x07	; 7
    000006FB 01                    4013 	.db #0x01	; 1
    000006FC 02                    4014 	.db #0x02	; 2
    000006FD 02                    4015 	.db #0x02	; 2
    000006FE 02                    4016 	.db #0x02	; 2
    000006FF 02                    4017 	.db #0x02	; 2
    00000700 01                    4018 	.db #0x01	; 1
    00000701 01                    4019 	.db #0x01	; 1
    00000702 07                    4020 	.db #0x07	; 7
    00000703 04                    4021 	.db #0x04	; 4
    00000704 07                    4022 	.db #0x07	; 7
    00000705 04                    4023 	.db #0x04	; 4
    00000706 07                    4024 	.db #0x07	; 7
    00000707 04                    4025 	.db #0x04	; 4
    00000708 07                    4026 	.db #0x07	; 7
    00000709 07                    4027 	.db #0x07	; 7
    0000070A 07                    4028 	.db #0x07	; 7
    0000070B 04                    4029 	.db #0x04	; 4
    0000070C 07                    4030 	.db #0x07	; 7
    0000070D 07                    4031 	.db #0x07	; 7
    0000070E 01                    4032 	.db #0x01	; 1
    0000070F 01                    4033 	.db #0x01	; 1
    00000710 02                    4034 	.db #0x02	; 2
    00000711 02                    4035 	.db #0x02	; 2
    00000712 02                    4036 	.db #0x02	; 2
    00000713 02                    4037 	.db #0x02	; 2
    00000714 01                    4038 	.db #0x01	; 1
    00000715 07                    4039 	.db #0x07	; 7
    00000716 07                    4040 	.db #0x07	; 7
    00000717 03                    4041 	.db #0x03	; 3
    00000718 07                    4042 	.db #0x07	; 7
    00000719 07                    4043 	.db #0x07	; 7
    0000071A 07                    4044 	.db #0x07	; 7
    0000071B 07                    4045 	.db #0x07	; 7
    0000071C 07                    4046 	.db #0x07	; 7
    0000071D 07                    4047 	.db #0x07	; 7
    0000071E 07                    4048 	.db #0x07	; 7
    0000071F 07                    4049 	.db #0x07	; 7
    00000720 07                    4050 	.db #0x07	; 7
    00000721 07                    4051 	.db #0x07	; 7
    00000722 01                    4052 	.db #0x01	; 1
    00000723 02                    4053 	.db #0x02	; 2
    00000724 02                    4054 	.db #0x02	; 2
    00000725 01                    4055 	.db #0x01	; 1
    00000726 02                    4056 	.db #0x02	; 2
    00000727 01                    4057 	.db #0x01	; 1
    00000728 01                    4058 	.db #0x01	; 1
    00000729 07                    4059 	.db #0x07	; 7
    0000072A 07                    4060 	.db #0x07	; 7
    0000072B 07                    4061 	.db #0x07	; 7
    0000072C 07                    4062 	.db #0x07	; 7
    0000072D 07                    4063 	.db #0x07	; 7
    0000072E 07                    4064 	.db #0x07	; 7
    0000072F 03                    4065 	.db #0x03	; 3
    00000730 07                    4066 	.db #0x07	; 7
    00000731 03                    4067 	.db #0x03	; 3
    00000732 07                    4068 	.db #0x07	; 7
    00000733 07                    4069 	.db #0x07	; 7
    00000734 07                    4070 	.db #0x07	; 7
    00000735 07                    4071 	.db #0x07	; 7
    00000736 01                    4072 	.db #0x01	; 1
    00000737 02                    4073 	.db #0x02	; 2
    00000738 01                    4074 	.db #0x01	; 1
    00000739 01                    4075 	.db #0x01	; 1
    0000073A                       4076 __xinit__player_x:
    0000073A 50 00                 4077 	.dw #0x0050
    0000073C                       4078 __xinit__player_y:
    0000073C 50 00                 4079 	.dw #0x0050
    0000073E                       4080 __xinit__you_win:
    0000073E 00                    4081 	.db #0x00	;  0
    0000073F                       4082 __xinit__path:
    0000073F 00                    4083 	.db #0x00	;  0
    00000740 00                    4084 	.db 0x00
    00000741 00                    4085 	.db 0x00
    00000742 00                    4086 	.db 0x00
    00000743 00                    4087 	.db 0x00
    00000744 00                    4088 	.db 0x00
    00000745 00                    4089 	.db 0x00
    00000746 00                    4090 	.db 0x00
    00000747 00                    4091 	.db 0x00
    00000748 00                    4092 	.db 0x00
    00000749 00                    4093 	.db 0x00
    0000074A 00                    4094 	.db 0x00
    0000074B 00                    4095 	.db 0x00
    0000074C 00                    4096 	.db 0x00
    0000074D 00                    4097 	.db 0x00
    0000074E 00                    4098 	.db 0x00
    0000074F 00                    4099 	.db 0x00
    00000750 00                    4100 	.db 0x00
    00000751 00                    4101 	.db 0x00
    00000752 00                    4102 	.db 0x00
    00000753 00                    4103 	.db 0x00
    00000754 00                    4104 	.db 0x00
    00000755 00                    4105 	.db 0x00
    00000756 00                    4106 	.db 0x00
    00000757 00                    4107 	.db 0x00
    00000758 00                    4108 	.db 0x00
    00000759 00                    4109 	.db 0x00
    0000075A 00                    4110 	.db 0x00
    0000075B 00                    4111 	.db 0x00
    0000075C 00                    4112 	.db 0x00
    0000075D 00                    4113 	.db 0x00
    0000075E 00                    4114 	.db 0x00
    0000075F                       4115 __xinit__path_hash:
    0000075F 19                    4116 	.db #0x19	;  25
    00000760 19                    4117 	.db #0x19	;  25
    00000761 08                    4118 	.db #0x08	;  8
    00000762 16                    4119 	.db #0x16	;  22
    00000763 07                    4120 	.db #0x07	;  7
    00000764 00                    4121 	.db #0x00	;  0
    00000765 19                    4122 	.db #0x19	;  25
    00000766 11                    4123 	.db #0x11	;  17
    00000767 08                    4124 	.db #0x08	;  8
    00000768 16                    4125 	.db #0x16	;  22
    00000769 11                    4126 	.db #0x11	;  17
    0000076A 19                    4127 	.db #0x19	;  25
    0000076B 00                    4128 	.db #0x00	;  0
    0000076C 1E                    4129 	.db #0x1e	;  30
    0000076D 07                    4130 	.db #0x07	;  7
    0000076E 11                    4131 	.db #0x11	;  17
    0000076F                       4132 __xinit__path_num:
    0000076F 00                    4133 	.db #0x00	;  0
    00000770                       4134 __xinit__time:
    00000770 00 00                 4135 	.dw #0x0000
    00000772                       4136 __xinit__player_sprite_id:
    00000772 00 00                 4137 	.dw #0x0000
                                   4138 	.area _CABS (ABS)
