;--------------------------------------------------------
; File Created by SDCC : free open source ISO C Compiler 
; Version 4.4.1 #14650 (Linux)
;--------------------------------------------------------
	.module main
	.optsdcc -msm83
	
;--------------------------------------------------------
; Public variables in this module
;--------------------------------------------------------
	.globl _main
	.globl _update_room
	.globl _win_room
	.globl _set_mid_room
	.globl _draw_player
	.globl _update_player
	.globl _test_win
	.globl _update_path
	.globl _get_bkg_tile_from_pos
	.globl _set_end_screen
	.globl _window_lose
	.globl _window_win
	.globl _set_start_screen
	.globl _set_start_room
	.globl _print_text
	.globl _gotogxy
	.globl _gprintf
	.globl _set_sprite_data
	.globl _set_win_tiles
	.globl _set_bkg_tiles
	.globl _set_bkg_data
	.globl _vsync
	.globl _joypad
	.globl _player_sprite_id
	.globl _time
	.globl _path_num
	.globl _path_hash
	.globl _path
	.globl _you_win
	.globl _player_y
	.globl _player_x
	.globl _start_screen
	.globl _current_room
	.globl _room_3
	.globl _room_2
	.globl _room_1
	.globl _sprite_tiles
	.globl _lose_map
	.globl _win_map
	.globl _window_map
	.globl _background_tileset
;--------------------------------------------------------
; special function registers
;--------------------------------------------------------
;--------------------------------------------------------
; ram data
;--------------------------------------------------------
	.area _DATA
;--------------------------------------------------------
; ram data
;--------------------------------------------------------
	.area _INITIALIZED
_sprite_tiles::
	.ds 48
_room_1::
	.ds 360
_room_2::
	.ds 360
_room_3::
	.ds 360
_current_room::
	.ds 2
_start_screen::
	.ds 720
_player_x::
	.ds 2
_player_y::
	.ds 2
_you_win::
	.ds 1
_path::
	.ds 32
_path_hash::
	.ds 16
_path_num::
	.ds 1
_time::
	.ds 2
_player_sprite_id::
	.ds 2
;--------------------------------------------------------
; absolute external ram data
;--------------------------------------------------------
	.area _DABS (ABS)
;--------------------------------------------------------
; global & static initialisations
;--------------------------------------------------------
	.area _HOME
	.area _GSINIT
	.area _GSFINAL
	.area _GSINIT
;--------------------------------------------------------
; Home
;--------------------------------------------------------
	.area _HOME
	.area _HOME
;--------------------------------------------------------
; code
;--------------------------------------------------------
	.area _CODE
;main.c:99: void print_text(char *text, int x, int y) {
;	---------------------------------
; Function print_text
; ---------------------------------
_print_text::
;main.c:100: gotogxy(x, y);
	ldhl	sp,	#2
	ld	a, (hl)
	push	de
	ld	b, a
	push	bc
	call	_gotogxy
	pop	hl
	ld	de, #___str_0
	push	de
	call	_gprintf
	add	sp, #4
;main.c:102: gotogxy(0, 0);
	xor	a, a
	rrca
	push	af
	call	_gotogxy
	pop	hl
;main.c:103: }
	pop	hl
	pop	af
	jp	(hl)
_background_tileset:
	.db #0x00	; 0
	.db #0x00	; 0
	.db #0x00	; 0
	.db #0x00	; 0
	.db #0x00	; 0
	.db #0x00	; 0
	.db #0x00	; 0
	.db #0x00	; 0
	.db #0x00	; 0
	.db #0x00	; 0
	.db #0x00	; 0
	.db #0x00	; 0
	.db #0x00	; 0
	.db #0x00	; 0
	.db #0x00	; 0
	.db #0x00	; 0
	.db #0x6a	; 106	'j'
	.db #0xbf	; 191
	.db #0x53	; 83	'S'
	.db #0xed	; 237
	.db #0xdd	; 221
	.db #0xba	; 186
	.db #0x21	; 33
	.db #0xff	; 255
	.db #0x36	; 54	'6'
	.db #0xcd	; 205
	.db #0x4a	; 74	'J'
	.db #0xff	; 255
	.db #0x6a	; 106	'j'
	.db #0xbf	; 191
	.db #0xa3	; 163
	.db #0xfd	; 253
	.db #0xb7	; 183
	.db #0xff	; 255
	.db #0xbe	; 190
	.db #0xff	; 255
	.db #0xd9	; 217
	.db #0xff	; 255
	.db #0xcf	; 207
	.db #0xff	; 255
	.db #0xff	; 255
	.db #0xff	; 255
	.db #0x99	; 153
	.db #0xff	; 255
	.db #0x6d	; 109	'm'
	.db #0xff	; 255
	.db #0xee	; 238
	.db #0xff	; 255
	.db #0x89	; 137
	.db #0x00	; 0
	.db #0x00	; 0
	.db #0x00	; 0
	.db #0x22	; 34
	.db #0x00	; 0
	.db #0xa8	; 168
	.db #0x00	; 0
	.db #0x01	; 1
	.db #0x10	; 16
	.db #0x41	; 65	'A'
	.db #0x10	; 16
	.db #0x08	; 8
	.db #0x4a	; 74	'J'
	.db #0x2a	; 42
	.db #0x2a	; 42
	.db #0x04	; 4
	.db #0x00	; 0
	.db #0x40	; 64
	.db #0x00	; 0
	.db #0x12	; 18
	.db #0x00	; 0
	.db #0x80	; 128
	.db #0x00	; 0
	.db #0x02	; 2
	.db #0x00	; 0
	.db #0x28	; 40
	.db #0x01	; 1
	.db #0x00	; 0
	.db #0x49	; 73	'I'
	.db #0x49	; 73	'I'
	.db #0x49	; 73	'I'
	.db #0x00	; 0
	.db #0x00	; 0
	.db #0x00	; 0
	.db #0x00	; 0
	.db #0x00	; 0
	.db #0x00	; 0
	.db #0x00	; 0
	.db #0x00	; 0
	.db #0x00	; 0
	.db #0x00	; 0
	.db #0x00	; 0
	.db #0x00	; 0
	.db #0x00	; 0
	.db #0x00	; 0
	.db #0x00	; 0
	.db #0x00	; 0
	.db #0x00	; 0
	.db #0x00	; 0
	.db #0x00	; 0
	.db #0x00	; 0
	.db #0x00	; 0
	.db #0x00	; 0
	.db #0x00	; 0
	.db #0x00	; 0
	.db #0x00	; 0
	.db #0x00	; 0
	.db #0x00	; 0
	.db #0x00	; 0
	.db #0x00	; 0
	.db #0x00	; 0
	.db #0x00	; 0
	.db #0x00	; 0
	.db #0x88	; 136
	.db #0x00	; 0
	.db #0x00	; 0
	.db #0x00	; 0
	.db #0x00	; 0
	.db #0x00	; 0
	.db #0x22	; 34
	.db #0x00	; 0
	.db #0x00	; 0
	.db #0x00	; 0
	.db #0x84	; 132
	.db #0x00	; 0
	.db #0x20	; 32
	.db #0x00	; 0
	.db #0x00	; 0
	.db #0x00	; 0
	.db #0x08	; 8
	.db #0x00	; 0
	.db #0x80	; 128
	.db #0x00	; 0
	.db #0x20	; 32
	.db #0x00	; 0
	.db #0x01	; 1
	.db #0x00	; 0
	.db #0x00	; 0
	.db #0x00	; 0
	.db #0x20	; 32
	.db #0x00	; 0
	.db #0x02	; 2
	.db #0x00	; 0
	.db #0x80	; 128
	.db #0x00	; 0
	.db #0x3c	; 60
	.db #0x3c	; 60
	.db #0x66	; 102	'f'
	.db #0x66	; 102	'f'
	.db #0x66	; 102	'f'
	.db #0x66	; 102	'f'
	.db #0x7e	; 126
	.db #0x7e	; 126
	.db #0x66	; 102	'f'
	.db #0x66	; 102	'f'
	.db #0x66	; 102	'f'
	.db #0x66	; 102	'f'
	.db #0x66	; 102	'f'
	.db #0x66	; 102	'f'
	.db #0x00	; 0
	.db #0x00	; 0
	.db #0x7c	; 124
	.db #0x7c	; 124
	.db #0x66	; 102	'f'
	.db #0x66	; 102	'f'
	.db #0x66	; 102	'f'
	.db #0x66	; 102	'f'
	.db #0x7c	; 124
	.db #0x7c	; 124
	.db #0x66	; 102	'f'
	.db #0x66	; 102	'f'
	.db #0x66	; 102	'f'
	.db #0x66	; 102	'f'
	.db #0x7c	; 124
	.db #0x7c	; 124
	.db #0x00	; 0
	.db #0x00	; 0
	.db #0x3c	; 60
	.db #0x3c	; 60
	.db #0x62	; 98	'b'
	.db #0x62	; 98	'b'
	.db #0x60	; 96
	.db #0x60	; 96
	.db #0x60	; 96
	.db #0x60	; 96
	.db #0x60	; 96
	.db #0x60	; 96
	.db #0x62	; 98	'b'
	.db #0x62	; 98	'b'
	.db #0x3c	; 60
	.db #0x3c	; 60
	.db #0x00	; 0
	.db #0x00	; 0
	.db #0x7c	; 124
	.db #0x7c	; 124
	.db #0x66	; 102	'f'
	.db #0x66	; 102	'f'
	.db #0x66	; 102	'f'
	.db #0x66	; 102	'f'
	.db #0x66	; 102	'f'
	.db #0x66	; 102	'f'
	.db #0x66	; 102	'f'
	.db #0x66	; 102	'f'
	.db #0x66	; 102	'f'
	.db #0x66	; 102	'f'
	.db #0x7c	; 124
	.db #0x7c	; 124
	.db #0x00	; 0
	.db #0x00	; 0
	.db #0x7e	; 126
	.db #0x7e	; 126
	.db #0x60	; 96
	.db #0x60	; 96
	.db #0x60	; 96
	.db #0x60	; 96
	.db #0x7c	; 124
	.db #0x7c	; 124
	.db #0x60	; 96
	.db #0x60	; 96
	.db #0x60	; 96
	.db #0x60	; 96
	.db #0x7e	; 126
	.db #0x7e	; 126
	.db #0x00	; 0
	.db #0x00	; 0
	.db #0x7e	; 126
	.db #0x7e	; 126
	.db #0x60	; 96
	.db #0x60	; 96
	.db #0x60	; 96
	.db #0x60	; 96
	.db #0x7c	; 124
	.db #0x7c	; 124
	.db #0x60	; 96
	.db #0x60	; 96
	.db #0x60	; 96
	.db #0x60	; 96
	.db #0x60	; 96
	.db #0x60	; 96
	.db #0x00	; 0
	.db #0x00	; 0
	.db #0x3c	; 60
	.db #0x3c	; 60
	.db #0x62	; 98	'b'
	.db #0x62	; 98	'b'
	.db #0x60	; 96
	.db #0x60	; 96
	.db #0x6e	; 110	'n'
	.db #0x6e	; 110	'n'
	.db #0x66	; 102	'f'
	.db #0x66	; 102	'f'
	.db #0x66	; 102	'f'
	.db #0x66	; 102	'f'
	.db #0x3e	; 62
	.db #0x3e	; 62
	.db #0x00	; 0
	.db #0x00	; 0
	.db #0x66	; 102	'f'
	.db #0x66	; 102	'f'
	.db #0x66	; 102	'f'
	.db #0x66	; 102	'f'
	.db #0x66	; 102	'f'
	.db #0x66	; 102	'f'
	.db #0x7e	; 126
	.db #0x7e	; 126
	.db #0x66	; 102	'f'
	.db #0x66	; 102	'f'
	.db #0x66	; 102	'f'
	.db #0x66	; 102	'f'
	.db #0x66	; 102	'f'
	.db #0x66	; 102	'f'
	.db #0x00	; 0
	.db #0x00	; 0
	.db #0x18	; 24
	.db #0x18	; 24
	.db #0x18	; 24
	.db #0x18	; 24
	.db #0x18	; 24
	.db #0x18	; 24
	.db #0x18	; 24
	.db #0x18	; 24
	.db #0x18	; 24
	.db #0x18	; 24
	.db #0x18	; 24
	.db #0x18	; 24
	.db #0x18	; 24
	.db #0x18	; 24
	.db #0x00	; 0
	.db #0x00	; 0
	.db #0x06	; 6
	.db #0x06	; 6
	.db #0x06	; 6
	.db #0x06	; 6
	.db #0x06	; 6
	.db #0x06	; 6
	.db #0x06	; 6
	.db #0x06	; 6
	.db #0x06	; 6
	.db #0x06	; 6
	.db #0x46	; 70	'F'
	.db #0x46	; 70	'F'
	.db #0x3c	; 60
	.db #0x3c	; 60
	.db #0x00	; 0
	.db #0x00	; 0
	.db #0x66	; 102	'f'
	.db #0x66	; 102	'f'
	.db #0x6c	; 108	'l'
	.db #0x6c	; 108	'l'
	.db #0x78	; 120	'x'
	.db #0x78	; 120	'x'
	.db #0x70	; 112	'p'
	.db #0x70	; 112	'p'
	.db #0x78	; 120	'x'
	.db #0x78	; 120	'x'
	.db #0x6c	; 108	'l'
	.db #0x6c	; 108	'l'
	.db #0x66	; 102	'f'
	.db #0x66	; 102	'f'
	.db #0x00	; 0
	.db #0x00	; 0
	.db #0x60	; 96
	.db #0x60	; 96
	.db #0x60	; 96
	.db #0x60	; 96
	.db #0x60	; 96
	.db #0x60	; 96
	.db #0x60	; 96
	.db #0x60	; 96
	.db #0x60	; 96
	.db #0x60	; 96
	.db #0x60	; 96
	.db #0x60	; 96
	.db #0x7c	; 124
	.db #0x7c	; 124
	.db #0x00	; 0
	.db #0x00	; 0
	.db #0xfc	; 252
	.db #0xfc	; 252
	.db #0xd6	; 214
	.db #0xd6	; 214
	.db #0xd6	; 214
	.db #0xd6	; 214
	.db #0xd6	; 214
	.db #0xd6	; 214
	.db #0xd6	; 214
	.db #0xd6	; 214
	.db #0xc6	; 198
	.db #0xc6	; 198
	.db #0xc6	; 198
	.db #0xc6	; 198
	.db #0x00	; 0
	.db #0x00	; 0
	.db #0x62	; 98	'b'
	.db #0x62	; 98	'b'
	.db #0x72	; 114	'r'
	.db #0x72	; 114	'r'
	.db #0x7a	; 122	'z'
	.db #0x7a	; 122	'z'
	.db #0x5e	; 94
	.db #0x5e	; 94
	.db #0x4e	; 78	'N'
	.db #0x4e	; 78	'N'
	.db #0x46	; 70	'F'
	.db #0x46	; 70	'F'
	.db #0x42	; 66	'B'
	.db #0x42	; 66	'B'
	.db #0x00	; 0
	.db #0x00	; 0
	.db #0x3c	; 60
	.db #0x3c	; 60
	.db #0x66	; 102	'f'
	.db #0x66	; 102	'f'
	.db #0x66	; 102	'f'
	.db #0x66	; 102	'f'
	.db #0x66	; 102	'f'
	.db #0x66	; 102	'f'
	.db #0x66	; 102	'f'
	.db #0x66	; 102	'f'
	.db #0x66	; 102	'f'
	.db #0x66	; 102	'f'
	.db #0x3c	; 60
	.db #0x3c	; 60
	.db #0x00	; 0
	.db #0x00	; 0
	.db #0x7c	; 124
	.db #0x7c	; 124
	.db #0x66	; 102	'f'
	.db #0x66	; 102	'f'
	.db #0x66	; 102	'f'
	.db #0x66	; 102	'f'
	.db #0x7c	; 124
	.db #0x7c	; 124
	.db #0x60	; 96
	.db #0x60	; 96
	.db #0x60	; 96
	.db #0x60	; 96
	.db #0x60	; 96
	.db #0x60	; 96
	.db #0x00	; 0
	.db #0x00	; 0
	.db #0x3c	; 60
	.db #0x3c	; 60
	.db #0x66	; 102	'f'
	.db #0x66	; 102	'f'
	.db #0x66	; 102	'f'
	.db #0x66	; 102	'f'
	.db #0x66	; 102	'f'
	.db #0x66	; 102	'f'
	.db #0x66	; 102	'f'
	.db #0x66	; 102	'f'
	.db #0x66	; 102	'f'
	.db #0x66	; 102	'f'
	.db #0x3c	; 60
	.db #0x3c	; 60
	.db #0x06	; 6
	.db #0x06	; 6
	.db #0x7c	; 124
	.db #0x7c	; 124
	.db #0x66	; 102	'f'
	.db #0x66	; 102	'f'
	.db #0x66	; 102	'f'
	.db #0x66	; 102	'f'
	.db #0x7c	; 124
	.db #0x7c	; 124
	.db #0x66	; 102	'f'
	.db #0x66	; 102	'f'
	.db #0x66	; 102	'f'
	.db #0x66	; 102	'f'
	.db #0x66	; 102	'f'
	.db #0x66	; 102	'f'
	.db #0x00	; 0
	.db #0x00	; 0
	.db #0x3c	; 60
	.db #0x3c	; 60
	.db #0x62	; 98	'b'
	.db #0x62	; 98	'b'
	.db #0x70	; 112	'p'
	.db #0x70	; 112	'p'
	.db #0x3c	; 60
	.db #0x3c	; 60
	.db #0x0e	; 14
	.db #0x0e	; 14
	.db #0x46	; 70	'F'
	.db #0x46	; 70	'F'
	.db #0x3c	; 60
	.db #0x3c	; 60
	.db #0x00	; 0
	.db #0x00	; 0
	.db #0x7e	; 126
	.db #0x7e	; 126
	.db #0x18	; 24
	.db #0x18	; 24
	.db #0x18	; 24
	.db #0x18	; 24
	.db #0x18	; 24
	.db #0x18	; 24
	.db #0x18	; 24
	.db #0x18	; 24
	.db #0x18	; 24
	.db #0x18	; 24
	.db #0x18	; 24
	.db #0x18	; 24
	.db #0x00	; 0
	.db #0x00	; 0
	.db #0x66	; 102	'f'
	.db #0x66	; 102	'f'
	.db #0x66	; 102	'f'
	.db #0x66	; 102	'f'
	.db #0x66	; 102	'f'
	.db #0x66	; 102	'f'
	.db #0x66	; 102	'f'
	.db #0x66	; 102	'f'
	.db #0x66	; 102	'f'
	.db #0x66	; 102	'f'
	.db #0x66	; 102	'f'
	.db #0x66	; 102	'f'
	.db #0x3c	; 60
	.db #0x3c	; 60
	.db #0x00	; 0
	.db #0x00	; 0
	.db #0x66	; 102	'f'
	.db #0x66	; 102	'f'
	.db #0x66	; 102	'f'
	.db #0x66	; 102	'f'
	.db #0x66	; 102	'f'
	.db #0x66	; 102	'f'
	.db #0x66	; 102	'f'
	.db #0x66	; 102	'f'
	.db #0x66	; 102	'f'
	.db #0x66	; 102	'f'
	.db #0x64	; 100	'd'
	.db #0x64	; 100	'd'
	.db #0x78	; 120	'x'
	.db #0x78	; 120	'x'
	.db #0x00	; 0
	.db #0x00	; 0
	.db #0xc6	; 198
	.db #0xc6	; 198
	.db #0xc6	; 198
	.db #0xc6	; 198
	.db #0xc6	; 198
	.db #0xc6	; 198
	.db #0xd6	; 214
	.db #0xd6	; 214
	.db #0xd6	; 214
	.db #0xd6	; 214
	.db #0xd6	; 214
	.db #0xd6	; 214
	.db #0xfc	; 252
	.db #0xfc	; 252
	.db #0x00	; 0
	.db #0x00	; 0
	.db #0x66	; 102	'f'
	.db #0x66	; 102	'f'
	.db #0x66	; 102	'f'
	.db #0x66	; 102	'f'
	.db #0x66	; 102	'f'
	.db #0x66	; 102	'f'
	.db #0x3c	; 60
	.db #0x3c	; 60
	.db #0x66	; 102	'f'
	.db #0x66	; 102	'f'
	.db #0x66	; 102	'f'
	.db #0x66	; 102	'f'
	.db #0x66	; 102	'f'
	.db #0x66	; 102	'f'
	.db #0x00	; 0
	.db #0x00	; 0
	.db #0x66	; 102	'f'
	.db #0x66	; 102	'f'
	.db #0x66	; 102	'f'
	.db #0x66	; 102	'f'
	.db #0x66	; 102	'f'
	.db #0x66	; 102	'f'
	.db #0x3c	; 60
	.db #0x3c	; 60
	.db #0x18	; 24
	.db #0x18	; 24
	.db #0x18	; 24
	.db #0x18	; 24
	.db #0x18	; 24
	.db #0x18	; 24
	.db #0x00	; 0
	.db #0x00	; 0
	.db #0x7e	; 126
	.db #0x7e	; 126
	.db #0x0e	; 14
	.db #0x0e	; 14
	.db #0x1c	; 28
	.db #0x1c	; 28
	.db #0x38	; 56	'8'
	.db #0x38	; 56	'8'
	.db #0x70	; 112	'p'
	.db #0x70	; 112	'p'
	.db #0x60	; 96
	.db #0x60	; 96
	.db #0x7e	; 126
	.db #0x7e	; 126
	.db #0x00	; 0
	.db #0x00	; 0
	.db #0x3c	; 60
	.db #0x3c	; 60
	.db #0x66	; 102	'f'
	.db #0x66	; 102	'f'
	.db #0x6e	; 110	'n'
	.db #0x6e	; 110	'n'
	.db #0x76	; 118	'v'
	.db #0x76	; 118	'v'
	.db #0x66	; 102	'f'
	.db #0x66	; 102	'f'
	.db #0x66	; 102	'f'
	.db #0x66	; 102	'f'
	.db #0x3c	; 60
	.db #0x3c	; 60
	.db #0x00	; 0
	.db #0x00	; 0
	.db #0x18	; 24
	.db #0x18	; 24
	.db #0x38	; 56	'8'
	.db #0x38	; 56	'8'
	.db #0x18	; 24
	.db #0x18	; 24
	.db #0x18	; 24
	.db #0x18	; 24
	.db #0x18	; 24
	.db #0x18	; 24
	.db #0x18	; 24
	.db #0x18	; 24
	.db #0x18	; 24
	.db #0x18	; 24
	.db #0x00	; 0
	.db #0x00	; 0
	.db #0x3c	; 60
	.db #0x3c	; 60
	.db #0x66	; 102	'f'
	.db #0x66	; 102	'f'
	.db #0x0e	; 14
	.db #0x0e	; 14
	.db #0x1c	; 28
	.db #0x1c	; 28
	.db #0x38	; 56	'8'
	.db #0x38	; 56	'8'
	.db #0x70	; 112	'p'
	.db #0x70	; 112	'p'
	.db #0x7e	; 126
	.db #0x7e	; 126
	.db #0x00	; 0
	.db #0x00	; 0
	.db #0x7e	; 126
	.db #0x7e	; 126
	.db #0x0c	; 12
	.db #0x0c	; 12
	.db #0x18	; 24
	.db #0x18	; 24
	.db #0x3c	; 60
	.db #0x3c	; 60
	.db #0x06	; 6
	.db #0x06	; 6
	.db #0x46	; 70	'F'
	.db #0x46	; 70	'F'
	.db #0x3c	; 60
	.db #0x3c	; 60
	.db #0x00	; 0
	.db #0x00	; 0
	.db #0x0c	; 12
	.db #0x0c	; 12
	.db #0x1c	; 28
	.db #0x1c	; 28
	.db #0x2c	; 44
	.db #0x2c	; 44
	.db #0x4c	; 76	'L'
	.db #0x4c	; 76	'L'
	.db #0x7e	; 126
	.db #0x7e	; 126
	.db #0x0c	; 12
	.db #0x0c	; 12
	.db #0x0c	; 12
	.db #0x0c	; 12
	.db #0x00	; 0
	.db #0x00	; 0
	.db #0x7e	; 126
	.db #0x7e	; 126
	.db #0x60	; 96
	.db #0x60	; 96
	.db #0x7c	; 124
	.db #0x7c	; 124
	.db #0x06	; 6
	.db #0x06	; 6
	.db #0x06	; 6
	.db #0x06	; 6
	.db #0x46	; 70	'F'
	.db #0x46	; 70	'F'
	.db #0x3c	; 60
	.db #0x3c	; 60
	.db #0x00	; 0
	.db #0x00	; 0
	.db #0x1c	; 28
	.db #0x1c	; 28
	.db #0x20	; 32
	.db #0x20	; 32
	.db #0x60	; 96
	.db #0x60	; 96
	.db #0x7c	; 124
	.db #0x7c	; 124
	.db #0x66	; 102	'f'
	.db #0x66	; 102	'f'
	.db #0x66	; 102	'f'
	.db #0x66	; 102	'f'
	.db #0x3c	; 60
	.db #0x3c	; 60
	.db #0x00	; 0
	.db #0x00	; 0
	.db #0x7e	; 126
	.db #0x7e	; 126
	.db #0x06	; 6
	.db #0x06	; 6
	.db #0x0e	; 14
	.db #0x0e	; 14
	.db #0x1c	; 28
	.db #0x1c	; 28
	.db #0x18	; 24
	.db #0x18	; 24
	.db #0x18	; 24
	.db #0x18	; 24
	.db #0x18	; 24
	.db #0x18	; 24
	.db #0x00	; 0
	.db #0x00	; 0
	.db #0x3c	; 60
	.db #0x3c	; 60
	.db #0x66	; 102	'f'
	.db #0x66	; 102	'f'
	.db #0x66	; 102	'f'
	.db #0x66	; 102	'f'
	.db #0x3c	; 60
	.db #0x3c	; 60
	.db #0x66	; 102	'f'
	.db #0x66	; 102	'f'
	.db #0x66	; 102	'f'
	.db #0x66	; 102	'f'
	.db #0x3c	; 60
	.db #0x3c	; 60
	.db #0x00	; 0
	.db #0x00	; 0
	.db #0x3c	; 60
	.db #0x3c	; 60
	.db #0x66	; 102	'f'
	.db #0x66	; 102	'f'
	.db #0x66	; 102	'f'
	.db #0x66	; 102	'f'
	.db #0x3e	; 62
	.db #0x3e	; 62
	.db #0x06	; 6
	.db #0x06	; 6
	.db #0x0c	; 12
	.db #0x0c	; 12
	.db #0x38	; 56	'8'
	.db #0x38	; 56	'8'
	.db #0x00	; 0
	.db #0x00	; 0
	.db #0x18	; 24
	.db #0x18	; 24
	.db #0x18	; 24
	.db #0x18	; 24
	.db #0x10	; 16
	.db #0x10	; 16
	.db #0x00	; 0
	.db #0x00	; 0
	.db #0x00	; 0
	.db #0x00	; 0
	.db #0x00	; 0
	.db #0x00	; 0
	.db #0x00	; 0
	.db #0x00	; 0
	.db #0x00	; 0
	.db #0x00	; 0
	.db #0x00	; 0
	.db #0x00	; 0
	.db #0x00	; 0
	.db #0x00	; 0
	.db #0x00	; 0
	.db #0x00	; 0
	.db #0x3c	; 60
	.db #0x3c	; 60
	.db #0x00	; 0
	.db #0x00	; 0
	.db #0x00	; 0
	.db #0x00	; 0
	.db #0x00	; 0
	.db #0x00	; 0
	.db #0x00	; 0
	.db #0x00	; 0
	.db #0x00	; 0
	.db #0x00	; 0
	.db #0x00	; 0
	.db #0x00	; 0
	.db #0x00	; 0
	.db #0x00	; 0
	.db #0x00	; 0
	.db #0x00	; 0
	.db #0x00	; 0
	.db #0x00	; 0
	.db #0x18	; 24
	.db #0x18	; 24
	.db #0x18	; 24
	.db #0x18	; 24
	.db #0x00	; 0
	.db #0x00	; 0
	.db #0x00	; 0
	.db #0x00	; 0
	.db #0x00	; 0
	.db #0x00	; 0
	.db #0x00	; 0
	.db #0x00	; 0
	.db #0x00	; 0
	.db #0x00	; 0
	.db #0x00	; 0
	.db #0x00	; 0
	.db #0x30	; 48	'0'
	.db #0x30	; 48	'0'
	.db #0x30	; 48	'0'
	.db #0x30	; 48	'0'
	.db #0x20	; 32
	.db #0x20	; 32
	.db #0x00	; 0
	.db #0x00	; 0
	.db #0x18	; 24
	.db #0x18	; 24
	.db #0x18	; 24
	.db #0x18	; 24
	.db #0x00	; 0
	.db #0x00	; 0
	.db #0x00	; 0
	.db #0x00	; 0
	.db #0x18	; 24
	.db #0x18	; 24
	.db #0x18	; 24
	.db #0x18	; 24
	.db #0x00	; 0
	.db #0x00	; 0
	.db #0x18	; 24
	.db #0x18	; 24
	.db #0x18	; 24
	.db #0x18	; 24
	.db #0x18	; 24
	.db #0x18	; 24
	.db #0x18	; 24
	.db #0x18	; 24
	.db #0x18	; 24
	.db #0x18	; 24
	.db #0x00	; 0
	.db #0x00	; 0
	.db #0x18	; 24
	.db #0x18	; 24
	.db #0x00	; 0
	.db #0x00	; 0
	.db #0x3c	; 60
	.db #0x3c	; 60
	.db #0x46	; 70	'F'
	.db #0x46	; 70	'F'
	.db #0x06	; 6
	.db #0x06	; 6
	.db #0x0c	; 12
	.db #0x0c	; 12
	.db #0x18	; 24
	.db #0x18	; 24
	.db #0x18	; 24
	.db #0x18	; 24
	.db #0x00	; 0
	.db #0x00	; 0
	.db #0x18	; 24
	.db #0x18	; 24
	.db #0x04	; 4
	.db #0x04	; 4
	.db #0x08	; 8
	.db #0x08	; 8
	.db #0x18	; 24
	.db #0x18	; 24
	.db #0x18	; 24
	.db #0x18	; 24
	.db #0x18	; 24
	.db #0x18	; 24
	.db #0x18	; 24
	.db #0x18	; 24
	.db #0x08	; 8
	.db #0x08	; 8
	.db #0x04	; 4
	.db #0x04	; 4
	.db #0x20	; 32
	.db #0x20	; 32
	.db #0x10	; 16
	.db #0x10	; 16
	.db #0x18	; 24
	.db #0x18	; 24
	.db #0x18	; 24
	.db #0x18	; 24
	.db #0x18	; 24
	.db #0x18	; 24
	.db #0x18	; 24
	.db #0x18	; 24
	.db #0x10	; 16
	.db #0x10	; 16
	.db #0x20	; 32
	.db #0x20	; 32
	.db #0x00	; 0
	.db #0xfe	; 254
	.db #0x7c	; 124
	.db #0x82	; 130
	.db #0x7c	; 124
	.db #0x82	; 130
	.db #0x7c	; 124
	.db #0x82	; 130
	.db #0x7c	; 124
	.db #0x82	; 130
	.db #0x7c	; 124
	.db #0x82	; 130
	.db #0x00	; 0
	.db #0xfe	; 254
	.db #0x00	; 0
	.db #0x00	; 0
	.db #0xff	; 255
	.db #0xff	; 255
	.db #0x00	; 0
	.db #0x00	; 0
	.db #0xff	; 255
	.db #0xff	; 255
	.db #0xff	; 255
	.db #0xff	; 255
	.db #0x00	; 0
	.db #0x00	; 0
	.db #0x00	; 0
	.db #0x00	; 0
	.db #0x00	; 0
	.db #0x00	; 0
	.db #0x00	; 0
	.db #0x00	; 0
	.db #0x00	; 0
	.db #0x00	; 0
	.db #0x00	; 0
	.db #0x00	; 0
	.db #0x00	; 0
	.db #0x00	; 0
	.db #0x00	; 0
	.db #0x00	; 0
	.db #0x00	; 0
	.db #0x00	; 0
	.db #0x00	; 0
	.db #0x00	; 0
	.db #0x00	; 0
	.db #0x00	; 0
	.db #0x00	; 0
	.db #0x00	; 0
___str_0:
	.ascii "%s"
	.db 0x00
;main.c:123: void set_start_room() {
;	---------------------------------
; Function set_start_room
; ---------------------------------
_set_start_room::
;main.c:124: current_room = room_1;
	ld	bc, #_room_1+0
	ld	hl, #_current_room
	ld	a, c
	ld	(hl+), a
	ld	(hl), b
;main.c:125: set_bkg_tiles(0, 0, 20, 18, room_1);
	push	bc
	ld	hl, #0x1214
	push	hl
	xor	a, a
	rrca
	push	af
	call	_set_bkg_tiles
	add	sp, #6
;main.c:126: }
	ret
_window_map:
	.db #0xc8	; 200
	.db #0x18	; 24
	.db #0x1a	; 26
	.db #0x0d	; 13
	.db #0x1b	; 27
	.db #0x1b	; 27
	.db #0xc8	; 200
	.db #0x13	; 19
	.db #0x0d	; 13
	.db #0x21	; 33
	.db #0xc8	; 200
	.db #0x1c	; 28
	.db #0x17	; 23
	.db #0xc8	; 200
	.db #0x1b	; 27
	.db #0x1c	; 28
	.db #0x09	; 9
	.db #0x1a	; 26
	.db #0x1c	; 28
_win_map:
	.db #0xc8	; 200
	.db #0xc8	; 200
	.db #0xc8	; 200
	.db #0xc8	; 200
	.db #0xc8	; 200
	.db #0xc8	; 200
	.db #0x21	; 33
	.db #0x17	; 23
	.db #0x1d	; 29
	.db #0xc8	; 200
	.db #0x1f	; 31
	.db #0x11	; 17
	.db #0x16	; 22
	.db #0xc8	; 200
	.db #0x32	; 50	'2'
	.db #0xc8	; 200
	.db #0xc8	; 200
	.db #0xc8	; 200
	.db #0xc8	; 200
_lose_map:
	.db #0xc8	; 200
	.db #0xc8	; 200
	.db #0xc8	; 200
	.db #0xc8	; 200
	.db #0xc8	; 200
	.db #0xc8	; 200
	.db #0x21	; 33
	.db #0x17	; 23
	.db #0x1d	; 29
	.db #0xc8	; 200
	.db #0x14	; 20
	.db #0x17	; 23
	.db #0x1b	; 27
	.db #0x0d	; 13
	.db #0x2f	; 47
	.db #0x2f	; 47
	.db #0x2f	; 47
	.db #0xc8	; 200
	.db #0xc8	; 200
;main.c:128: void set_start_screen() {
;	---------------------------------
; Function set_start_screen
; ---------------------------------
_set_start_screen::
;main.c:129: set_bkg_tiles(0, 0, 20, 32, start_screen);
	ld	de, #_start_screen
	push	de
	ld	hl, #0x2014
	push	hl
	xor	a, a
	rrca
	push	af
	xor	a, a
	call	_set_bkg_tiles
	add	sp, #6
;main.c:130: current_room = start_screen;
	ld	hl, #_current_room
	ld	(hl), #<(_start_screen)
	inc	hl
	ld	(hl), #>(_start_screen)
;main.c:131: }
	ret
;main.c:133: void window_win() {
;	---------------------------------
; Function window_win
; ---------------------------------
_window_win::
;main.c:134: SHOW_WIN;
	ldh	a, (_LCDC_REG + 0)
	or	a, #0x20
	ldh	(_LCDC_REG + 0), a
;main.c:135: set_start_screen();
	call	_set_start_screen
;main.c:136: set_win_tiles(0, 1, 19, 1, win_map);
	ld	de, #_win_map
	push	de
	ld	hl, #0x113
	push	hl
	xor	a, a
	inc	a
	push	af
	call	_set_win_tiles
	add	sp, #6
;./gbdk/include/gb/gb.h:1727: WX_REG=x, WY_REG=y;
	ld	a, #0x07
	ldh	(_WX_REG + 0), a
	ld	a, #0x78
	ldh	(_WY_REG + 0), a
;main.c:137: move_win(7, 120);
;main.c:138: }
	ret
;main.c:140: void window_lose() {
;	---------------------------------
; Function window_lose
; ---------------------------------
_window_lose::
;main.c:141: SHOW_WIN;
	ldh	a, (_LCDC_REG + 0)
	or	a, #0x20
	ldh	(_LCDC_REG + 0), a
;main.c:142: set_start_screen();
	call	_set_start_screen
;main.c:143: set_win_tiles(0, 1, 19, 1, lose_map);
	ld	de, #_lose_map
	push	de
	ld	hl, #0x113
	push	hl
	xor	a, a
	inc	a
	push	af
	call	_set_win_tiles
	add	sp, #6
;./gbdk/include/gb/gb.h:1727: WX_REG=x, WY_REG=y;
	ld	a, #0x07
	ldh	(_WX_REG + 0), a
	ld	a, #0x78
	ldh	(_WY_REG + 0), a
;main.c:144: move_win(7, 120);
;main.c:145: }
	ret
;main.c:149: void set_end_screen() {
;	---------------------------------
; Function set_end_screen
; ---------------------------------
_set_end_screen::
;main.c:150: player_x = 88;
	ld	hl, #_player_x
	ld	a, #0x58
	ld	(hl+), a
	xor	a, a
	ld	(hl), a
;main.c:151: player_y = 56;
	ld	hl, #_player_y
	ld	a, #0x38
	ld	(hl+), a
	xor	a, a
	ld	(hl), a
;main.c:152: while(1) {
00102$:
;./gbdk/include/gb/gb.h:1463: SCX_REG+=x, SCY_REG+=y;
	ldh	a, (_SCY_REG + 0)
	inc	a
	ldh	(_SCY_REG + 0), a
;main.c:154: draw_player();
	call	_draw_player
;main.c:155: vsync();
	call	_vsync
;main.c:157: }
	jr	00102$
;main.c:159: unsigned char get_bkg_tile_from_pos(uint8_t x, uint8_t y) {
;	---------------------------------
; Function get_bkg_tile_from_pos
; ---------------------------------
_get_bkg_tile_from_pos::
	add	sp, #-3
	ldhl	sp,	#2
	ld	(hl), e
;main.c:160: int column  = (x / 8) - 1;
	dec	hl
	ld	c, a
	ld	b, #0x00
	sra	b
	rr	c
	sra	b
	rr	c
	sra	b
	rr	c
	ld	de, #0x0001
	ld	a, c
	sub	a, e
	ld	e, a
	ld	a, b
	sbc	a, d
	ld	(hl-), a
;main.c:161: int row     = (y / 8) - 1;
	ld	a, e
	ld	(hl+), a
	inc	hl
;main.c:163: if (column < 0 || row < 0 || column >= 19 || row >= 18)
	ld	a, (hl-)
	ld	c, a
	ld	b, #0x00
	sra	b
	rr	c
	sra	b
	rr	c
	sra	b
	rr	c
	dec	bc
	bit	7, (hl)
	jr	NZ, 00101$
	bit	7, b
	jr	NZ, 00101$
	dec	hl
	ld	a, (hl+)
	sub	a, #0x13
	ld	a, (hl)
	sbc	a, #0x00
	ld	d, (hl)
	ld	a, #0x00
	bit	7,a
	jr	Z, 00135$
	bit	7, d
	jr	NZ, 00136$
	cp	a, a
	jr	00136$
00135$:
	bit	7, d
	jr	Z, 00136$
	scf
00136$:
	jr	NC, 00101$
	ld	a, c
	sub	a, #0x12
	ld	a, b
	rla
	ccf
	rra
	sbc	a, #0x80
	jr	C, 00102$
00101$:
;main.c:164: return 7;
	ld	a, #0x07
	jr	00106$
00102$:
;main.c:165: return current_room[column + (row*20)];
	ld	l, c
	ld	h, b
	add	hl, hl
	add	hl, hl
	add	hl, bc
	add	hl, hl
	add	hl, hl
	ld	c, l
	ld	b, h
	pop	hl
	push	hl
	add	hl, bc
	ld	c, l
	ld	b, h
	ld	a, c
	ld	hl, #_current_room
	add	a, (hl)
	inc	hl
	ld	c, a
	ld	a, b
	adc	a, (hl)
	ld	b, a
	ld	a, (bc)
00106$:
;main.c:166: }
	add	sp, #3
	ret
;main.c:174: void update_path(char dir) {
;	---------------------------------
; Function update_path
; ---------------------------------
_update_path::
	ld	c, a
;main.c:175: path[path_num] = dir; 
	ld	a, (#_path_num)
	ld	e, a
	rlca
	sbc	a, a
	ld	d, a
	ld	hl, #_path
	add	hl, de
	ld	(hl), c
;main.c:176: path_num++;
	ld	hl, #_path_num
	inc	(hl)
;main.c:177: if (path_num > path_size) {
	ld	e, (hl)
	ld	a,#0x20
	ld	d,a
	sub	a, (hl)
	bit	7, e
	jr	Z, 00112$
	bit	7, d
	jr	NZ, 00113$
	cp	a, a
	jr	00113$
00112$:
	bit	7, d
	jr	Z, 00113$
	scf
00113$:
	ret	NC
;main.c:179: window_lose();
	call	_window_lose
;main.c:180: set_end_screen();
;main.c:182: }
	jp	_set_end_screen
;main.c:183: int test_win() {
;	---------------------------------
; Function test_win
; ---------------------------------
_test_win::
	dec	sp
;main.c:184: you_win = 0;
	ld	hl, #_you_win
	ld	(hl), #0x00
;main.c:187: if (path_num == 32) {
	ld	a, (#_path_num)
	sub	a, #0x20
	jr	NZ, 00105$
;main.c:188: for (int i=0; i<16; i++) {
	ld	bc, #0x0000
00107$:
	ld	a, c
	sub	a, #0x10
	ld	a, b
	rla
	ccf
	rra
	sbc	a, #0x80
	jr	NC, 00103$
;main.c:190: if (path_hash[i] != (path[i*2] ^ path[i*2+1])) {
	ld	hl, #_path_hash
	add	hl, bc
	ld	a, (hl)
	ldhl	sp,	#0
	ld	(hl), a
	ld	a, c
	add	a, a
	ld	d, a
	ld	l, a
;	spillPairReg hl
;	spillPairReg hl
	rlca
	sbc	a, a
	ld	h, a
;	spillPairReg hl
;	spillPairReg hl
	push	de
	ld	de, #_path
	add	hl, de
	pop	de
	ld	e, (hl)
	ld	a, d
	inc	a
	ld	l, a
;	spillPairReg hl
;	spillPairReg hl
	rlca
	sbc	a, a
	ld	h, a
;	spillPairReg hl
;	spillPairReg hl
	push	de
	ld	de, #_path
	add	hl, de
	pop	de
	ld	a, (hl)
	xor	a, e
	ld	e, a
	ldhl	sp,	#0
	ld	a, (hl)
	sub	a, e
	jr	Z, 00108$
;main.c:192: return you_win = 0;            
	ld	hl, #_you_win
	ld	bc, #0x0000
	ld	(hl), c
	jr	00109$
00108$:
;main.c:188: for (int i=0; i<16; i++) {
	inc	bc
	jr	00107$
00103$:
;main.c:195: you_win = 1;
	ld	hl, #_you_win
	ld	(hl), #0x01
00105$:
;main.c:197: return you_win;
	ld	a, (#_you_win)
	ld	c, a
	rlca
	sbc	a, a
	ld	b, a
00109$:
;main.c:198: }
	inc	sp
	ret
;main.c:200: void update_player(uint8_t joypad_state) {
;	---------------------------------
; Function update_player
; ---------------------------------
_update_player::
	add	sp, #-6
	ldhl	sp,	#5
	ld	(hl), a
;main.c:201: int old_x = player_x;
	ld	a, (#_player_x)
	ldhl	sp,	#0
	ld	(hl), a
	ld	a, (#_player_x + 1)
	ldhl	sp,	#1
	ld	(hl), a
;main.c:202: int old_y = player_y;
	ld	a, (#_player_y)
	ldhl	sp,	#2
	ld	(hl), a
	ld	a, (#_player_y + 1)
	ldhl	sp,	#3
;main.c:208: if(joypad_state & J_UP) {
	ld	(hl+), a
	inc	hl
	ld	a, (hl-)
	and	a, #0x04
	ld	e, a
	ld	d, #0x00
	ld	(hl), d
	ld	c, #0x00
;main.c:210: local_tile  = get_bkg_tile_from_pos(player_x, player_y-7);
	ld	hl, #_player_x
	ld	b, (hl)
;main.c:208: if(joypad_state & J_UP) {
	ld	a, d
	or	a, e
	jr	Z, 00104$
;main.c:209: player_y -= player_speed;
	ld	hl, #_player_y
	ld	a, (hl+)
	ld	e, a
	ld	a, (hl-)
	ld	d, a
	dec	de
	dec	de
	ld	a, e
	ld	(hl+), a
;main.c:210: local_tile  = get_bkg_tile_from_pos(player_x, player_y-7);
	ld	a, d
	ld	(hl-), a
	ld	a, (hl)
	add	a, #0xf9
	ld	e, a
	ld	a, b
	call	_get_bkg_tile_from_pos
	ldhl	sp,	#4
	ld	(hl), a
;main.c:211: local_tile2 = get_bkg_tile_from_pos(player_x+7, player_y-7);
	ld	a, (#_player_y)
	add	a, #0xf9
	ld	e, a
	ld	a, (#_player_x)
	add	a, #0x07
	call	_get_bkg_tile_from_pos
	ld	c, a
	jr	00105$
00104$:
;main.c:213: else if(joypad_state & J_DOWN) {
	push	hl
	ldhl	sp,	#7
	bit	3, (hl)
	pop	hl
	jr	Z, 00105$
;main.c:214: player_y += player_speed;
	ld	hl, #_player_y
	ld	a, (hl)
	add	a, #0x02
	ld	(hl+), a
	ld	a, (hl)
	adc	a, #0x00
;main.c:215: local_tile  = get_bkg_tile_from_pos(player_x, player_y);
	ld	(hl-), a
	ld	e, (hl)
	ld	a, b
	call	_get_bkg_tile_from_pos
	ldhl	sp,	#4
	ld	(hl), a
;main.c:216: local_tile2 = get_bkg_tile_from_pos(player_x+7, player_y);
	ld	hl, #_player_y
	ld	e, (hl)
	ld	a, (#_player_x)
	add	a, #0x07
	call	_get_bkg_tile_from_pos
	ld	c, a
00105$:
;main.c:218: if (local_tile == 1 || local_tile == 2 || local_tile2 == 1 || local_tile2 == 2) {
	ldhl	sp,	#4
	ld	a, (hl)
	dec	a
	jr	Z, 00106$
	ldhl	sp,	#4
	ld	a, (hl)
	sub	a, #0x02
	jr	Z, 00106$
	ld	a, c
	dec	a
	jr	Z, 00106$
	ld	a, c
	sub	a, #0x02
	jr	NZ, 00107$
00106$:
;main.c:219: player_y = old_y;
	ldhl	sp,	#2
	ld	a, (hl)
	ld	(#_player_y),a
	ldhl	sp,	#3
	ld	a, (hl)
	ld	(#_player_y + 1),a
00107$:
;main.c:210: local_tile  = get_bkg_tile_from_pos(player_x, player_y-7);
	ld	hl, #_player_y
	ld	a, (hl)
;main.c:224: local_tile  = get_bkg_tile_from_pos(player_x, player_y-7);
	add	a, #0xf9
	ld	e, a
;main.c:222: if(joypad_state & J_LEFT) {
	push	hl
	ldhl	sp,	#7
	bit	1, (hl)
	pop	hl
	jr	Z, 00114$
;main.c:223: player_x -= player_speed;
	ld	hl, #_player_x
	ld	a, (hl)
	add	a, #0xfe
	ld	(hl+), a
	ld	a, (hl)
	adc	a, #0xff
;main.c:224: local_tile  = get_bkg_tile_from_pos(player_x, player_y-7);
	ld	(hl-), a
	ld	a, (hl)
	call	_get_bkg_tile_from_pos
	ldhl	sp,	#4
	ld	(hl), a
;main.c:225: local_tile2 = get_bkg_tile_from_pos(player_x, player_y);
	ld	hl, #_player_y
	ld	e, (hl)
	ld	a, (#_player_x)
	call	_get_bkg_tile_from_pos
	ld	c, a
	jr	00115$
00114$:
;main.c:227: else if(joypad_state & J_RIGHT) {
	push	hl
	ldhl	sp,	#7
	bit	0, (hl)
	pop	hl
	jr	Z, 00115$
;main.c:228: player_x += player_speed;
	ld	hl, #_player_x
	ld	a, (hl)
	add	a, #0x02
	ld	(hl+), a
	ld	a, (hl)
	adc	a, #0x00
;main.c:229: local_tile  = get_bkg_tile_from_pos(player_x+7, player_y-7);
	ld	(hl-), a
	ld	a, (hl)
	add	a, #0x07
	call	_get_bkg_tile_from_pos
	ldhl	sp,	#4
	ld	(hl), a
;main.c:230: local_tile2 = get_bkg_tile_from_pos(player_x+7, player_y);
	ld	hl, #_player_y
	ld	e, (hl)
	ld	a, (#_player_x)
	add	a, #0x07
	call	_get_bkg_tile_from_pos
	ld	c, a
00115$:
;main.c:232: if (local_tile == 1 || local_tile == 2 || local_tile2 == 1 || local_tile2 == 2) {
	ldhl	sp,	#4
	ld	a, (hl)
	dec	a
	jr	Z, 00116$
	ldhl	sp,	#4
	ld	a, (hl)
	sub	a, #0x02
	jr	Z, 00116$
	ld	a, c
	dec	a
	jr	Z, 00116$
	ld	a, c
	sub	a, #0x02
	jr	NZ, 00117$
00116$:
;main.c:233: player_x = old_x;
	ldhl	sp,	#0
	ld	a, (hl)
	ld	(#_player_x),a
	ldhl	sp,	#1
	ld	a, (hl)
	ld	(#_player_x + 1),a
00117$:
;main.c:237: if (current_room == room_3 && (((player_x / 8)-1) == 10 && ((player_y / 8)-1) == 6 ) && test_win()) {
	ld	hl, #_current_room
	ld	a, (hl)
	sub	a, #<(_room_3)
	jr	NZ, 00126$
	inc	hl
	ld	a, (hl)
	sub	a, #>(_room_3)
	jr	NZ, 00126$
	ld	hl, #_player_x
	ld	a, (hl+)
	ld	c, a
	ld	b, (hl)
	bit	7, b
	jr	Z, 00128$
	ld	hl, #0x0007
	add	hl, bc
	ld	c, l
	ld	b, h
00128$:
	sra	b
	rr	c
	sra	b
	rr	c
	sra	b
	rr	c
	dec	bc
	ld	a, c
	sub	a, #0x0a
	or	a, b
	jr	NZ, 00126$
	ld	hl, #_player_y
	ld	a, (hl+)
	ld	c, a
	ld	b, (hl)
	bit	7, b
	jr	Z, 00129$
	ld	hl, #0x0007
	add	hl, bc
	ld	c, l
	ld	b, h
00129$:
	sra	b
	rr	c
	sra	b
	rr	c
	sra	b
	rr	c
	dec	bc
	ld	a, c
	sub	a, #0x06
	or	a, b
	jr	NZ, 00126$
	call	_test_win
	ld	a, b
	or	a, c
	jr	Z, 00126$
;main.c:238: set_bkg_data(0, 58, background_tileset);
	ld	de, #_background_tileset
	push	de
	ld	a, #0x3a
	push	af
	inc	sp
	xor	a, a
	push	af
	inc	sp
	call	_set_bkg_data
	add	sp, #4
;main.c:239: window_win();
	call	_window_win
;main.c:240: set_end_screen();
	call	_set_end_screen
00126$:
;main.c:242: }
	add	sp, #6
	ret
;main.c:246: void draw_player() {
;	---------------------------------
; Function draw_player
; ---------------------------------
_draw_player::
;main.c:247: time++;
	ld	hl, #_time
	inc	(hl)
	jr	NZ, 00114$
	inc	hl
	inc	(hl)
00114$:
;main.c:248: if (time >= 20) {
	ld	hl, #_time
	ld	a, (hl+)
	sub	a, #0x14
	ld	a, (hl)
	sbc	a, #0x00
	ld	d, (hl)
	ld	a, #0x00
	bit	7,a
	jr	Z, 00115$
	bit	7, d
	jr	NZ, 00116$
	cp	a, a
	jr	00116$
00115$:
	bit	7, d
	jr	Z, 00116$
	scf
00116$:
	jr	C, 00102$
;main.c:249: time = 0;
	xor	a, a
	ld	hl, #_time
	ld	(hl+), a
	ld	(hl), a
;main.c:250: player_sprite_id = !player_sprite_id;
	ld	hl, #_player_sprite_id + 1
	ld	a, (hl-)
	or	a, (hl)
	sub	a, #0x01
	ld	a, #0x00
	rla
	ld	(hl+), a
	ld	(hl), #0x00
00102$:
;main.c:252: set_sprite_tile(0, player_sprite_id);
	ld	hl, #_player_sprite_id
	ld	c, (hl)
;./gbdk/include/gb/gb.h:1875: shadow_OAM[nb].tile=tile;
	ld	hl, #(_shadow_OAM + 2)
	ld	(hl), c
;main.c:253: move_sprite(0, player_x, player_y);
	ld	hl, #_player_y
	ld	b, (hl)
	ld	hl, #_player_x
	ld	c, (hl)
;./gbdk/include/gb/gb.h:1961: OAM_item_t * itm = &shadow_OAM[nb];
	ld	hl, #_shadow_OAM
;./gbdk/include/gb/gb.h:1962: itm->y=y, itm->x=x;
	ld	a, b
	ld	(hl+), a
	ld	(hl), c
;main.c:253: move_sprite(0, player_x, player_y);
;main.c:254: }
	ret
;main.c:256: void set_mid_room() {
;	---------------------------------
; Function set_mid_room
; ---------------------------------
_set_mid_room::
;main.c:257: current_room = room_2;
	ld	bc, #_room_2+0
	ld	hl, #_current_room
	ld	a, c
	ld	(hl+), a
	ld	(hl), b
;main.c:258: set_bkg_tiles(0, 0, 20, 18, room_2);
	push	bc
	ld	hl, #0x1214
	push	hl
	xor	a, a
	rrca
	push	af
	call	_set_bkg_tiles
	add	sp, #6
;./gbdk/include/gb/gb.h:1989: shadow_OAM[nb].y = 0;
	ld	hl, #(_shadow_OAM + 4)
	ld	(hl), #0x00
;main.c:259: hide_sprite(1);
;main.c:260: }
	ret
;main.c:262: void win_room(char win) {
;	---------------------------------
; Function win_room
; ---------------------------------
_win_room::
	ld	c, a
;main.c:263: current_room = room_3;
	ld	de, #_room_3+0
	ld	hl, #_current_room
	ld	a, e
	ld	(hl+), a
	ld	(hl), d
;main.c:264: set_bkg_tiles(0, 0, 20, 18, room_3);
	push	de
	ld	hl, #0x1214
	push	hl
	xor	a, a
	rrca
	push	af
	call	_set_bkg_tiles
	add	sp, #6
;main.c:267: if (win) {
	ld	a, c
	or	a, a
	ret	Z
;./gbdk/include/gb/gb.h:1961: OAM_item_t * itm = &shadow_OAM[nb];
	ld	hl, #(_shadow_OAM + 4)
;./gbdk/include/gb/gb.h:1962: itm->y=y, itm->x=x;
	ld	a, #0x3c
	ld	(hl+), a
	ld	(hl), #0x58
;main.c:268: move_sprite(1, 88, 60);
;main.c:270: }
	ret
;main.c:274: void update_room() {
;	---------------------------------
; Function update_room
; ---------------------------------
_update_room::
;main.c:276: if (player_y <= 15 && current_room == room_2) {
	ld	hl, #_player_y
	ld	a, #0x0f
	sub	a, (hl)
	inc	hl
	ld	a, #0x00
	sbc	a, (hl)
	ld	a, #0x00
	ld	d, a
	bit	7, (hl)
	jr	Z, 00156$
	bit	7, d
	jr	NZ, 00157$
	cp	a, a
	jr	00157$
00156$:
	bit	7, d
	jr	Z, 00157$
	scf
00157$:
	jr	C, 00102$
	ld	hl, #_current_room
	ld	a, (hl)
	sub	a, #<(_room_2)
	jr	NZ, 00102$
	inc	hl
	ld	a, (hl)
	sub	a, #>(_room_2)
	jr	NZ, 00102$
;main.c:278: update_path('U');
	ld	a, #0x55
	call	_update_path
;main.c:279: win_room(test_win()); player_x = 88; player_y = 151;
	call	_test_win
	ld	a, c
	call	_win_room
	ld	hl, #_player_x
	ld	a, #0x58
	ld	(hl+), a
	xor	a, a
	ld	(hl), a
	ld	hl, #_player_y
	ld	a, #0x97
	ld	(hl+), a
	xor	a, a
	ld	(hl), a
00102$:
;main.c:281: if (player_y <= 15) {
	ld	hl, #_player_y
	ld	a, #0x0f
	sub	a, (hl)
	inc	hl
	ld	a, #0x00
	sbc	a, (hl)
	ld	a, #0x00
	ld	d, a
	bit	7, (hl)
	jr	Z, 00160$
	bit	7, d
	jr	NZ, 00161$
	cp	a, a
	jr	00161$
00160$:
	bit	7, d
	jr	Z, 00161$
	scf
00161$:
	jr	C, 00105$
;main.c:283: update_path('U');
	ld	a, #0x55
	call	_update_path
;main.c:284: set_mid_room(); player_x = 88; player_y = 151;
	call	_set_mid_room
	ld	hl, #_player_x
	ld	a, #0x58
	ld	(hl+), a
	xor	a, a
	ld	(hl), a
	ld	hl, #_player_y
	ld	a, #0x97
	ld	(hl+), a
	xor	a, a
	ld	(hl), a
00105$:
;main.c:286: if (player_y >= 152) {
	ld	hl, #_player_y
	ld	a, (hl+)
	sub	a, #0x98
	ld	a, (hl)
	sbc	a, #0x00
	ld	d, (hl)
	ld	a, #0x00
	bit	7,a
	jr	Z, 00162$
	bit	7, d
	jr	NZ, 00163$
	cp	a, a
	jr	00163$
00162$:
	bit	7, d
	jr	Z, 00163$
	scf
00163$:
	jr	C, 00107$
;main.c:288: update_path('D');
	ld	a, #0x44
	call	_update_path
;main.c:289: set_mid_room(); player_x = 88; player_y = 16;
	call	_set_mid_room
	ld	hl, #_player_x
	ld	a, #0x58
	ld	(hl+), a
	xor	a, a
	ld	(hl), a
	ld	hl, #_player_y
	ld	a, #0x10
	ld	(hl+), a
	xor	a, a
	ld	(hl), a
00107$:
;main.c:291: if (player_x >= 160) {
	ld	hl, #_player_x
	ld	a, (hl+)
	sub	a, #0xa0
	ld	a, (hl)
	sbc	a, #0x00
	ld	d, (hl)
	ld	a, #0x00
	bit	7,a
	jr	Z, 00164$
	bit	7, d
	jr	NZ, 00165$
	cp	a, a
	jr	00165$
00164$:
	bit	7, d
	jr	Z, 00165$
	scf
00165$:
	jr	C, 00109$
;main.c:293: update_path('R');
	ld	a, #0x52
	call	_update_path
;main.c:294: set_mid_room(); player_x = 8; player_y = 88;
	call	_set_mid_room
	ld	hl, #_player_x
	ld	a, #0x08
	ld	(hl+), a
	xor	a, a
	ld	(hl), a
	ld	hl, #_player_y
	ld	a, #0x58
	ld	(hl+), a
	xor	a, a
	ld	(hl), a
00109$:
;main.c:296: if (player_x <= 7) {
	ld	hl, #_player_x
	ld	a, #0x07
	sub	a, (hl)
	inc	hl
	ld	a, #0x00
	sbc	a, (hl)
	ld	a, #0x00
	ld	d, a
	bit	7, (hl)
	jr	Z, 00166$
	bit	7, d
	jr	NZ, 00167$
	cp	a, a
	jr	00167$
00166$:
	bit	7, d
	jr	Z, 00167$
	scf
00167$:
	ret	C
;main.c:298: update_path('L');
	ld	a, #0x4c
	call	_update_path
;main.c:299: set_mid_room(); player_x = 159; player_y = 88;
	call	_set_mid_room
	ld	hl, #_player_x
	ld	a, #0x9f
	ld	(hl+), a
	xor	a, a
	ld	(hl), a
	ld	hl, #_player_y
	ld	a, #0x58
	ld	(hl+), a
	xor	a, a
	ld	(hl), a
;main.c:301: }
	ret
;main.c:303: void main(void)
;	---------------------------------
; Function main
; ---------------------------------
_main::
	dec	sp
;main.c:305: DISPLAY_ON;
	ldh	a, (_LCDC_REG + 0)
	or	a, #0x80
	ldh	(_LCDC_REG + 0), a
;main.c:306: SHOW_BKG;
	ldh	a, (_LCDC_REG + 0)
	or	a, #0x01
	ldh	(_LCDC_REG + 0), a
;main.c:308: set_bkg_data(0, 58, background_tileset);
	ld	de, #_background_tileset
	push	de
	ld	hl, #0x3a00
	push	hl
	call	_set_bkg_data
	add	sp, #4
;main.c:312: set_start_screen();
	call	_set_start_screen
;main.c:315: SHOW_WIN;
	ldh	a, (_LCDC_REG + 0)
	or	a, #0x20
	ldh	(_LCDC_REG + 0), a
;main.c:316: set_win_tiles(0, 1, 19, 1, window_map);
	ld	de, #_window_map
	push	de
	ld	hl, #0x113
	push	hl
	xor	a, a
	inc	a
	push	af
	call	_set_win_tiles
	add	sp, #6
;./gbdk/include/gb/gb.h:1727: WX_REG=x, WY_REG=y;
	ld	a, #0x07
	ldh	(_WX_REG + 0), a
	ld	a, #0x78
	ldh	(_WY_REG + 0), a
;main.c:320: char game_started = 0;
	ld	c, #0x00
;main.c:323: while(game_started == 0) {
00103$:
	ld	a, c
	or	a, a
	jr	NZ, 00105$
;main.c:324: if(joypad())
	call	_joypad
	or	a, a
	jr	Z, 00102$
;main.c:325: game_started = 1;
	ld	c, #0x01
00102$:
;./gbdk/include/gb/gb.h:1463: SCX_REG+=x, SCY_REG+=y;
	ldh	a, (_SCY_REG + 0)
	inc	a
	ldh	(_SCY_REG + 0), a
;main.c:327: vsync();
	call	_vsync
	jr	00103$
00105$:
;main.c:329: HIDE_WIN;
	ldh	a, (_LCDC_REG + 0)
	and	a, #0xdf
	ldh	(_LCDC_REG + 0), a
;main.c:331: set_start_room();
	call	_set_start_room
;./gbdk/include/gb/gb.h:1449: SCX_REG=x, SCY_REG=y;
	xor	a, a
	ldh	(_SCX_REG + 0), a
	xor	a, a
	ldh	(_SCY_REG + 0), a
;main.c:334: SHOW_SPRITES;
	ldh	a, (_LCDC_REG + 0)
	or	a, #0x02
	ldh	(_LCDC_REG + 0), a
;main.c:335: set_sprite_data(0, 3, sprite_tiles);
	ld	de, #_sprite_tiles
	push	de
	ld	a, #0x03
	push	af
	inc	sp
	xor	a, a
	push	af
	inc	sp
	call	_set_sprite_data
	add	sp, #4
;main.c:336: set_sprite_tile(0, player_sprite_id); // Start with the first sprite tile
	ld	hl, #_player_sprite_id
	ld	c, (hl)
;./gbdk/include/gb/gb.h:1875: shadow_OAM[nb].tile=tile;
	ld	hl, #(_shadow_OAM + 2)
	ld	(hl), c
;main.c:337: move_sprite(0, player_x, player_y);
	ld	hl, #_player_y
	ld	c, (hl)
	ld	hl, #_player_x
	ld	b, (hl)
;./gbdk/include/gb/gb.h:1961: OAM_item_t * itm = &shadow_OAM[nb];
	ld	hl, #_shadow_OAM
;./gbdk/include/gb/gb.h:1962: itm->y=y, itm->x=x;
	ld	(hl), c
	inc	hl
	ld	(hl), b
;./gbdk/include/gb/gb.h:1875: shadow_OAM[nb].tile=tile;
	ld	hl, #(_shadow_OAM + 6)
	ld	(hl), #0x02
;./gbdk/include/gb/gb.h:1989: shadow_OAM[nb].y = 0;
	ld	hl, #(_shadow_OAM + 4)
	ld	(hl), #0x00
;main.c:344: while(1) {
00107$:
;main.c:345: i = joypad();
	call	_joypad
;main.c:346: update_player(i);
	ldhl	sp,#0
	ld	(hl), a
	ld	a, (hl)
	call	_update_player
;main.c:347: update_room();
	call	_update_room
;main.c:348: draw_player();
	call	_draw_player
;main.c:350: vsync();
	call	_vsync
	jr	00107$
;main.c:354: }
	inc	sp
	ret
	.area _CODE
	.area _INITIALIZER
__xinit__sprite_tiles:
	.db #0x00	; 0
	.db #0x00	; 0
	.db #0x00	; 0
	.db #0x00	; 0
	.db #0x24	; 36
	.db #0x42	; 66	'B'
	.db #0x66	; 102	'f'
	.db #0x3c	; 60
	.db #0x18	; 24
	.db #0x24	; 36
	.db #0x00	; 0
	.db #0x3c	; 60
	.db #0x24	; 36
	.db #0x24	; 36
	.db #0x66	; 102	'f'
	.db #0x66	; 102	'f'
	.db #0x00	; 0
	.db #0x00	; 0
	.db #0x00	; 0
	.db #0x00	; 0
	.db #0x24	; 36
	.db #0x42	; 66	'B'
	.db #0x66	; 102	'f'
	.db #0x00	; 0
	.db #0x7e	; 126
	.db #0x24	; 36
	.db #0x00	; 0
	.db #0x3c	; 60
	.db #0x24	; 36
	.db #0x24	; 36
	.db #0x66	; 102	'f'
	.db #0x66	; 102	'f'
	.db #0x00	; 0
	.db #0x00	; 0
	.db #0x3c	; 60
	.db #0x3c	; 60
	.db #0x66	; 102	'f'
	.db #0x5a	; 90	'Z'
	.db #0xdb	; 219
	.db #0xa5	; 165
	.db #0xff	; 255
	.db #0xff	; 255
	.db #0xab	; 171
	.db #0xd5	; 213
	.db #0xd5	; 213
	.db #0xab	; 171
	.db #0xff	; 255
	.db #0xff	; 255
__xinit__room_1:
	.db #0x02	; 2
	.db #0x02	; 2
	.db #0x02	; 2
	.db #0x02	; 2
	.db #0x01	; 1
	.db #0x07	; 7
	.db #0x07	; 7
	.db #0x07	; 7
	.db #0x07	; 7
	.db #0x07	; 7
	.db #0x07	; 7
	.db #0x07	; 7
	.db #0x07	; 7
	.db #0x07	; 7
	.db #0x07	; 7
	.db #0x01	; 1
	.db #0x02	; 2
	.db #0x02	; 2
	.db #0x02	; 2
	.db #0x02	; 2
	.db #0x02	; 2
	.db #0x02	; 2
	.db #0x01	; 1
	.db #0x01	; 1
	.db #0x01	; 1
	.db #0x07	; 7
	.db #0x07	; 7
	.db #0x07	; 7
	.db #0x07	; 7
	.db #0x07	; 7
	.db #0x07	; 7
	.db #0x07	; 7
	.db #0x07	; 7
	.db #0x07	; 7
	.db #0x07	; 7
	.db #0x01	; 1
	.db #0x01	; 1
	.db #0x01	; 1
	.db #0x02	; 2
	.db #0x02	; 2
	.db #0x02	; 2
	.db #0x02	; 2
	.db #0x01	; 1
	.db #0x01	; 1
	.db #0x07	; 7
	.db #0x07	; 7
	.db #0x07	; 7
	.db #0x07	; 7
	.db #0x07	; 7
	.db #0x07	; 7
	.db #0x07	; 7
	.db #0x07	; 7
	.db #0x07	; 7
	.db #0x07	; 7
	.db #0x07	; 7
	.db #0x07	; 7
	.db #0x01	; 1
	.db #0x01	; 1
	.db #0x01	; 1
	.db #0x02	; 2
	.db #0x02	; 2
	.db #0x01	; 1
	.db #0x01	; 1
	.db #0x07	; 7
	.db #0x07	; 7
	.db #0x07	; 7
	.db #0x07	; 7
	.db #0x07	; 7
	.db #0x07	; 7
	.db #0x07	; 7
	.db #0x07	; 7
	.db #0x07	; 7
	.db #0x07	; 7
	.db #0x07	; 7
	.db #0x07	; 7
	.db #0x07	; 7
	.db #0x07	; 7
	.db #0x01	; 1
	.db #0x01	; 1
	.db #0x02	; 2
	.db #0x02	; 2
	.db #0x01	; 1
	.db #0x01	; 1
	.db #0x07	; 7
	.db #0x07	; 7
	.db #0x03	; 3
	.db #0x07	; 7
	.db #0x07	; 7
	.db #0x07	; 7
	.db #0x07	; 7
	.db #0x03	; 3
	.db #0x07	; 7
	.db #0x07	; 7
	.db #0x07	; 7
	.db #0x03	; 3
	.db #0x07	; 7
	.db #0x07	; 7
	.db #0x07	; 7
	.db #0x01	; 1
	.db #0x02	; 2
	.db #0x02	; 2
	.db #0x01	; 1
	.db #0x07	; 7
	.db #0x07	; 7
	.db #0x07	; 7
	.db #0x07	; 7
	.db #0x07	; 7
	.db #0x07	; 7
	.db #0x07	; 7
	.db #0x07	; 7
	.db #0x07	; 7
	.db #0x07	; 7
	.db #0x07	; 7
	.db #0x07	; 7
	.db #0x07	; 7
	.db #0x07	; 7
	.db #0x07	; 7
	.db #0x07	; 7
	.db #0x01	; 1
	.db #0x02	; 2
	.db #0x02	; 2
	.db #0x01	; 1
	.db #0x07	; 7
	.db #0x07	; 7
	.db #0x07	; 7
	.db #0x03	; 3
	.db #0x07	; 7
	.db #0x07	; 7
	.db #0x07	; 7
	.db #0x07	; 7
	.db #0x04	; 4
	.db #0x07	; 7
	.db #0x04	; 4
	.db #0x07	; 7
	.db #0x07	; 7
	.db #0x07	; 7
	.db #0x07	; 7
	.db #0x07	; 7
	.db #0x01	; 1
	.db #0x02	; 2
	.db #0x01	; 1
	.db #0x01	; 1
	.db #0x07	; 7
	.db #0x07	; 7
	.db #0x07	; 7
	.db #0x07	; 7
	.db #0x07	; 7
	.db #0x07	; 7
	.db #0x03	; 3
	.db #0x07	; 7
	.db #0x07	; 7
	.db #0x07	; 7
	.db #0x07	; 7
	.db #0x07	; 7
	.db #0x07	; 7
	.db #0x04	; 4
	.db #0x03	; 3
	.db #0x07	; 7
	.db #0x01	; 1
	.db #0x01	; 1
	.db #0x02	; 2
	.db #0x01	; 1
	.db #0x07	; 7
	.db #0x07	; 7
	.db #0x07	; 7
	.db #0x07	; 7
	.db #0x07	; 7
	.db #0x07	; 7
	.db #0x07	; 7
	.db #0x07	; 7
	.db #0x07	; 7
	.db #0x07	; 7
	.db #0x07	; 7
	.db #0x04	; 4
	.db #0x07	; 7
	.db #0x07	; 7
	.db #0x07	; 7
	.db #0x07	; 7
	.db #0x01	; 1
	.db #0x02	; 2
	.db #0x01	; 1
	.db #0x01	; 1
	.db #0x07	; 7
	.db #0x07	; 7
	.db #0x07	; 7
	.db #0x04	; 4
	.db #0x07	; 7
	.db #0x07	; 7
	.db #0x04	; 4
	.db #0x07	; 7
	.db #0x07	; 7
	.db #0x07	; 7
	.db #0x07	; 7
	.db #0x03	; 3
	.db #0x07	; 7
	.db #0x07	; 7
	.db #0x07	; 7
	.db #0x07	; 7
	.db #0x01	; 1
	.db #0x01	; 1
	.db #0x02	; 2
	.db #0x01	; 1
	.db #0x07	; 7
	.db #0x07	; 7
	.db #0x07	; 7
	.db #0x03	; 3
	.db #0x07	; 7
	.db #0x07	; 7
	.db #0x07	; 7
	.db #0x04	; 4
	.db #0x07	; 7
	.db #0x07	; 7
	.db #0x07	; 7
	.db #0x07	; 7
	.db #0x07	; 7
	.db #0x07	; 7
	.db #0x07	; 7
	.db #0x07	; 7
	.db #0x01	; 1
	.db #0x02	; 2
	.db #0x01	; 1
	.db #0x01	; 1
	.db #0x07	; 7
	.db #0x07	; 7
	.db #0x07	; 7
	.db #0x07	; 7
	.db #0x07	; 7
	.db #0x03	; 3
	.db #0x07	; 7
	.db #0x07	; 7
	.db #0x07	; 7
	.db #0x03	; 3
	.db #0x07	; 7
	.db #0x07	; 7
	.db #0x07	; 7
	.db #0x07	; 7
	.db #0x07	; 7
	.db #0x07	; 7
	.db #0x01	; 1
	.db #0x02	; 2
	.db #0x02	; 2
	.db #0x01	; 1
	.db #0x07	; 7
	.db #0x07	; 7
	.db #0x07	; 7
	.db #0x03	; 3
	.db #0x07	; 7
	.db #0x04	; 4
	.db #0x07	; 7
	.db #0x07	; 7
	.db #0x07	; 7
	.db #0x07	; 7
	.db #0x07	; 7
	.db #0x07	; 7
	.db #0x04	; 4
	.db #0x07	; 7
	.db #0x07	; 7
	.db #0x07	; 7
	.db #0x01	; 1
	.db #0x02	; 2
	.db #0x02	; 2
	.db #0x01	; 1
	.db #0x03	; 3
	.db #0x07	; 7
	.db #0x07	; 7
	.db #0x07	; 7
	.db #0x07	; 7
	.db #0x03	; 3
	.db #0x07	; 7
	.db #0x07	; 7
	.db #0x07	; 7
	.db #0x07	; 7
	.db #0x07	; 7
	.db #0x03	; 3
	.db #0x07	; 7
	.db #0x07	; 7
	.db #0x07	; 7
	.db #0x04	; 4
	.db #0x01	; 1
	.db #0x02	; 2
	.db #0x02	; 2
	.db #0x01	; 1
	.db #0x01	; 1
	.db #0x07	; 7
	.db #0x07	; 7
	.db #0x07	; 7
	.db #0x07	; 7
	.db #0x07	; 7
	.db #0x07	; 7
	.db #0x07	; 7
	.db #0x04	; 4
	.db #0x07	; 7
	.db #0x07	; 7
	.db #0x07	; 7
	.db #0x07	; 7
	.db #0x07	; 7
	.db #0x07	; 7
	.db #0x01	; 1
	.db #0x01	; 1
	.db #0x02	; 2
	.db #0x02	; 2
	.db #0x01	; 1
	.db #0x01	; 1
	.db #0x01	; 1
	.db #0x01	; 1
	.db #0x04	; 4
	.db #0x07	; 7
	.db #0x04	; 4
	.db #0x07	; 7
	.db #0x04	; 4
	.db #0x07	; 7
	.db #0x07	; 7
	.db #0x07	; 7
	.db #0x04	; 4
	.db #0x07	; 7
	.db #0x01	; 1
	.db #0x01	; 1
	.db #0x01	; 1
	.db #0x02	; 2
	.db #0x02	; 2
	.db #0x02	; 2
	.db #0x02	; 2
	.db #0x01	; 1
	.db #0x01	; 1
	.db #0x01	; 1
	.db #0x01	; 1
	.db #0x01	; 1
	.db #0x01	; 1
	.db #0x01	; 1
	.db #0x01	; 1
	.db #0x01	; 1
	.db #0x01	; 1
	.db #0x01	; 1
	.db #0x01	; 1
	.db #0x01	; 1
	.db #0x01	; 1
	.db #0x01	; 1
	.db #0x02	; 2
	.db #0x02	; 2
	.db #0x02	; 2
	.db #0x02	; 2
	.db #0x02	; 2
	.db #0x02	; 2
	.db #0x02	; 2
	.db #0x02	; 2
	.db #0x02	; 2
	.db #0x01	; 1
	.db #0x02	; 2
	.db #0x02	; 2
	.db #0x02	; 2
	.db #0x01	; 1
	.db #0x02	; 2
	.db #0x01	; 1
	.db #0x02	; 2
	.db #0x02	; 2
	.db #0x02	; 2
	.db #0x02	; 2
	.db #0x02	; 2
	.db #0x02	; 2
	.db #0x02	; 2
__xinit__room_2:
	.db #0x02	; 2
	.db #0x02	; 2
	.db #0x02	; 2
	.db #0x02	; 2
	.db #0x02	; 2
	.db #0x02	; 2
	.db #0x02	; 2
	.db #0x02	; 2
	.db #0x02	; 2
	.db #0x07	; 7
	.db #0x07	; 7
	.db #0x07	; 7
	.db #0x02	; 2
	.db #0x02	; 2
	.db #0x02	; 2
	.db #0x02	; 2
	.db #0x02	; 2
	.db #0x02	; 2
	.db #0x02	; 2
	.db #0x02	; 2
	.db #0x02	; 2
	.db #0x02	; 2
	.db #0x01	; 1
	.db #0x01	; 1
	.db #0x01	; 1
	.db #0x01	; 1
	.db #0x01	; 1
	.db #0x01	; 1
	.db #0x01	; 1
	.db #0x07	; 7
	.db #0x07	; 7
	.db #0x07	; 7
	.db #0x01	; 1
	.db #0x01	; 1
	.db #0x01	; 1
	.db #0x01	; 1
	.db #0x01	; 1
	.db #0x01	; 1
	.db #0x02	; 2
	.db #0x02	; 2
	.db #0x02	; 2
	.db #0x02	; 2
	.db #0x01	; 1
	.db #0x01	; 1
	.db #0x07	; 7
	.db #0x07	; 7
	.db #0x07	; 7
	.db #0x07	; 7
	.db #0x07	; 7
	.db #0x07	; 7
	.db #0x07	; 7
	.db #0x07	; 7
	.db #0x07	; 7
	.db #0x07	; 7
	.db #0x07	; 7
	.db #0x07	; 7
	.db #0x01	; 1
	.db #0x01	; 1
	.db #0x01	; 1
	.db #0x02	; 2
	.db #0x02	; 2
	.db #0x01	; 1
	.db #0x01	; 1
	.db #0x07	; 7
	.db #0x07	; 7
	.db #0x07	; 7
	.db #0x07	; 7
	.db #0x07	; 7
	.db #0x07	; 7
	.db #0x07	; 7
	.db #0x07	; 7
	.db #0x07	; 7
	.db #0x07	; 7
	.db #0x07	; 7
	.db #0x07	; 7
	.db #0x07	; 7
	.db #0x07	; 7
	.db #0x01	; 1
	.db #0x01	; 1
	.db #0x02	; 2
	.db #0x02	; 2
	.db #0x01	; 1
	.db #0x01	; 1
	.db #0x07	; 7
	.db #0x07	; 7
	.db #0x03	; 3
	.db #0x07	; 7
	.db #0x07	; 7
	.db #0x07	; 7
	.db #0x07	; 7
	.db #0x03	; 3
	.db #0x07	; 7
	.db #0x07	; 7
	.db #0x07	; 7
	.db #0x03	; 3
	.db #0x07	; 7
	.db #0x07	; 7
	.db #0x07	; 7
	.db #0x01	; 1
	.db #0x02	; 2
	.db #0x02	; 2
	.db #0x01	; 1
	.db #0x07	; 7
	.db #0x07	; 7
	.db #0x07	; 7
	.db #0x07	; 7
	.db #0x07	; 7
	.db #0x07	; 7
	.db #0x07	; 7
	.db #0x07	; 7
	.db #0x07	; 7
	.db #0x07	; 7
	.db #0x07	; 7
	.db #0x07	; 7
	.db #0x07	; 7
	.db #0x07	; 7
	.db #0x07	; 7
	.db #0x07	; 7
	.db #0x01	; 1
	.db #0x02	; 2
	.db #0x02	; 2
	.db #0x01	; 1
	.db #0x07	; 7
	.db #0x07	; 7
	.db #0x07	; 7
	.db #0x03	; 3
	.db #0x07	; 7
	.db #0x07	; 7
	.db #0x07	; 7
	.db #0x07	; 7
	.db #0x04	; 4
	.db #0x07	; 7
	.db #0x04	; 4
	.db #0x07	; 7
	.db #0x07	; 7
	.db #0x07	; 7
	.db #0x07	; 7
	.db #0x07	; 7
	.db #0x01	; 1
	.db #0x02	; 2
	.db #0x01	; 1
	.db #0x01	; 1
	.db #0x07	; 7
	.db #0x07	; 7
	.db #0x07	; 7
	.db #0x07	; 7
	.db #0x07	; 7
	.db #0x07	; 7
	.db #0x03	; 3
	.db #0x07	; 7
	.db #0x07	; 7
	.db #0x07	; 7
	.db #0x07	; 7
	.db #0x07	; 7
	.db #0x07	; 7
	.db #0x04	; 4
	.db #0x03	; 3
	.db #0x07	; 7
	.db #0x01	; 1
	.db #0x01	; 1
	.db #0x07	; 7
	.db #0x07	; 7
	.db #0x07	; 7
	.db #0x07	; 7
	.db #0x07	; 7
	.db #0x07	; 7
	.db #0x07	; 7
	.db #0x07	; 7
	.db #0x07	; 7
	.db #0x07	; 7
	.db #0x07	; 7
	.db #0x07	; 7
	.db #0x07	; 7
	.db #0x04	; 4
	.db #0x07	; 7
	.db #0x07	; 7
	.db #0x07	; 7
	.db #0x07	; 7
	.db #0x07	; 7
	.db #0x07	; 7
	.db #0x07	; 7
	.db #0x07	; 7
	.db #0x07	; 7
	.db #0x07	; 7
	.db #0x07	; 7
	.db #0x04	; 4
	.db #0x07	; 7
	.db #0x07	; 7
	.db #0x04	; 4
	.db #0x07	; 7
	.db #0x07	; 7
	.db #0x07	; 7
	.db #0x07	; 7
	.db #0x03	; 3
	.db #0x07	; 7
	.db #0x07	; 7
	.db #0x07	; 7
	.db #0x07	; 7
	.db #0x07	; 7
	.db #0x07	; 7
	.db #0x07	; 7
	.db #0x07	; 7
	.db #0x07	; 7
	.db #0x07	; 7
	.db #0x07	; 7
	.db #0x03	; 3
	.db #0x07	; 7
	.db #0x07	; 7
	.db #0x07	; 7
	.db #0x04	; 4
	.db #0x07	; 7
	.db #0x07	; 7
	.db #0x07	; 7
	.db #0x07	; 7
	.db #0x07	; 7
	.db #0x07	; 7
	.db #0x07	; 7
	.db #0x07	; 7
	.db #0x07	; 7
	.db #0x07	; 7
	.db #0x01	; 1
	.db #0x01	; 1
	.db #0x07	; 7
	.db #0x07	; 7
	.db #0x07	; 7
	.db #0x07	; 7
	.db #0x07	; 7
	.db #0x03	; 3
	.db #0x07	; 7
	.db #0x07	; 7
	.db #0x07	; 7
	.db #0x03	; 3
	.db #0x07	; 7
	.db #0x07	; 7
	.db #0x07	; 7
	.db #0x07	; 7
	.db #0x07	; 7
	.db #0x07	; 7
	.db #0x01	; 1
	.db #0x01	; 1
	.db #0x02	; 2
	.db #0x01	; 1
	.db #0x07	; 7
	.db #0x07	; 7
	.db #0x07	; 7
	.db #0x03	; 3
	.db #0x07	; 7
	.db #0x04	; 4
	.db #0x07	; 7
	.db #0x07	; 7
	.db #0x07	; 7
	.db #0x07	; 7
	.db #0x07	; 7
	.db #0x07	; 7
	.db #0x04	; 4
	.db #0x07	; 7
	.db #0x07	; 7
	.db #0x07	; 7
	.db #0x01	; 1
	.db #0x02	; 2
	.db #0x02	; 2
	.db #0x01	; 1
	.db #0x03	; 3
	.db #0x07	; 7
	.db #0x07	; 7
	.db #0x07	; 7
	.db #0x07	; 7
	.db #0x03	; 3
	.db #0x07	; 7
	.db #0x07	; 7
	.db #0x07	; 7
	.db #0x07	; 7
	.db #0x07	; 7
	.db #0x03	; 3
	.db #0x07	; 7
	.db #0x07	; 7
	.db #0x07	; 7
	.db #0x04	; 4
	.db #0x01	; 1
	.db #0x02	; 2
	.db #0x02	; 2
	.db #0x01	; 1
	.db #0x01	; 1
	.db #0x07	; 7
	.db #0x07	; 7
	.db #0x07	; 7
	.db #0x07	; 7
	.db #0x07	; 7
	.db #0x07	; 7
	.db #0x07	; 7
	.db #0x04	; 4
	.db #0x07	; 7
	.db #0x07	; 7
	.db #0x07	; 7
	.db #0x07	; 7
	.db #0x07	; 7
	.db #0x07	; 7
	.db #0x01	; 1
	.db #0x01	; 1
	.db #0x02	; 2
	.db #0x02	; 2
	.db #0x01	; 1
	.db #0x01	; 1
	.db #0x01	; 1
	.db #0x01	; 1
	.db #0x04	; 4
	.db #0x07	; 7
	.db #0x04	; 4
	.db #0x07	; 7
	.db #0x04	; 4
	.db #0x07	; 7
	.db #0x07	; 7
	.db #0x07	; 7
	.db #0x04	; 4
	.db #0x07	; 7
	.db #0x01	; 1
	.db #0x01	; 1
	.db #0x01	; 1
	.db #0x02	; 2
	.db #0x02	; 2
	.db #0x02	; 2
	.db #0x02	; 2
	.db #0x01	; 1
	.db #0x01	; 1
	.db #0x01	; 1
	.db #0x01	; 1
	.db #0x01	; 1
	.db #0x01	; 1
	.db #0x01	; 1
	.db #0x07	; 7
	.db #0x07	; 7
	.db #0x07	; 7
	.db #0x01	; 1
	.db #0x01	; 1
	.db #0x01	; 1
	.db #0x01	; 1
	.db #0x01	; 1
	.db #0x02	; 2
	.db #0x02	; 2
	.db #0x02	; 2
	.db #0x02	; 2
	.db #0x02	; 2
	.db #0x02	; 2
	.db #0x02	; 2
	.db #0x02	; 2
	.db #0x02	; 2
	.db #0x02	; 2
	.db #0x02	; 2
	.db #0x01	; 1
	.db #0x07	; 7
	.db #0x07	; 7
	.db #0x07	; 7
	.db #0x01	; 1
	.db #0x02	; 2
	.db #0x02	; 2
	.db #0x02	; 2
	.db #0x02	; 2
	.db #0x02	; 2
	.db #0x02	; 2
	.db #0x02	; 2
__xinit__room_3:
	.db #0x02	; 2
	.db #0x02	; 2
	.db #0x02	; 2
	.db #0x02	; 2
	.db #0x02	; 2
	.db #0x02	; 2
	.db #0x02	; 2
	.db #0x02	; 2
	.db #0x02	; 2
	.db #0x02	; 2
	.db #0x02	; 2
	.db #0x02	; 2
	.db #0x02	; 2
	.db #0x02	; 2
	.db #0x02	; 2
	.db #0x02	; 2
	.db #0x02	; 2
	.db #0x02	; 2
	.db #0x02	; 2
	.db #0x02	; 2
	.db #0x02	; 2
	.db #0x02	; 2
	.db #0x01	; 1
	.db #0x01	; 1
	.db #0x01	; 1
	.db #0x01	; 1
	.db #0x01	; 1
	.db #0x01	; 1
	.db #0x01	; 1
	.db #0x01	; 1
	.db #0x01	; 1
	.db #0x01	; 1
	.db #0x01	; 1
	.db #0x01	; 1
	.db #0x01	; 1
	.db #0x01	; 1
	.db #0x01	; 1
	.db #0x01	; 1
	.db #0x02	; 2
	.db #0x02	; 2
	.db #0x02	; 2
	.db #0x02	; 2
	.db #0x01	; 1
	.db #0x01	; 1
	.db #0x07	; 7
	.db #0x07	; 7
	.db #0x07	; 7
	.db #0x07	; 7
	.db #0x07	; 7
	.db #0x07	; 7
	.db #0x07	; 7
	.db #0x07	; 7
	.db #0x07	; 7
	.db #0x07	; 7
	.db #0x07	; 7
	.db #0x07	; 7
	.db #0x01	; 1
	.db #0x01	; 1
	.db #0x01	; 1
	.db #0x02	; 2
	.db #0x02	; 2
	.db #0x01	; 1
	.db #0x01	; 1
	.db #0x07	; 7
	.db #0x07	; 7
	.db #0x07	; 7
	.db #0x07	; 7
	.db #0x07	; 7
	.db #0x07	; 7
	.db #0x07	; 7
	.db #0x07	; 7
	.db #0x07	; 7
	.db #0x07	; 7
	.db #0x07	; 7
	.db #0x07	; 7
	.db #0x07	; 7
	.db #0x07	; 7
	.db #0x01	; 1
	.db #0x01	; 1
	.db #0x02	; 2
	.db #0x02	; 2
	.db #0x01	; 1
	.db #0x01	; 1
	.db #0x07	; 7
	.db #0x07	; 7
	.db #0x03	; 3
	.db #0x01	; 1
	.db #0x07	; 7
	.db #0x07	; 7
	.db #0x07	; 7
	.db #0x03	; 3
	.db #0x07	; 7
	.db #0x07	; 7
	.db #0x07	; 7
	.db #0x01	; 1
	.db #0x01	; 1
	.db #0x07	; 7
	.db #0x07	; 7
	.db #0x01	; 1
	.db #0x02	; 2
	.db #0x02	; 2
	.db #0x01	; 1
	.db #0x07	; 7
	.db #0x07	; 7
	.db #0x07	; 7
	.db #0x01	; 1
	.db #0x02	; 2
	.db #0x07	; 7
	.db #0x07	; 7
	.db #0x07	; 7
	.db #0x07	; 7
	.db #0x07	; 7
	.db #0x07	; 7
	.db #0x01	; 1
	.db #0x01	; 1
	.db #0x02	; 2
	.db #0x07	; 7
	.db #0x07	; 7
	.db #0x01	; 1
	.db #0x02	; 2
	.db #0x02	; 2
	.db #0x01	; 1
	.db #0x07	; 7
	.db #0x07	; 7
	.db #0x07	; 7
	.db #0x01	; 1
	.db #0x02	; 2
	.db #0x01	; 1
	.db #0x07	; 7
	.db #0x07	; 7
	.db #0x04	; 4
	.db #0x07	; 7
	.db #0x04	; 4
	.db #0x07	; 7
	.db #0x01	; 1
	.db #0x02	; 2
	.db #0x01	; 1
	.db #0x07	; 7
	.db #0x01	; 1
	.db #0x02	; 2
	.db #0x02	; 2
	.db #0x01	; 1
	.db #0x07	; 7
	.db #0x07	; 7
	.db #0x07	; 7
	.db #0x07	; 7
	.db #0x01	; 1
	.db #0x07	; 7
	.db #0x03	; 3
	.db #0x07	; 7
	.db #0x07	; 7
	.db #0x07	; 7
	.db #0x07	; 7
	.db #0x07	; 7
	.db #0x07	; 7
	.db #0x01	; 1
	.db #0x03	; 3
	.db #0x07	; 7
	.db #0x01	; 1
	.db #0x02	; 2
	.db #0x02	; 2
	.db #0x01	; 1
	.db #0x07	; 7
	.db #0x07	; 7
	.db #0x07	; 7
	.db #0x07	; 7
	.db #0x07	; 7
	.db #0x07	; 7
	.db #0x07	; 7
	.db #0x07	; 7
	.db #0x07	; 7
	.db #0x07	; 7
	.db #0x07	; 7
	.db #0x04	; 4
	.db #0x07	; 7
	.db #0x07	; 7
	.db #0x07	; 7
	.db #0x07	; 7
	.db #0x01	; 1
	.db #0x02	; 2
	.db #0x02	; 2
	.db #0x01	; 1
	.db #0x07	; 7
	.db #0x07	; 7
	.db #0x07	; 7
	.db #0x04	; 4
	.db #0x07	; 7
	.db #0x07	; 7
	.db #0x04	; 4
	.db #0x07	; 7
	.db #0x07	; 7
	.db #0x07	; 7
	.db #0x07	; 7
	.db #0x03	; 3
	.db #0x07	; 7
	.db #0x07	; 7
	.db #0x07	; 7
	.db #0x07	; 7
	.db #0x01	; 1
	.db #0x02	; 2
	.db #0x02	; 2
	.db #0x01	; 1
	.db #0x07	; 7
	.db #0x07	; 7
	.db #0x07	; 7
	.db #0x01	; 1
	.db #0x07	; 7
	.db #0x07	; 7
	.db #0x07	; 7
	.db #0x04	; 4
	.db #0x07	; 7
	.db #0x07	; 7
	.db #0x07	; 7
	.db #0x07	; 7
	.db #0x07	; 7
	.db #0x07	; 7
	.db #0x07	; 7
	.db #0x07	; 7
	.db #0x01	; 1
	.db #0x02	; 2
	.db #0x02	; 2
	.db #0x01	; 1
	.db #0x07	; 7
	.db #0x07	; 7
	.db #0x01	; 1
	.db #0x02	; 2
	.db #0x07	; 7
	.db #0x03	; 3
	.db #0x07	; 7
	.db #0x07	; 7
	.db #0x07	; 7
	.db #0x03	; 3
	.db #0x07	; 7
	.db #0x07	; 7
	.db #0x01	; 1
	.db #0x01	; 1
	.db #0x07	; 7
	.db #0x07	; 7
	.db #0x01	; 1
	.db #0x02	; 2
	.db #0x02	; 2
	.db #0x01	; 1
	.db #0x07	; 7
	.db #0x07	; 7
	.db #0x07	; 7
	.db #0x01	; 1
	.db #0x07	; 7
	.db #0x04	; 4
	.db #0x07	; 7
	.db #0x07	; 7
	.db #0x07	; 7
	.db #0x07	; 7
	.db #0x07	; 7
	.db #0x07	; 7
	.db #0x04	; 4
	.db #0x01	; 1
	.db #0x07	; 7
	.db #0x07	; 7
	.db #0x01	; 1
	.db #0x02	; 2
	.db #0x02	; 2
	.db #0x01	; 1
	.db #0x03	; 3
	.db #0x07	; 7
	.db #0x07	; 7
	.db #0x07	; 7
	.db #0x07	; 7
	.db #0x03	; 3
	.db #0x07	; 7
	.db #0x07	; 7
	.db #0x07	; 7
	.db #0x07	; 7
	.db #0x07	; 7
	.db #0x03	; 3
	.db #0x07	; 7
	.db #0x07	; 7
	.db #0x07	; 7
	.db #0x04	; 4
	.db #0x01	; 1
	.db #0x02	; 2
	.db #0x02	; 2
	.db #0x01	; 1
	.db #0x01	; 1
	.db #0x07	; 7
	.db #0x07	; 7
	.db #0x07	; 7
	.db #0x07	; 7
	.db #0x07	; 7
	.db #0x07	; 7
	.db #0x07	; 7
	.db #0x04	; 4
	.db #0x07	; 7
	.db #0x07	; 7
	.db #0x07	; 7
	.db #0x07	; 7
	.db #0x07	; 7
	.db #0x07	; 7
	.db #0x01	; 1
	.db #0x01	; 1
	.db #0x02	; 2
	.db #0x02	; 2
	.db #0x01	; 1
	.db #0x01	; 1
	.db #0x01	; 1
	.db #0x01	; 1
	.db #0x04	; 4
	.db #0x07	; 7
	.db #0x04	; 4
	.db #0x07	; 7
	.db #0x04	; 4
	.db #0x07	; 7
	.db #0x07	; 7
	.db #0x07	; 7
	.db #0x04	; 4
	.db #0x07	; 7
	.db #0x01	; 1
	.db #0x01	; 1
	.db #0x01	; 1
	.db #0x02	; 2
	.db #0x02	; 2
	.db #0x02	; 2
	.db #0x02	; 2
	.db #0x01	; 1
	.db #0x01	; 1
	.db #0x01	; 1
	.db #0x01	; 1
	.db #0x01	; 1
	.db #0x01	; 1
	.db #0x01	; 1
	.db #0x07	; 7
	.db #0x07	; 7
	.db #0x07	; 7
	.db #0x01	; 1
	.db #0x01	; 1
	.db #0x01	; 1
	.db #0x01	; 1
	.db #0x01	; 1
	.db #0x02	; 2
	.db #0x02	; 2
	.db #0x02	; 2
	.db #0x02	; 2
	.db #0x02	; 2
	.db #0x02	; 2
	.db #0x02	; 2
	.db #0x02	; 2
	.db #0x02	; 2
	.db #0x02	; 2
	.db #0x02	; 2
	.db #0x01	; 1
	.db #0x07	; 7
	.db #0x07	; 7
	.db #0x07	; 7
	.db #0x01	; 1
	.db #0x02	; 2
	.db #0x02	; 2
	.db #0x02	; 2
	.db #0x02	; 2
	.db #0x02	; 2
	.db #0x02	; 2
	.db #0x02	; 2
__xinit__current_room:
	.dw _room_1
__xinit__start_screen:
	.db #0x02	; 2
	.db #0x01	; 1
	.db #0x01	; 1
	.db #0x07	; 7
	.db #0x03	; 3
	.db #0x07	; 7
	.db #0x07	; 7
	.db #0x07	; 7
	.db #0x07	; 7
	.db #0x07	; 7
	.db #0x07	; 7
	.db #0x07	; 7
	.db #0x07	; 7
	.db #0x03	; 3
	.db #0x07	; 7
	.db #0x07	; 7
	.db #0x01	; 1
	.db #0x02	; 2
	.db #0x02	; 2
	.db #0x01	; 1
	.db #0x02	; 2
	.db #0x01	; 1
	.db #0x01	; 1
	.db #0x07	; 7
	.db #0x07	; 7
	.db #0x07	; 7
	.db #0x03	; 3
	.db #0x07	; 7
	.db #0x07	; 7
	.db #0x07	; 7
	.db #0x07	; 7
	.db #0x07	; 7
	.db #0x07	; 7
	.db #0x03	; 3
	.db #0x07	; 7
	.db #0x07	; 7
	.db #0x01	; 1
	.db #0x01	; 1
	.db #0x02	; 2
	.db #0x02	; 2
	.db #0x02	; 2
	.db #0x02	; 2
	.db #0x01	; 1
	.db #0x07	; 7
	.db #0x07	; 7
	.db #0x07	; 7
	.db #0x07	; 7
	.db #0x07	; 7
	.db #0x07	; 7
	.db #0x07	; 7
	.db #0x03	; 3
	.db #0x07	; 7
	.db #0x07	; 7
	.db #0x07	; 7
	.db #0x03	; 3
	.db #0x07	; 7
	.db #0x01	; 1
	.db #0x01	; 1
	.db #0x02	; 2
	.db #0x02	; 2
	.db #0x02	; 2
	.db #0x02	; 2
	.db #0x01	; 1
	.db #0x01	; 1
	.db #0x07	; 7
	.db #0x07	; 7
	.db #0x07	; 7
	.db #0x07	; 7
	.db #0x07	; 7
	.db #0x07	; 7
	.db #0x07	; 7
	.db #0x07	; 7
	.db #0x07	; 7
	.db #0x07	; 7
	.db #0x07	; 7
	.db #0x07	; 7
	.db #0x07	; 7
	.db #0x01	; 1
	.db #0x02	; 2
	.db #0x02	; 2
	.db #0x02	; 2
	.db #0x01	; 1
	.db #0x01	; 1
	.db #0x01	; 1
	.db #0x07	; 7
	.db #0x03	; 3
	.db #0x07	; 7
	.db #0x07	; 7
	.db #0x07	; 7
	.db #0x07	; 7
	.db #0x03	; 3
	.db #0x07	; 7
	.db #0x07	; 7
	.db #0x07	; 7
	.db #0x03	; 3
	.db #0x07	; 7
	.db #0x07	; 7
	.db #0x01	; 1
	.db #0x01	; 1
	.db #0x02	; 2
	.db #0x02	; 2
	.db #0x02	; 2
	.db #0x01	; 1
	.db #0x01	; 1
	.db #0x07	; 7
	.db #0x07	; 7
	.db #0x07	; 7
	.db #0x03	; 3
	.db #0x07	; 7
	.db #0x07	; 7
	.db #0x07	; 7
	.db #0x07	; 7
	.db #0x07	; 7
	.db #0x07	; 7
	.db #0x07	; 7
	.db #0x07	; 7
	.db #0x07	; 7
	.db #0x01	; 1
	.db #0x01	; 1
	.db #0x02	; 2
	.db #0x02	; 2
	.db #0x02	; 2
	.db #0x02	; 2
	.db #0x01	; 1
	.db #0x07	; 7
	.db #0x03	; 3
	.db #0x07	; 7
	.db #0x07	; 7
	.db #0x07	; 7
	.db #0x07	; 7
	.db #0x04	; 4
	.db #0x07	; 7
	.db #0x04	; 4
	.db #0x07	; 7
	.db #0x07	; 7
	.db #0x07	; 7
	.db #0x07	; 7
	.db #0x01	; 1
	.db #0x02	; 2
	.db #0x02	; 2
	.db #0x01	; 1
	.db #0x02	; 2
	.db #0x02	; 2
	.db #0x01	; 1
	.db #0x07	; 7
	.db #0x07	; 7
	.db #0x07	; 7
	.db #0x07	; 7
	.db #0x03	; 3
	.db #0x07	; 7
	.db #0x07	; 7
	.db #0x07	; 7
	.db #0x07	; 7
	.db #0x07	; 7
	.db #0x07	; 7
	.db #0x04	; 4
	.db #0x01	; 1
	.db #0x01	; 1
	.db #0x02	; 2
	.db #0x01	; 1
	.db #0x02	; 2
	.db #0x02	; 2
	.db #0x02	; 2
	.db #0x01	; 1
	.db #0x07	; 7
	.db #0x07	; 7
	.db #0x07	; 7
	.db #0x07	; 7
	.db #0x07	; 7
	.db #0x07	; 7
	.db #0x07	; 7
	.db #0x07	; 7
	.db #0x07	; 7
	.db #0x04	; 4
	.db #0x07	; 7
	.db #0x07	; 7
	.db #0x01	; 1
	.db #0x02	; 2
	.db #0x02	; 2
	.db #0x01	; 1
	.db #0x02	; 2
	.db #0x02	; 2
	.db #0x01	; 1
	.db #0x01	; 1
	.db #0x07	; 7
	.db #0x04	; 4
	.db #0x07	; 7
	.db #0x07	; 7
	.db #0x04	; 4
	.db #0x07	; 7
	.db #0x07	; 7
	.db #0x07	; 7
	.db #0x07	; 7
	.db #0x03	; 3
	.db #0x07	; 7
	.db #0x07	; 7
	.db #0x01	; 1
	.db #0x01	; 1
	.db #0x02	; 2
	.db #0x02	; 2
	.db #0x02	; 2
	.db #0x02	; 2
	.db #0x01	; 1
	.db #0x07	; 7
	.db #0x07	; 7
	.db #0x03	; 3
	.db #0x07	; 7
	.db #0x07	; 7
	.db #0x07	; 7
	.db #0x04	; 4
	.db #0x07	; 7
	.db #0x07	; 7
	.db #0x07	; 7
	.db #0x07	; 7
	.db #0x07	; 7
	.db #0x07	; 7
	.db #0x07	; 7
	.db #0x01	; 1
	.db #0x02	; 2
	.db #0x02	; 2
	.db #0x02	; 2
	.db #0x02	; 2
	.db #0x01	; 1
	.db #0x07	; 7
	.db #0x07	; 7
	.db #0x07	; 7
	.db #0x07	; 7
	.db #0x03	; 3
	.db #0x07	; 7
	.db #0x07	; 7
	.db #0x07	; 7
	.db #0x03	; 3
	.db #0x07	; 7
	.db #0x07	; 7
	.db #0x07	; 7
	.db #0x07	; 7
	.db #0x07	; 7
	.db #0x01	; 1
	.db #0x02	; 2
	.db #0x02	; 2
	.db #0x02	; 2
	.db #0x02	; 2
	.db #0x01	; 1
	.db #0x01	; 1
	.db #0x07	; 7
	.db #0x03	; 3
	.db #0x07	; 7
	.db #0x04	; 4
	.db #0x07	; 7
	.db #0x07	; 7
	.db #0x07	; 7
	.db #0x07	; 7
	.db #0x07	; 7
	.db #0x07	; 7
	.db #0x04	; 4
	.db #0x07	; 7
	.db #0x07	; 7
	.db #0x01	; 1
	.db #0x01	; 1
	.db #0x02	; 2
	.db #0x02	; 2
	.db #0x02	; 2
	.db #0x02	; 2
	.db #0x01	; 1
	.db #0x07	; 7
	.db #0x07	; 7
	.db #0x07	; 7
	.db #0x03	; 3
	.db #0x07	; 7
	.db #0x07	; 7
	.db #0x07	; 7
	.db #0x03	; 3
	.db #0x07	; 7
	.db #0x03	; 3
	.db #0x07	; 7
	.db #0x07	; 7
	.db #0x07	; 7
	.db #0x01	; 1
	.db #0x02	; 2
	.db #0x02	; 2
	.db #0x01	; 1
	.db #0x02	; 2
	.db #0x02	; 2
	.db #0x01	; 1
	.db #0x07	; 7
	.db #0x07	; 7
	.db #0x07	; 7
	.db #0x07	; 7
	.db #0x07	; 7
	.db #0x07	; 7
	.db #0x04	; 4
	.db #0x07	; 7
	.db #0x07	; 7
	.db #0x07	; 7
	.db #0x07	; 7
	.db #0x07	; 7
	.db #0x07	; 7
	.db #0x01	; 1
	.db #0x02	; 2
	.db #0x02	; 2
	.db #0x02	; 2
	.db #0x02	; 2
	.db #0x01	; 1
	.db #0x01	; 1
	.db #0x07	; 7
	.db #0x04	; 4
	.db #0x07	; 7
	.db #0x04	; 4
	.db #0x07	; 7
	.db #0x04	; 4
	.db #0x07	; 7
	.db #0x07	; 7
	.db #0x07	; 7
	.db #0x04	; 4
	.db #0x07	; 7
	.db #0x07	; 7
	.db #0x01	; 1
	.db #0x01	; 1
	.db #0x02	; 2
	.db #0x02	; 2
	.db #0x02	; 2
	.db #0x02	; 2
	.db #0x01	; 1
	.db #0x07	; 7
	.db #0x07	; 7
	.db #0x03	; 3
	.db #0x07	; 7
	.db #0x07	; 7
	.db #0x07	; 7
	.db #0x07	; 7
	.db #0x07	; 7
	.db #0x07	; 7
	.db #0x07	; 7
	.db #0x07	; 7
	.db #0x07	; 7
	.db #0x07	; 7
	.db #0x01	; 1
	.db #0x02	; 2
	.db #0x02	; 2
	.db #0x01	; 1
	.db #0x02	; 2
	.db #0x01	; 1
	.db #0x01	; 1
	.db #0x07	; 7
	.db #0x07	; 7
	.db #0x07	; 7
	.db #0x07	; 7
	.db #0x07	; 7
	.db #0x07	; 7
	.db #0x03	; 3
	.db #0x07	; 7
	.db #0x03	; 3
	.db #0x07	; 7
	.db #0x07	; 7
	.db #0x07	; 7
	.db #0x07	; 7
	.db #0x01	; 1
	.db #0x02	; 2
	.db #0x01	; 1
	.db #0x01	; 1
	.db #0x02	; 2
	.db #0x01	; 1
	.db #0x01	; 1
	.db #0x07	; 7
	.db #0x03	; 3
	.db #0x07	; 7
	.db #0x07	; 7
	.db #0x07	; 7
	.db #0x07	; 7
	.db #0x07	; 7
	.db #0x07	; 7
	.db #0x07	; 7
	.db #0x07	; 7
	.db #0x03	; 3
	.db #0x07	; 7
	.db #0x07	; 7
	.db #0x01	; 1
	.db #0x02	; 2
	.db #0x02	; 2
	.db #0x01	; 1
	.db #0x02	; 2
	.db #0x01	; 1
	.db #0x01	; 1
	.db #0x07	; 7
	.db #0x07	; 7
	.db #0x07	; 7
	.db #0x03	; 3
	.db #0x07	; 7
	.db #0x07	; 7
	.db #0x07	; 7
	.db #0x07	; 7
	.db #0x07	; 7
	.db #0x07	; 7
	.db #0x03	; 3
	.db #0x07	; 7
	.db #0x07	; 7
	.db #0x01	; 1
	.db #0x01	; 1
	.db #0x02	; 2
	.db #0x02	; 2
	.db #0x02	; 2
	.db #0x02	; 2
	.db #0x01	; 1
	.db #0x07	; 7
	.db #0x07	; 7
	.db #0x07	; 7
	.db #0x07	; 7
	.db #0x07	; 7
	.db #0x07	; 7
	.db #0x07	; 7
	.db #0x03	; 3
	.db #0x07	; 7
	.db #0x07	; 7
	.db #0x07	; 7
	.db #0x03	; 3
	.db #0x07	; 7
	.db #0x01	; 1
	.db #0x01	; 1
	.db #0x02	; 2
	.db #0x02	; 2
	.db #0x02	; 2
	.db #0x02	; 2
	.db #0x01	; 1
	.db #0x01	; 1
	.db #0x07	; 7
	.db #0x07	; 7
	.db #0x07	; 7
	.db #0x07	; 7
	.db #0x07	; 7
	.db #0x07	; 7
	.db #0x07	; 7
	.db #0x07	; 7
	.db #0x07	; 7
	.db #0x07	; 7
	.db #0x07	; 7
	.db #0x07	; 7
	.db #0x07	; 7
	.db #0x01	; 1
	.db #0x02	; 2
	.db #0x02	; 2
	.db #0x02	; 2
	.db #0x01	; 1
	.db #0x01	; 1
	.db #0x01	; 1
	.db #0x07	; 7
	.db #0x03	; 3
	.db #0x07	; 7
	.db #0x07	; 7
	.db #0x07	; 7
	.db #0x07	; 7
	.db #0x03	; 3
	.db #0x07	; 7
	.db #0x07	; 7
	.db #0x07	; 7
	.db #0x03	; 3
	.db #0x07	; 7
	.db #0x07	; 7
	.db #0x01	; 1
	.db #0x01	; 1
	.db #0x02	; 2
	.db #0x02	; 2
	.db #0x02	; 2
	.db #0x01	; 1
	.db #0x01	; 1
	.db #0x07	; 7
	.db #0x07	; 7
	.db #0x07	; 7
	.db #0x03	; 3
	.db #0x07	; 7
	.db #0x07	; 7
	.db #0x07	; 7
	.db #0x07	; 7
	.db #0x07	; 7
	.db #0x07	; 7
	.db #0x07	; 7
	.db #0x07	; 7
	.db #0x07	; 7
	.db #0x01	; 1
	.db #0x01	; 1
	.db #0x02	; 2
	.db #0x02	; 2
	.db #0x02	; 2
	.db #0x02	; 2
	.db #0x01	; 1
	.db #0x07	; 7
	.db #0x03	; 3
	.db #0x07	; 7
	.db #0x07	; 7
	.db #0x07	; 7
	.db #0x07	; 7
	.db #0x04	; 4
	.db #0x07	; 7
	.db #0x04	; 4
	.db #0x07	; 7
	.db #0x07	; 7
	.db #0x07	; 7
	.db #0x07	; 7
	.db #0x01	; 1
	.db #0x02	; 2
	.db #0x02	; 2
	.db #0x01	; 1
	.db #0x02	; 2
	.db #0x02	; 2
	.db #0x01	; 1
	.db #0x07	; 7
	.db #0x07	; 7
	.db #0x07	; 7
	.db #0x07	; 7
	.db #0x03	; 3
	.db #0x07	; 7
	.db #0x07	; 7
	.db #0x07	; 7
	.db #0x07	; 7
	.db #0x07	; 7
	.db #0x07	; 7
	.db #0x04	; 4
	.db #0x01	; 1
	.db #0x01	; 1
	.db #0x02	; 2
	.db #0x01	; 1
	.db #0x02	; 2
	.db #0x02	; 2
	.db #0x02	; 2
	.db #0x01	; 1
	.db #0x07	; 7
	.db #0x07	; 7
	.db #0x07	; 7
	.db #0x07	; 7
	.db #0x07	; 7
	.db #0x07	; 7
	.db #0x07	; 7
	.db #0x07	; 7
	.db #0x07	; 7
	.db #0x04	; 4
	.db #0x07	; 7
	.db #0x07	; 7
	.db #0x01	; 1
	.db #0x02	; 2
	.db #0x02	; 2
	.db #0x01	; 1
	.db #0x02	; 2
	.db #0x02	; 2
	.db #0x01	; 1
	.db #0x01	; 1
	.db #0x07	; 7
	.db #0x04	; 4
	.db #0x07	; 7
	.db #0x07	; 7
	.db #0x04	; 4
	.db #0x07	; 7
	.db #0x07	; 7
	.db #0x07	; 7
	.db #0x07	; 7
	.db #0x03	; 3
	.db #0x07	; 7
	.db #0x07	; 7
	.db #0x01	; 1
	.db #0x01	; 1
	.db #0x02	; 2
	.db #0x02	; 2
	.db #0x02	; 2
	.db #0x02	; 2
	.db #0x01	; 1
	.db #0x07	; 7
	.db #0x07	; 7
	.db #0x03	; 3
	.db #0x07	; 7
	.db #0x07	; 7
	.db #0x07	; 7
	.db #0x04	; 4
	.db #0x07	; 7
	.db #0x07	; 7
	.db #0x07	; 7
	.db #0x07	; 7
	.db #0x07	; 7
	.db #0x07	; 7
	.db #0x07	; 7
	.db #0x01	; 1
	.db #0x02	; 2
	.db #0x02	; 2
	.db #0x02	; 2
	.db #0x02	; 2
	.db #0x01	; 1
	.db #0x07	; 7
	.db #0x07	; 7
	.db #0x07	; 7
	.db #0x07	; 7
	.db #0x03	; 3
	.db #0x07	; 7
	.db #0x07	; 7
	.db #0x07	; 7
	.db #0x03	; 3
	.db #0x07	; 7
	.db #0x07	; 7
	.db #0x07	; 7
	.db #0x07	; 7
	.db #0x07	; 7
	.db #0x01	; 1
	.db #0x02	; 2
	.db #0x02	; 2
	.db #0x02	; 2
	.db #0x02	; 2
	.db #0x01	; 1
	.db #0x01	; 1
	.db #0x07	; 7
	.db #0x03	; 3
	.db #0x07	; 7
	.db #0x04	; 4
	.db #0x07	; 7
	.db #0x07	; 7
	.db #0x07	; 7
	.db #0x07	; 7
	.db #0x07	; 7
	.db #0x07	; 7
	.db #0x04	; 4
	.db #0x07	; 7
	.db #0x07	; 7
	.db #0x01	; 1
	.db #0x01	; 1
	.db #0x02	; 2
	.db #0x02	; 2
	.db #0x02	; 2
	.db #0x02	; 2
	.db #0x01	; 1
	.db #0x07	; 7
	.db #0x07	; 7
	.db #0x07	; 7
	.db #0x03	; 3
	.db #0x07	; 7
	.db #0x07	; 7
	.db #0x07	; 7
	.db #0x03	; 3
	.db #0x07	; 7
	.db #0x03	; 3
	.db #0x07	; 7
	.db #0x07	; 7
	.db #0x07	; 7
	.db #0x01	; 1
	.db #0x02	; 2
	.db #0x02	; 2
	.db #0x01	; 1
	.db #0x02	; 2
	.db #0x02	; 2
	.db #0x01	; 1
	.db #0x07	; 7
	.db #0x07	; 7
	.db #0x07	; 7
	.db #0x07	; 7
	.db #0x07	; 7
	.db #0x07	; 7
	.db #0x04	; 4
	.db #0x07	; 7
	.db #0x07	; 7
	.db #0x07	; 7
	.db #0x07	; 7
	.db #0x07	; 7
	.db #0x07	; 7
	.db #0x01	; 1
	.db #0x02	; 2
	.db #0x02	; 2
	.db #0x02	; 2
	.db #0x02	; 2
	.db #0x01	; 1
	.db #0x01	; 1
	.db #0x07	; 7
	.db #0x04	; 4
	.db #0x07	; 7
	.db #0x04	; 4
	.db #0x07	; 7
	.db #0x04	; 4
	.db #0x07	; 7
	.db #0x07	; 7
	.db #0x07	; 7
	.db #0x04	; 4
	.db #0x07	; 7
	.db #0x07	; 7
	.db #0x01	; 1
	.db #0x01	; 1
	.db #0x02	; 2
	.db #0x02	; 2
	.db #0x02	; 2
	.db #0x02	; 2
	.db #0x01	; 1
	.db #0x07	; 7
	.db #0x07	; 7
	.db #0x03	; 3
	.db #0x07	; 7
	.db #0x07	; 7
	.db #0x07	; 7
	.db #0x07	; 7
	.db #0x07	; 7
	.db #0x07	; 7
	.db #0x07	; 7
	.db #0x07	; 7
	.db #0x07	; 7
	.db #0x07	; 7
	.db #0x01	; 1
	.db #0x02	; 2
	.db #0x02	; 2
	.db #0x01	; 1
	.db #0x02	; 2
	.db #0x01	; 1
	.db #0x01	; 1
	.db #0x07	; 7
	.db #0x07	; 7
	.db #0x07	; 7
	.db #0x07	; 7
	.db #0x07	; 7
	.db #0x07	; 7
	.db #0x03	; 3
	.db #0x07	; 7
	.db #0x03	; 3
	.db #0x07	; 7
	.db #0x07	; 7
	.db #0x07	; 7
	.db #0x07	; 7
	.db #0x01	; 1
	.db #0x02	; 2
	.db #0x01	; 1
	.db #0x01	; 1
__xinit__player_x:
	.dw #0x0050
__xinit__player_y:
	.dw #0x0050
__xinit__you_win:
	.db #0x00	;  0
__xinit__path:
	.db #0x00	;  0
	.db 0x00
	.db 0x00
	.db 0x00
	.db 0x00
	.db 0x00
	.db 0x00
	.db 0x00
	.db 0x00
	.db 0x00
	.db 0x00
	.db 0x00
	.db 0x00
	.db 0x00
	.db 0x00
	.db 0x00
	.db 0x00
	.db 0x00
	.db 0x00
	.db 0x00
	.db 0x00
	.db 0x00
	.db 0x00
	.db 0x00
	.db 0x00
	.db 0x00
	.db 0x00
	.db 0x00
	.db 0x00
	.db 0x00
	.db 0x00
	.db 0x00
__xinit__path_hash:
	.db #0x19	;  25
	.db #0x19	;  25
	.db #0x08	;  8
	.db #0x16	;  22
	.db #0x07	;  7
	.db #0x00	;  0
	.db #0x19	;  25
	.db #0x11	;  17
	.db #0x08	;  8
	.db #0x16	;  22
	.db #0x11	;  17
	.db #0x19	;  25
	.db #0x00	;  0
	.db #0x1e	;  30
	.db #0x07	;  7
	.db #0x11	;  17
__xinit__path_num:
	.db #0x00	;  0
__xinit__time:
	.dw #0x0000
__xinit__player_sprite_id:
	.dw #0x0000
	.area _CABS (ABS)
