                                      1 ;--------------------------------------------------------
                                      2 ; File Created by SDCC : free open source ISO C Compiler 
                                      3 ; Version 4.4.1 #14650 (Linux)
                                      4 ;--------------------------------------------------------
                                      5 	.module libc_memcpy
                                      6 	.optsdcc -msm83
                                      7 	
                                      8 ;--------------------------------------------------------
                                      9 ; Public variables in this module
                                     10 ;--------------------------------------------------------
                                     11 	.globl _main
                                     12 	.globl _benchmark_memcpy
                                     13 	.globl _font_set
                                     14 	.globl _font_load
                                     15 	.globl _font_init
                                     16 	.globl _memset
                                     17 	.globl _memmove
                                     18 	.globl _memcpy
                                     19 	.globl _puts
                                     20 	.globl _printf
                                     21 	.globl _memcpy_dst
                                     22 	.globl _memcpy_src
                                     23 ;--------------------------------------------------------
                                     24 ; special function registers
                                     25 ;--------------------------------------------------------
                                     26 ;--------------------------------------------------------
                                     27 ; ram data
                                     28 ;--------------------------------------------------------
                                     29 	.area _DATA
    00000000                         30 _memcpy_dst::
    00000000                         31 	.ds 300
                                     32 ;--------------------------------------------------------
                                     33 ; ram data
                                     34 ;--------------------------------------------------------
                                     35 	.area _INITIALIZED
                                     36 ;--------------------------------------------------------
                                     37 ; absolute external ram data
                                     38 ;--------------------------------------------------------
                                     39 	.area _DABS (ABS)
                                     40 ;--------------------------------------------------------
                                     41 ; global & static initialisations
                                     42 ;--------------------------------------------------------
                                     43 	.area _HOME
                                     44 	.area _GSINIT
                                     45 	.area _GSFINAL
                                     46 	.area _GSINIT
                                     47 ;--------------------------------------------------------
                                     48 ; Home
                                     49 ;--------------------------------------------------------
                                     50 	.area _HOME
                                     51 	.area _HOME
                                     52 ;--------------------------------------------------------
                                     53 ; code
                                     54 ;--------------------------------------------------------
                                     55 	.area _CODE
                                     56 ;src/libc_memcpy.c:16: int benchmark_memcpy(int num, int size)
                                     57 ;	---------------------------------
                                     58 ; Function benchmark_memcpy
                                     59 ; ---------------------------------
    00000000                         60 _benchmark_memcpy::
    00000000 E8 F8            [16]   61 	add	sp, #-8
    00000002 F8 04            [12]   62 	ldhl	sp,	#4
    00000004 7B               [ 4]   63 	ld	a, e
    00000005 22               [ 8]   64 	ld	(hl+), a
    00000006 72               [ 8]   65 	ld	(hl), d
    00000007 F8 02            [12]   66 	ldhl	sp,	#2
    00000009 79               [ 4]   67 	ld	a, c
    0000000A 22               [ 8]   68 	ld	(hl+), a
    0000000B 70               [ 8]   69 	ld	(hl), b
                                     70 ;src/libc_memcpy.c:19: uint16_t start_time = sys_time;
    0000000C FAr00r00         [16]   71 	ld	a, (#_sys_time)
    0000000F F8 00            [12]   72 	ldhl	sp,	#0
    00000011 77               [ 8]   73 	ld	(hl), a
    00000012 FAr01r00         [16]   74 	ld	a, (#_sys_time + 1)
    00000015 F8 01            [12]   75 	ldhl	sp,	#1
    00000017 77               [ 8]   76 	ld	(hl), a
                                     77 ;src/libc_memcpy.c:20: for(i = 0; i < num; i++)
    00000018 AF               [ 4]   78 	xor	a, a
    00000019 F8 06            [12]   79 	ldhl	sp,	#6
    0000001B 22               [ 8]   80 	ld	(hl+), a
    0000001C 77               [ 8]   81 	ld	(hl), a
    0000001D                         82 00103$:
    0000001D F8 06            [12]   83 	ldhl	sp,	#6
    0000001F 5D               [ 4]   84 	ld	e, l
    00000020 54               [ 4]   85 	ld	d, h
    00000021 F8 04            [12]   86 	ldhl	sp,	#4
    00000023 1A               [ 8]   87 	ld	a, (de)
    00000024 13               [ 8]   88 	inc	de
    00000025 96               [ 8]   89 	sub	a, (hl)
    00000026 23               [ 8]   90 	inc	hl
    00000027 1A               [ 8]   91 	ld	a, (de)
    00000028 9E               [ 8]   92 	sbc	a, (hl)
    00000029 1A               [ 8]   93 	ld	a, (de)
    0000002A 57               [ 4]   94 	ld	d, a
    0000002B CB 7E            [12]   95 	bit	7, (hl)
    0000002D 28 07            [12]   96 	jr	Z, 00122$
    0000002F CB 7A            [ 8]   97 	bit	7, d
    00000031 20 08            [12]   98 	jr	NZ, 00123$
    00000033 BF               [ 4]   99 	cp	a, a
    00000034 18 05            [12]  100 	jr	00123$
    00000036                        101 00122$:
    00000036 CB 7A            [ 8]  102 	bit	7, d
    00000038 28 01            [12]  103 	jr	Z, 00123$
    0000003A 37               [ 4]  104 	scf
    0000003B                        105 00123$:
    0000003B 30 18            [12]  106 	jr	NC, 00101$
                                    107 ;src/libc_memcpy.c:21: memcpy(memcpy_dst, memcpy_src, size);
    0000003D F8 02            [12]  108 	ldhl	sp,	#2
    0000003F 2A               [ 8]  109 	ld	a, (hl+)
    00000040 5F               [ 4]  110 	ld	e, a
    00000041 56               [ 8]  111 	ld	d, (hl)
    00000042 D5               [16]  112 	push	de
    00000043 01r67r00         [12]  113 	ld	bc, #_memcpy_src
    00000046 11r00r00         [12]  114 	ld	de, #_memcpy_dst
    00000049 CDr00r00         [24]  115 	call	_memcpy
                                    116 ;src/libc_memcpy.c:20: for(i = 0; i < num; i++)
    0000004C F8 06            [12]  117 	ldhl	sp,	#6
    0000004E 34               [12]  118 	inc	(hl)
    0000004F 20 CC            [12]  119 	jr	NZ, 00103$
    00000051 23               [ 8]  120 	inc	hl
    00000052 34               [12]  121 	inc	(hl)
    00000053 18 C8            [12]  122 	jr	00103$
    00000055                        123 00101$:
                                    124 ;src/libc_memcpy.c:22: return (int)(sys_time - start_time);
    00000055 21r00r00         [12]  125 	ld	hl, #_sys_time
    00000058 2A               [ 8]  126 	ld	a, (hl+)
    00000059 5F               [ 4]  127 	ld	e, a
    0000005A 56               [ 8]  128 	ld	d, (hl)
    0000005B E1               [12]  129 	pop	hl
    0000005C E5               [16]  130 	push	hl
    0000005D 7B               [ 4]  131 	ld	a, e
    0000005E 95               [ 4]  132 	sub	a, l
    0000005F 5F               [ 4]  133 	ld	e, a
    00000060 7A               [ 4]  134 	ld	a, d
    00000061 9C               [ 4]  135 	sbc	a, h
    00000062 47               [ 4]  136 	ld	b, a
    00000063 4B               [ 4]  137 	ld	c, e
                                    138 ;src/libc_memcpy.c:23: }
    00000064 E8 08            [16]  139 	add	sp, #8
    00000066 C9               [16]  140 	ret
    00000067                        141 _memcpy_src:
    00000067 00                     142 	.db #0x00	; 0
    00000068 00                     143 	.db 0x00
    00000069 00                     144 	.db 0x00
    0000006A 00                     145 	.db 0x00
    0000006B 00                     146 	.db 0x00
    0000006C 00                     147 	.db 0x00
    0000006D 00                     148 	.db 0x00
    0000006E 00                     149 	.db 0x00
    0000006F 00                     150 	.db 0x00
    00000070 00                     151 	.db 0x00
    00000071 00                     152 	.db 0x00
    00000072 00                     153 	.db 0x00
    00000073 00                     154 	.db 0x00
    00000074 00                     155 	.db 0x00
    00000075 00                     156 	.db 0x00
    00000076 00                     157 	.db 0x00
    00000077 00                     158 	.db 0x00
    00000078 00                     159 	.db 0x00
    00000079 00                     160 	.db 0x00
    0000007A 00                     161 	.db 0x00
    0000007B 00                     162 	.db 0x00
    0000007C 00                     163 	.db 0x00
    0000007D 00                     164 	.db 0x00
    0000007E 00                     165 	.db 0x00
    0000007F 00                     166 	.db 0x00
    00000080 00                     167 	.db 0x00
    00000081 00                     168 	.db 0x00
    00000082 00                     169 	.db 0x00
    00000083 00                     170 	.db 0x00
    00000084 00                     171 	.db 0x00
    00000085 00                     172 	.db 0x00
    00000086 00                     173 	.db 0x00
    00000087 00                     174 	.db 0x00
    00000088 00                     175 	.db 0x00
    00000089 00                     176 	.db 0x00
    0000008A 00                     177 	.db 0x00
    0000008B 00                     178 	.db 0x00
    0000008C 00                     179 	.db 0x00
    0000008D 00                     180 	.db 0x00
    0000008E 00                     181 	.db 0x00
    0000008F 00                     182 	.db 0x00
    00000090 00                     183 	.db 0x00
    00000091 00                     184 	.db 0x00
    00000092 00                     185 	.db 0x00
    00000093 00                     186 	.db 0x00
    00000094 00                     187 	.db 0x00
    00000095 00                     188 	.db 0x00
    00000096 00                     189 	.db 0x00
    00000097 00                     190 	.db 0x00
    00000098 00                     191 	.db 0x00
    00000099 00                     192 	.db 0x00
    0000009A 00                     193 	.db 0x00
    0000009B 00                     194 	.db 0x00
    0000009C 00                     195 	.db 0x00
    0000009D 00                     196 	.db 0x00
    0000009E 00                     197 	.db 0x00
    0000009F 00                     198 	.db 0x00
    000000A0 00                     199 	.db 0x00
    000000A1 00                     200 	.db 0x00
    000000A2 00                     201 	.db 0x00
    000000A3 00                     202 	.db 0x00
    000000A4 00                     203 	.db 0x00
    000000A5 00                     204 	.db 0x00
    000000A6 00                     205 	.db 0x00
    000000A7 00                     206 	.db 0x00
    000000A8 00                     207 	.db 0x00
    000000A9 00                     208 	.db 0x00
    000000AA 00                     209 	.db 0x00
    000000AB 00                     210 	.db 0x00
    000000AC 00                     211 	.db 0x00
    000000AD 00                     212 	.db 0x00
    000000AE 00                     213 	.db 0x00
    000000AF 00                     214 	.db 0x00
    000000B0 00                     215 	.db 0x00
    000000B1 00                     216 	.db 0x00
    000000B2 00                     217 	.db 0x00
    000000B3 00                     218 	.db 0x00
    000000B4 00                     219 	.db 0x00
    000000B5 00                     220 	.db 0x00
    000000B6 00                     221 	.db 0x00
    000000B7 00                     222 	.db 0x00
    000000B8 00                     223 	.db 0x00
    000000B9 00                     224 	.db 0x00
    000000BA 00                     225 	.db 0x00
    000000BB 00                     226 	.db 0x00
    000000BC 00                     227 	.db 0x00
    000000BD 00                     228 	.db 0x00
    000000BE 00                     229 	.db 0x00
    000000BF 00                     230 	.db 0x00
    000000C0 00                     231 	.db 0x00
    000000C1 00                     232 	.db 0x00
    000000C2 00                     233 	.db 0x00
    000000C3 00                     234 	.db 0x00
    000000C4 00                     235 	.db 0x00
    000000C5 00                     236 	.db 0x00
    000000C6 00                     237 	.db 0x00
    000000C7 00                     238 	.db 0x00
    000000C8 00                     239 	.db 0x00
    000000C9 00                     240 	.db 0x00
    000000CA 00                     241 	.db 0x00
    000000CB 00                     242 	.db 0x00
    000000CC 00                     243 	.db 0x00
    000000CD 00                     244 	.db 0x00
    000000CE 00                     245 	.db 0x00
    000000CF 00                     246 	.db 0x00
    000000D0 00                     247 	.db 0x00
    000000D1 00                     248 	.db 0x00
    000000D2 00                     249 	.db 0x00
    000000D3 00                     250 	.db 0x00
    000000D4 00                     251 	.db 0x00
    000000D5 00                     252 	.db 0x00
    000000D6 00                     253 	.db 0x00
    000000D7 00                     254 	.db 0x00
    000000D8 00                     255 	.db 0x00
    000000D9 00                     256 	.db 0x00
    000000DA 00                     257 	.db 0x00
    000000DB 00                     258 	.db 0x00
    000000DC 00                     259 	.db 0x00
    000000DD 00                     260 	.db 0x00
    000000DE 00                     261 	.db 0x00
    000000DF 00                     262 	.db 0x00
    000000E0 00                     263 	.db 0x00
    000000E1 00                     264 	.db 0x00
    000000E2 00                     265 	.db 0x00
    000000E3 00                     266 	.db 0x00
    000000E4 00                     267 	.db 0x00
    000000E5 00                     268 	.db 0x00
    000000E6 00                     269 	.db 0x00
    000000E7 00                     270 	.db 0x00
    000000E8 00                     271 	.db 0x00
    000000E9 00                     272 	.db 0x00
    000000EA 00                     273 	.db 0x00
    000000EB 00                     274 	.db 0x00
    000000EC 00                     275 	.db 0x00
    000000ED 00                     276 	.db 0x00
    000000EE 00                     277 	.db 0x00
    000000EF 00                     278 	.db 0x00
    000000F0 00                     279 	.db 0x00
    000000F1 00                     280 	.db 0x00
    000000F2 00                     281 	.db 0x00
    000000F3 00                     282 	.db 0x00
    000000F4 00                     283 	.db 0x00
    000000F5 00                     284 	.db 0x00
    000000F6 00                     285 	.db 0x00
    000000F7 00                     286 	.db 0x00
    000000F8 00                     287 	.db 0x00
    000000F9 00                     288 	.db 0x00
    000000FA 00                     289 	.db 0x00
    000000FB 00                     290 	.db 0x00
    000000FC 00                     291 	.db 0x00
    000000FD 00                     292 	.db 0x00
    000000FE 00                     293 	.db 0x00
    000000FF 00                     294 	.db 0x00
    00000100 00                     295 	.db 0x00
    00000101 00                     296 	.db 0x00
    00000102 00                     297 	.db 0x00
    00000103 00                     298 	.db 0x00
    00000104 00                     299 	.db 0x00
    00000105 00                     300 	.db 0x00
    00000106 00                     301 	.db 0x00
    00000107 00                     302 	.db 0x00
    00000108 00                     303 	.db 0x00
    00000109 00                     304 	.db 0x00
    0000010A 00                     305 	.db 0x00
    0000010B 00                     306 	.db 0x00
    0000010C 00                     307 	.db 0x00
    0000010D 00                     308 	.db 0x00
    0000010E 00                     309 	.db 0x00
    0000010F 00                     310 	.db 0x00
    00000110 00                     311 	.db 0x00
    00000111 00                     312 	.db 0x00
    00000112 00                     313 	.db 0x00
    00000113 00                     314 	.db 0x00
    00000114 00                     315 	.db 0x00
    00000115 00                     316 	.db 0x00
    00000116 00                     317 	.db 0x00
    00000117 00                     318 	.db 0x00
    00000118 00                     319 	.db 0x00
    00000119 00                     320 	.db 0x00
    0000011A 00                     321 	.db 0x00
    0000011B 00                     322 	.db 0x00
    0000011C 00                     323 	.db 0x00
    0000011D 00                     324 	.db 0x00
    0000011E 00                     325 	.db 0x00
    0000011F 00                     326 	.db 0x00
    00000120 00                     327 	.db 0x00
    00000121 00                     328 	.db 0x00
    00000122 00                     329 	.db 0x00
    00000123 00                     330 	.db 0x00
    00000124 00                     331 	.db 0x00
    00000125 00                     332 	.db 0x00
    00000126 00                     333 	.db 0x00
    00000127 00                     334 	.db 0x00
    00000128 00                     335 	.db 0x00
    00000129 00                     336 	.db 0x00
    0000012A 00                     337 	.db 0x00
    0000012B 00                     338 	.db 0x00
    0000012C 00                     339 	.db 0x00
    0000012D 00                     340 	.db 0x00
    0000012E 00                     341 	.db 0x00
    0000012F 00                     342 	.db 0x00
    00000130 00                     343 	.db 0x00
    00000131 00                     344 	.db 0x00
    00000132 00                     345 	.db 0x00
    00000133 00                     346 	.db 0x00
    00000134 00                     347 	.db 0x00
    00000135 00                     348 	.db 0x00
    00000136 00                     349 	.db 0x00
    00000137 00                     350 	.db 0x00
    00000138 00                     351 	.db 0x00
    00000139 00                     352 	.db 0x00
    0000013A 00                     353 	.db 0x00
    0000013B 00                     354 	.db 0x00
    0000013C 00                     355 	.db 0x00
    0000013D 00                     356 	.db 0x00
    0000013E 00                     357 	.db 0x00
    0000013F 00                     358 	.db 0x00
    00000140 00                     359 	.db 0x00
    00000141 00                     360 	.db 0x00
    00000142 00                     361 	.db 0x00
    00000143 00                     362 	.db 0x00
    00000144 00                     363 	.db 0x00
    00000145 00                     364 	.db 0x00
    00000146 00                     365 	.db 0x00
    00000147 00                     366 	.db 0x00
    00000148 00                     367 	.db 0x00
    00000149 00                     368 	.db 0x00
    0000014A 00                     369 	.db 0x00
    0000014B 00                     370 	.db 0x00
    0000014C 00                     371 	.db 0x00
    0000014D 00                     372 	.db 0x00
    0000014E 00                     373 	.db 0x00
    0000014F 00                     374 	.db 0x00
    00000150 00                     375 	.db 0x00
    00000151 00                     376 	.db 0x00
    00000152 00                     377 	.db 0x00
    00000153 00                     378 	.db 0x00
    00000154 00                     379 	.db 0x00
    00000155 00                     380 	.db 0x00
    00000156 00                     381 	.db 0x00
    00000157 00                     382 	.db 0x00
    00000158 00                     383 	.db 0x00
    00000159 00                     384 	.db 0x00
    0000015A 00                     385 	.db 0x00
    0000015B 00                     386 	.db 0x00
    0000015C 00                     387 	.db 0x00
    0000015D 00                     388 	.db 0x00
    0000015E 00                     389 	.db 0x00
    0000015F 00                     390 	.db 0x00
    00000160 00                     391 	.db 0x00
    00000161 00                     392 	.db 0x00
    00000162 00                     393 	.db 0x00
    00000163 00                     394 	.db 0x00
    00000164 00                     395 	.db 0x00
    00000165 00                     396 	.db 0x00
    00000166 00                     397 	.db 0x00
    00000167 00                     398 	.db 0x00
    00000168 00                     399 	.db 0x00
    00000169 00                     400 	.db 0x00
    0000016A 00                     401 	.db 0x00
    0000016B 00                     402 	.db 0x00
    0000016C 00                     403 	.db 0x00
    0000016D 00                     404 	.db 0x00
    0000016E 00                     405 	.db 0x00
    0000016F 00                     406 	.db 0x00
    00000170 00                     407 	.db 0x00
    00000171 00                     408 	.db 0x00
    00000172 00                     409 	.db 0x00
    00000173 00                     410 	.db 0x00
    00000174 00                     411 	.db 0x00
    00000175 00                     412 	.db 0x00
    00000176 00                     413 	.db 0x00
    00000177 00                     414 	.db 0x00
    00000178 00                     415 	.db 0x00
    00000179 00                     416 	.db 0x00
    0000017A 00                     417 	.db 0x00
    0000017B 00                     418 	.db 0x00
    0000017C 00                     419 	.db 0x00
    0000017D 00                     420 	.db 0x00
    0000017E 00                     421 	.db 0x00
    0000017F 00                     422 	.db 0x00
    00000180 00                     423 	.db 0x00
    00000181 00                     424 	.db 0x00
    00000182 00                     425 	.db 0x00
    00000183 00                     426 	.db 0x00
    00000184 00                     427 	.db 0x00
    00000185 00                     428 	.db 0x00
    00000186 00                     429 	.db 0x00
    00000187 00                     430 	.db 0x00
    00000188 00                     431 	.db 0x00
    00000189 00                     432 	.db 0x00
    0000018A 00                     433 	.db 0x00
    0000018B 00                     434 	.db 0x00
    0000018C 00                     435 	.db 0x00
    0000018D 00                     436 	.db 0x00
    0000018E 00                     437 	.db 0x00
    0000018F 00                     438 	.db 0x00
    00000190 00                     439 	.db 0x00
    00000191 00                     440 	.db 0x00
    00000192 00                     441 	.db 0x00
                                    442 ;src/libc_memcpy.c:25: void main(void)
                                    443 ;	---------------------------------
                                    444 ; Function main
                                    445 ; ---------------------------------
    00000193                        446 _main::
    00000193 E8 FC            [16]  447 	add	sp, #-4
                                    448 ;src/libc_memcpy.c:30: font_init();
    00000195 CDr00r00         [24]  449 	call	_font_init
                                    450 ;src/libc_memcpy.c:31: ibm_font = font_load(font_ibm);
    00000198 11r00r00         [12]  451 	ld	de, #_font_ibm
    0000019B D5               [16]  452 	push	de
    0000019C CDr00r00         [24]  453 	call	_font_load
    0000019F E1               [12]  454 	pop	hl
                                    455 ;src/libc_memcpy.c:32: font_set(ibm_font);
    000001A0 D5               [16]  456 	push	de
    000001A1 CDr00r00         [24]  457 	call	_font_set
    000001A4 E1               [12]  458 	pop	hl
                                    459 ;src/libc_memcpy.c:36: char dst[4] = "dst";
    000001A5 F8 00            [12]  460 	ldhl	sp,	#0
    000001A7 4D               [ 4]  461 	ld	c, l
    000001A8 44               [ 4]  462 	ld	b, h
    000001A9 36 64            [12]  463 	ld	(hl), #0x64
    000001AB F8 01            [12]  464 	ldhl	sp,	#1
    000001AD 3E 73            [ 8]  465 	ld	a, #0x73
    000001AF 22               [ 8]  466 	ld	(hl+), a
    000001B0 3E 74            [ 8]  467 	ld	a, #0x74
    000001B2 22               [ 8]  468 	ld	(hl+), a
    000001B3 36 00            [12]  469 	ld	(hl), #0x00
                                    470 ;src/libc_memcpy.c:37: const char* src = "src";
                                    471 ;src/libc_memcpy.c:38: printf("memcpy(dst,src,2)\n-> %s\n", memcpy(dst, src, 2));
    000001B5 59               [ 4]  472 	ld	e, c
    000001B6 50               [ 4]  473 	ld	d, b
    000001B7 01 02 00         [12]  474 	ld	bc, #0x0002
    000001BA C5               [16]  475 	push	bc
    000001BB 01r45r02         [12]  476 	ld	bc, #___str_1
    000001BE CDr00r00         [24]  477 	call	_memcpy
    000001C1 C5               [16]  478 	push	bc
    000001C2 11r49r02         [12]  479 	ld	de, #___str_4
    000001C5 D5               [16]  480 	push	de
    000001C6 CDr00r00         [24]  481 	call	_printf
    000001C9 E8 04            [16]  482 	add	sp, #4
                                    483 ;src/libc_memcpy.c:42: char dst[4] = "dst";
    000001CB F8 00            [12]  484 	ldhl	sp,	#0
    000001CD 4D               [ 4]  485 	ld	c, l
    000001CE 44               [ 4]  486 	ld	b, h
    000001CF 36 64            [12]  487 	ld	(hl), #0x64
    000001D1 F8 01            [12]  488 	ldhl	sp,	#1
    000001D3 3E 73            [ 8]  489 	ld	a, #0x73
    000001D5 22               [ 8]  490 	ld	(hl+), a
    000001D6 3E 74            [ 8]  491 	ld	a, #0x74
    000001D8 22               [ 8]  492 	ld	(hl+), a
    000001D9 36 00            [12]  493 	ld	(hl), #0x00
                                    494 ;src/libc_memcpy.c:43: const char* src = "src";
                                    495 ;src/libc_memcpy.c:44: printf("memmove(dst,src,2)\n-> %s\n", memmove(dst, src, 2));
    000001DB 59               [ 4]  496 	ld	e, c
    000001DC 50               [ 4]  497 	ld	d, b
    000001DD 01 02 00         [12]  498 	ld	bc, #0x0002
    000001E0 C5               [16]  499 	push	bc
    000001E1 01r45r02         [12]  500 	ld	bc, #___str_1
    000001E4 CDr00r00         [24]  501 	call	_memmove
    000001E7 C5               [16]  502 	push	bc
    000001E8 11r62r02         [12]  503 	ld	de, #___str_5
    000001EB D5               [16]  504 	push	de
    000001EC CDr00r00         [24]  505 	call	_printf
    000001EF E8 04            [16]  506 	add	sp, #4
                                    507 ;src/libc_memcpy.c:48: char dst[4] = "dst";
    000001F1 F8 00            [12]  508 	ldhl	sp,	#0
    000001F3 4D               [ 4]  509 	ld	c, l
    000001F4 44               [ 4]  510 	ld	b, h
    000001F5 36 64            [12]  511 	ld	(hl), #0x64
    000001F7 F8 01            [12]  512 	ldhl	sp,	#1
    000001F9 3E 73            [ 8]  513 	ld	a, #0x73
    000001FB 22               [ 8]  514 	ld	(hl+), a
    000001FC 3E 74            [ 8]  515 	ld	a, #0x74
    000001FE 22               [ 8]  516 	ld	(hl+), a
                                    517 ;src/libc_memcpy.c:49: printf("memset(dst,x,2)\n-> %s\n", memset(dst, 'x', 2));
    000001FF 11 02 00         [12]  518 	ld	de, #0x0002
    00000202 72               [ 8]  519 	ld	(hl), d
    00000203 D5               [16]  520 	push	de
    00000204 11 78 00         [12]  521 	ld	de, #0x0078
    00000207 D5               [16]  522 	push	de
    00000208 C5               [16]  523 	push	bc
    00000209 CDr00r00         [24]  524 	call	_memset
    0000020C E8 06            [16]  525 	add	sp, #6
    0000020E D5               [16]  526 	push	de
    0000020F 11r7Cr02         [12]  527 	ld	de, #___str_6
    00000212 D5               [16]  528 	push	de
    00000213 CDr00r00         [24]  529 	call	_printf
    00000216 E8 04            [16]  530 	add	sp, #4
                                    531 ;src/libc_memcpy.c:52: printf("\nBenchmark memcpy:\n");
    00000218 11r93r02         [12]  532 	ld	de, #___str_8
    0000021B CDr00r00         [24]  533 	call	_puts
                                    534 ;src/libc_memcpy.c:54: printf("800*memcpy(d,s,150)\n-> %d frames\n", benchmark_memcpy(800, 150));
    0000021E 01 96 00         [12]  535 	ld	bc, #0x0096
    00000221 11 20 03         [12]  536 	ld	de, #0x0320
    00000224 CDr00r00         [24]  537 	call	_benchmark_memcpy
    00000227 C5               [16]  538 	push	bc
    00000228 11rA6r02         [12]  539 	ld	de, #___str_9
    0000022B D5               [16]  540 	push	de
    0000022C CDr00r00         [24]  541 	call	_printf
    0000022F E8 04            [16]  542 	add	sp, #4
                                    543 ;src/libc_memcpy.c:55: printf("400*memcpy(d,s,300)\n-> %d frames\n", benchmark_memcpy(400, 300));
    00000231 01 2C 01         [12]  544 	ld	bc, #0x012c
    00000234 11 90 01         [12]  545 	ld	de, #0x0190
    00000237 CDr00r00         [24]  546 	call	_benchmark_memcpy
    0000023A C5               [16]  547 	push	bc
    0000023B 11rC8r02         [12]  548 	ld	de, #___str_10
    0000023E D5               [16]  549 	push	de
    0000023F CDr00r00         [24]  550 	call	_printf
                                    551 ;src/libc_memcpy.c:57: }
    00000242 E8 08            [16]  552 	add	sp, #8
    00000244 C9               [16]  553 	ret
    00000245                        554 ___str_1:
    00000245 73 72 63               555 	.ascii "src"
    00000248 00                     556 	.db 0x00
    00000249                        557 ___str_4:
    00000249 6D 65 6D 63 70 79 28   558 	.ascii "memcpy(dst,src,2)"
             64 73 74 2C 73 72 63
             2C 32 29
    0000025A 0A                     559 	.db 0x0a
    0000025B 2D 3E 20 25 73         560 	.ascii "-> %s"
    00000260 0A                     561 	.db 0x0a
    00000261 00                     562 	.db 0x00
    00000262                        563 ___str_5:
    00000262 6D 65 6D 6D 6F 76 65   564 	.ascii "memmove(dst,src,2)"
             28 64 73 74 2C 73 72
             63 2C 32 29
    00000274 0A                     565 	.db 0x0a
    00000275 2D 3E 20 25 73         566 	.ascii "-> %s"
    0000027A 0A                     567 	.db 0x0a
    0000027B 00                     568 	.db 0x00
    0000027C                        569 ___str_6:
    0000027C 6D 65 6D 73 65 74 28   570 	.ascii "memset(dst,x,2)"
             64 73 74 2C 78 2C 32
             29
    0000028B 0A                     571 	.db 0x0a
    0000028C 2D 3E 20 25 73         572 	.ascii "-> %s"
    00000291 0A                     573 	.db 0x0a
    00000292 00                     574 	.db 0x00
    00000293                        575 ___str_8:
    00000293 0A                     576 	.db 0x0a
    00000294 42 65 6E 63 68 6D 61   577 	.ascii "Benchmark memcpy:"
             72 6B 20 6D 65 6D 63
             70 79 3A
    000002A5 00                     578 	.db 0x00
    000002A6                        579 ___str_9:
    000002A6 38 30 30 2A 6D 65 6D   580 	.ascii "800*memcpy(d,s,150)"
             63 70 79 28 64 2C 73
             2C 31 35 30 29
    000002B9 0A                     581 	.db 0x0a
    000002BA 2D 3E 20 25 64 20 66   582 	.ascii "-> %d frames"
             72 61 6D 65 73
    000002C6 0A                     583 	.db 0x0a
    000002C7 00                     584 	.db 0x00
    000002C8                        585 ___str_10:
    000002C8 34 30 30 2A 6D 65 6D   586 	.ascii "400*memcpy(d,s,300)"
             63 70 79 28 64 2C 73
             2C 33 30 30 29
    000002DB 0A                     587 	.db 0x0a
    000002DC 2D 3E 20 25 64 20 66   588 	.ascii "-> %d frames"
             72 61 6D 65 73
    000002E8 0A                     589 	.db 0x0a
    000002E9 00                     590 	.db 0x00
                                    591 	.area _CODE
                                    592 	.area _INITIALIZER
                                    593 	.area _CABS (ABS)
