ASxxxx Linker V03.00/V05.40 + sdld,  page 1.
Hexadecimal  [32-Bits]

Area                       Addr        Size        Decimal Bytes (Attributes)
--------------------       ----        ----        ------- ----- ------------
_FONT_HEADER0          00000000    00000003 =           3. bytes (ABS,CON)

        Value  Global            Value  Global            Value  Global    
        -----  ------            -----  ------            -----  ------    
     00000000  l_VECTORS |    00000000  l__BASE   |    00000000  l__CABS  
     00000000  l__CODE_0 |    00000000  l__DABS   |    00000000  l__FONT_H
     00000000  l__GSFINA |    00000000  l__GSINIT |    00000000  l__HEAP  
     00000000  l__HEAP_E |    00000000  l__INITIA |    00000000  l__INITIA
     00000000  l__LIT    |    00000000  l__OSEG   |    00000000  l__RODATA
     00000000  s_OSEG    |    00000000  s_VECTORS |    00000000  s_VECTORS
     00000000  s__CABS   |    00000000  s__DABS   |    00000000  s__FONT_H
     00000000  s__FONT_H |    00000003  l__FONT_H |    00000004  l_OSEG   
     00000006  l_VECTORS |    0000000B  l__DATA   |    0000000B  l__XINIT 
     0000000D  l_GBDKOVR |    00000010  s_GBDKOVR |    00000019  l__CODE_1
     00000019  l__CODE_2 |    00000019  l__CODE_3 |    00000020  s__ZP    
     00000037  l__ZP     |    00000057  s__OSEG   |    00000082  l__BSS   
     00000300  s__DATA   |    0000030B  s__BSS    |    0000038D  s__HEAP  
     0000038D  s__HEAP_E |    0000038D  s__INITIA |    00000A73  l__HOME  
     00000DBC  l__CODE   |    00008000  s__CODE_0 |    0000C000  s__CODE  
     0000CDBC  s__HOME   |    0000D82F  s__BASE   |    0000D82F  s__INITIA
     0000D82F  s__LIT    |    0000D82F  s__RODATA |    0000D82F  s__XINIT 
     0000D83A  s__GSFINA |    0000D83A  s__GSINIT |    00018000  s__CODE_1
     00028000  s__CODE_2 |    00038000  s__CODE_3
ASxxxx Linker V03.00/V05.40 + sdld,  page 2.
Hexadecimal  [32-Bits]

Area                       Addr        Size        Decimal Bytes (Attributes)
--------------------       ----        ----        ------- ----- ------------
VECTORS0               00000000    00000006 =           6. bytes (ABS,CON)

        Value  Global            Value  Global            Value  Global    
        -----  ------            -----  ------            -----  ------    
ASxxxx Linker V03.00/V05.40 + sdld,  page 3.
Hexadecimal  [32-Bits]

Area                       Addr        Size        Decimal Bytes (Attributes)
--------------------       ----        ----        ------- ----- ------------
.  .ABS.               00000000    00000000 =           0. bytes (ABS,CON)

        Value  Global            Value  Global            Value  Global    
        -----  ------            -----  ------            -----  ------    
     00000000  .__.ABS.  |    00000001  b_bank_1  |    00000002  b_bank_2 
     00000003  b_bank_3  |    00000100  __vram_tr |    00000188  _attribut
     00000200  _shadow_O |    00002000  _PPUCTRL  |    00002001  _PPUMASK 
     00002002  _PPUSTATU |    00002003  _OAMADDR  |    00002004  _OAMDATA 
     00002005  _PPUSCROL |    00002006  _PPUADDR  |    00002007  _PPUDATA 
     00004014  _OAMDMA  
ASxxxx Linker V03.00/V05.40 + sdld,  page 4.
Hexadecimal  [32-Bits]

Area                       Addr        Size        Decimal Bytes (Attributes)
--------------------       ----        ----        ------- ----- ------------
_CODE                  0000C000    00000DBC =        3516. bytes (REL,CON)

        Value  Global            Value  Global            Value  Global    
        -----  ------            -----  ------            -----  ------    
     0000C000  .identity |    0000C000  _identity |    0000C1C2  .delay_to
     0000C358  .wait_vbl |    0000C358  _vsync    |    0000C358  _wait_vbl
     0000C3D8  .display_ |    0000C3D8  _display_ |    0000C3E5  .display_
     0000C3E5  _display_ |    0000C4ED  _main     |    0000C616  ___memcpy
     0000C648  .add_VBL  |    0000C648  _add_VBL  |    0000C64C  .add_LCD 
     0000C64C  _add_LCD  |    0000C65E  .remove_V |    0000C65E  _remove_V
     0000C662  .remove_L |    0000C662  _remove_L |    0000C66C  ___sdcc_b
     0000C6A4  _printf   |    0000C6DA  ___crlf   |    0000C70F  ___printf
     0000CB9B  _sprintf  |    0000CC0D  ___uitoa  |    0000CCF4  _uitoa   
     0000CD10  _itoa     |    0000CD80  __sdcc_in |    0000CD83  __moduint
     0000CD8B  __divuint |    0000CD93  ___udivmo
ASxxxx Linker V03.00/V05.40 + sdld,  page 5.
Hexadecimal  [32-Bits]

Area                       Addr        Size        Decimal Bytes (Attributes)
--------------------       ----        ----        ------- ----- ------------
_HOME                  0000CDBC    00000A73 =        2675. bytes (REL,CON)

        Value  Global            Value  Global            Value  Global    
        -----  ------            -----  ------            -----  ------    
     0000CDBC  _bank_fix |    0000CDC3  .ppu_stri |    0000CDD8  .ppu_stri
     0000CE20  .ppu_stri |    0000CE4E  .ppu_stri |    0000CE62  .ppu_stri
     0000CE62  _set_vram |    0000CF4F  _flush_sh |    0000D04A  _hide_spr
     0000D062  _puts     |    0000D095  _font_loa |    0000D09D  font_load
     0000D105  font_copy |    0000D158  font_set  |    0000D171  .put_char
     0000D186  .out_char |    0000D18C  .del_char |    0000D1DB  _putchar 
     0000D1DE  _setchar  |    0000D1E1  _font_loa |    0000D1E4  _font_set
     0000D1E8  _font_ini |    0000D206  .cls      |    0000D206  _cls     
     0000D20F  _gotoxy   |    0000D216  _posx     |    0000D224  _posy    
     0000D24A  .cr_curs  |    0000D260  .adv_curs |    0000D296  .tmode   
     0000D2A0  .tmode_ou |    0000D2A9  _set_bkg_ |    0000D2BB  _set_spri
     0000D3D3  _get_bkg_ |    0000D3EC  _set_bkg_ |    0000D3F2  _set_bkg_
     0000D47D  _font_ibm
ASxxxx Linker V03.00/V05.40 + sdld,  page 6.
Hexadecimal  [32-Bits]

Area                       Addr        Size        Decimal Bytes (Attributes)
--------------------       ----        ----        ------- ----- ------------
_XINIT                 0000D82F    0000000B =          11. bytes (REL,CON)

        Value  Global            Value  Global            Value  Global    
        -----  ------            -----  ------            -----  ------    
ASxxxx Linker V03.00/V05.40 + sdld,  page 7.
Hexadecimal  [32-Bits]

Area                       Addr        Size        Decimal Bytes (Attributes)
--------------------       ----        ----        ------- ----- ------------
_DATA                  00000300    0000000B =          11. bytes (REL,CON)

        Value  Global            Value  Global            Value  Global    
        -----  ------            -----  ------            -----  ------    
     00000300  ___render |    00000301  .jmp_to_V |    00000304  .jmp_to_L
     00000307  .curx     |    00000308  .cury     |    00000309  .fg_colou
     00000309  __current |    0000030A  .bg_colou
ASxxxx Linker V03.00/V05.40 + sdld,  page 8.
Hexadecimal  [32-Bits]

Area                       Addr        Size        Decimal Bytes (Attributes)
--------------------       ----        ----        ------- ----- ------------
_BSS                   0000030B    00000082 =         130. bytes (REL,CON)

        Value  Global            Value  Global            Value  Global    
        -----  ------            -----  ------            -----  ------    
     0000030B  __crt0_pa |    00000324  .mode     |    0000033A  _var_0   
     0000033C  _var_2    |    0000033E  _var_1    |    00000340  _var_3   
     00000342  _var_inte |    00000348  ___printf |    0000034A  ___printf
     0000034C  ___printf |    00000367  font_curr |    0000036A  font_firs
     0000036B  font_tabl |    0000037D  ___uitoa_ |    0000037F  ___uitoa_
     00000383  _uitoa_PA |    00000385  _uitoa_PA |    00000386  _itoa_PAR
     00000388  _itoa_PAR
ASxxxx Linker V03.00/V05.40 + sdld,  page 9.
Hexadecimal  [32-Bits]

Area                       Addr        Size        Decimal Bytes (Attributes)
--------------------       ----        ----        ------- ----- ------------
OSEG                   00000000    00000004 =           4. bytes (REL,OVR,PAG)

        Value  Global            Value  Global            Value  Global    
        -----  ------            -----  ------            -----  ------    
     00000000  ___memcpy |    00000000  __divsint |    00000000  __divuint
     00000000  __modsint |    00000000  __moduint |    00000002  ___memcpy
ASxxxx Linker V03.00/V05.40 + sdld,  page 10.
Hexadecimal  [32-Bits]

Area                       Addr        Size        Decimal Bytes (Attributes)
--------------------       ----        ----        ------- ----- ------------
GBDKOVR                00000010    0000000D =          13. bytes (REL,OVR,PAG)

        Value  Global            Value  Global            Value  Global    
        -----  ------            -----  ------            -----  ------    
     00000010  _set_bkg_ |    00000010  _set_bkg_ |    00000010  _set_bkg_
     00000010  _set_spri |    00000010  _set_vram |    00000011  .bkg_tile
ASxxxx Linker V03.00/V05.40 + sdld,  page 11.
Hexadecimal  [32-Bits]

Area                       Addr        Size        Decimal Bytes (Attributes)
--------------------       ----        ----        ------- ----- ------------
_ZP                    00000020    00000037 =          55. bytes (REL,CON,PAG)

        Value  Global            Value  Global            Value  Global    
        -----  ------            -----  ------            -----  ------    
     00000020  __shadow_ |    00000021  __current |    00000022  _sys_time
     00000024  _shadow_P |    00000025  _shadow_P |    00000028  _bkg_scro
     00000029  _bkg_scro |    0000002A  _attribut |    0000002B  _attribut
     0000002C  .crt0_for |    0000002D  __SYSTEM  |    0000002E  __vram_tr
     0000002F  __vram_tr |    00000030  __vram_tr |    00000031  __vram_tr
     00000032  REGTEMP   |    0000003A  __lcd_sca |    0000003D  ___SDCC_m
     0000003E  ___SDCC_m |    0000003F  ___SDCC_m |    00000040  ___SDCC_m
     00000041  ___SDCC_m |    00000042  ___SDCC_m |    00000043  ___SDCC_m
     00000044  ___SDCC_m |    00000055  DPTR     
ASxxxx Linker V03.00/V05.40 + sdld,  page 12.
Hexadecimal  [32-Bits]

Area                       Addr        Size        Decimal Bytes (Attributes)
--------------------       ----        ----        ------- ----- ------------
_CODE_2                00028000    00000019 =          25. bytes (REL,CON)

        Value  Global            Value  Global            Value  Global    
        -----  ------            -----  ------            -----  ------    
     00028000  _bank_2  
ASxxxx Linker V03.00/V05.40 + sdld,  page 13.
Hexadecimal  [32-Bits]

Area                       Addr        Size        Decimal Bytes (Attributes)
--------------------       ----        ----        ------- ----- ------------
_CODE_1                00018000    00000019 =          25. bytes (REL,CON)

        Value  Global            Value  Global            Value  Global    
        -----  ------            -----  ------            -----  ------    
     00018000  _bank_1  
ASxxxx Linker V03.00/V05.40 + sdld,  page 14.
Hexadecimal  [32-Bits]

Area                       Addr        Size        Decimal Bytes (Attributes)
--------------------       ----        ----        ------- ----- ------------
_CODE_3                00038000    00000019 =          25. bytes (REL,CON)

        Value  Global            Value  Global            Value  Global    
        -----  ------            -----  ------            -----  ------    
     00038000  _bank_3  
ASxxxx Linker V03.00/V05.40 + sdld,  page 15.

Files Linked                              [ module(s) ]

../../../lib/nes/crt0.o                   [ crt0 ]
obj/nes/bank.ba0.bo0.rel                  [ bank_ba0_bo0 ]
obj/nes/bank.ba0.bo2.rel                  [ bank_ba0_bo2 ]
obj/nes/bank.ba1.bo1.rel                  [ bank_ba1_bo1 ]
obj/nes/bank.ba1.bo3.rel                  [ bank_ba1_bo3 ]
obj/nes/banks.rel                         [ banks ]


Libraries Linked                          [ object file ]

../../../lib/nes/nes.lib                  [ vram_transfer_buffer.o ]
../../../lib/mos6502/mos6502.lib          [ _memcpy.o ]
../../../lib/nes/nes.lib                  [ flush_attributes.o ]
../../../lib/nes/nes.lib                  [ metasprites_hide_spr.o ]
../../../lib/mos6502/mos6502.lib          [ _temp.o ]
../../../lib/nes/nes.lib                  [ lcd.o ]
../../../lib/nes/nes.lib                  [ sdcc_bcall.o ]
../../../lib/mos6502/mos6502.lib          [ puts.o ]
../../../lib/mos6502/mos6502.lib          [ _ret01.o ]
../../../lib/mos6502/mos6502.lib          [ _ret23.o ]
../../../lib/mos6502/mos6502.lib          [ _ret4567.o ]
../../../lib/mos6502/mos6502.lib          [ printf.o ]
../../../lib/nes/nes.lib                  [ crlf.o ]
../../../lib/mos6502/mos6502.lib          [ sprintf.o ]
../../../lib/nes/nes.lib                  [ font.o ]
../../../lib/nes/nes.lib                  [ set_data.o ]
../../../lib/nes/nes.lib                  [ set_tile.o ]
../../../lib/mos6502/mos6502.lib          [ __itoa.o ]
../../../lib/nes/nes.lib                  [ set_1bit_data.o ]
../../../lib/nes/nes.lib                  [ color.o ]
../../../lib/nes/nes.lib                  [ f_ibm_sh.o ]
../../../lib/mos6502/mos6502.lib          [ __sdcc_indirect_jsr.o ]
../../../lib/mos6502/mos6502.lib          [ _dptr.o ]
../../../lib/mos6502/mos6502.lib          [ _moduint.o ]
../../../lib/mos6502/mos6502.lib          [ _divuint.o ]

ASxxxx Linker V03.00/V05.40 + sdld,  page 16.

User Base Address Definitions

_DATA=0x0300
_CODE=0xC000
VECTORS=0xFFFA
OSEG=0x00
GBDKOVR=0x10
_ZP=0x20

