                                      1 ;--------------------------------------------------------
                                      2 ; File Created by SDCC : free open source ISO C Compiler 
                                      3 ; Version 4.4.1 #14650 (Linux)
                                      4 ;--------------------------------------------------------
                                      5 	.module libc_memcpy
                                      6 	.optsdcc -mmos6502
                                      7 	
                                      8 ;; Ordering of segments for the linker.
                                      9 	.area _ZP      (PAG)
                                     10 	.area _OSEG    (PAG, OVR)
                                     11 	.area _HOME
                                     12 	.area _GSINIT
                                     13 	.area _GSFINAL
                                     14 	.area _CODE
                                     15 	.area _XINIT
                                     16 	.area _DATA
                                     17 	.area _DATA
                                     18 	.area _BSS
                                     19 ;--------------------------------------------------------
                                     20 ; Public variables in this module
                                     21 ;--------------------------------------------------------
                                     22 	.globl _memcpy_src
                                     23 	.globl _main
                                     24 	.globl _benchmark_memcpy
                                     25 	.globl _font_set
                                     26 	.globl _font_load
                                     27 	.globl _font_init
                                     28 	.globl _memset
                                     29 	.globl _memmove
                                     30 	.globl ___memcpy
                                     31 	.globl _printf
                                     32 	.globl _benchmark_memcpy_PARM_2
                                     33 	.globl _memcpy_dst
                                     34 	.globl _OAMDMA
                                     35 	.globl _PPUDATA
                                     36 	.globl _PPUADDR
                                     37 	.globl _PPUSCROLL
                                     38 	.globl _OAMDATA
                                     39 	.globl _OAMADDR
                                     40 	.globl _PPUSTATUS
                                     41 	.globl _PPUMASK
                                     42 	.globl _PPUCTRL
                                     43 ;--------------------------------------------------------
                                     44 ; ZP ram data
                                     45 ;--------------------------------------------------------
                                     46 	.area _ZP      (PAG)
    00000000                         47 _benchmark_memcpy_sloc0_1_0:
    00000000                         48 	.ds 2
                                     49 ;--------------------------------------------------------
                                     50 ; overlayable items in ram
                                     51 ;--------------------------------------------------------
                                     52 ;--------------------------------------------------------
                                     53 ; uninitialized external ram data
                                     54 ;--------------------------------------------------------
                                     55 	.area _BSS
                         00002000    56 _PPUCTRL	=	0x2000
                         00002001    57 _PPUMASK	=	0x2001
                         00002002    58 _PPUSTATUS	=	0x2002
                         00002003    59 _OAMADDR	=	0x2003
                         00002004    60 _OAMDATA	=	0x2004
                         00002005    61 _PPUSCROLL	=	0x2005
                         00002006    62 _PPUADDR	=	0x2006
                         00002007    63 _PPUDATA	=	0x2007
                         00004014    64 _OAMDMA	=	0x4014
    00000000                         65 _memcpy_dst::
    00000000                         66 	.ds 300
    0000012C                         67 _benchmark_memcpy_PARM_2:
    0000012C                         68 	.ds 2
    0000012E                         69 _benchmark_memcpy_num_10000_115:
    0000012E                         70 	.ds 2
    00000130                         71 _benchmark_memcpy_start_time_10000_116:
    00000130                         72 	.ds 2
    00000132                         73 _main_dst_20000_120:
    00000132                         74 	.ds 4
    00000136                         75 _main_dst_20000_121:
    00000136                         76 	.ds 4
    0000013A                         77 _main_dst_20000_122:
    0000013A                         78 	.ds 4
                                     79 ;--------------------------------------------------------
                                     80 ; absolute external ram data
                                     81 ;--------------------------------------------------------
                                     82 	.area _DABS    (ABS)
                                     83 ;--------------------------------------------------------
                                     84 ; initialized external ram data
                                     85 ;--------------------------------------------------------
                                     86 	.area _DATA
                                     87 ;--------------------------------------------------------
                                     88 ; global & static initialisations
                                     89 ;--------------------------------------------------------
                                     90 	.area _HOME
                                     91 	.area _GSINIT
                                     92 	.area _GSFINAL
                                     93 	.area _GSINIT
                                     94 ;--------------------------------------------------------
                                     95 ; Home
                                     96 ;--------------------------------------------------------
                                     97 	.area _HOME
                                     98 	.area _HOME
                                     99 ;--------------------------------------------------------
                                    100 ; code
                                    101 ;--------------------------------------------------------
                                    102 	.area _CODE
                                    103 ;------------------------------------------------------------
                                    104 ;Allocation info for local variables in function 'benchmark_memcpy'
                                    105 ;------------------------------------------------------------
                                    106 ;sloc0                     Allocated with name '_benchmark_memcpy_sloc0_1_0'
                                    107 ;size                      Allocated with name '_benchmark_memcpy_PARM_2'
                                    108 ;num                       Allocated with name '_benchmark_memcpy_num_10000_115'
                                    109 ;i                         Allocated to registers 
                                    110 ;start_time                Allocated with name '_benchmark_memcpy_start_time_10000_116'
                                    111 ;------------------------------------------------------------
                                    112 ;	src/libc_memcpy.c: 16: int benchmark_memcpy(int num, int size)
                                    113 ;	-----------------------------------------
                                    114 ;	 function benchmark_memcpy
                                    115 ;	-----------------------------------------
                                    116 ;	Register assignment is optimal.
                                    117 ;	Stack space usage: 0 bytes.
    00000000                        118 _benchmark_memcpy:
    00000000 8Dr2Er01         [ 4]  119 	sta	_benchmark_memcpy_num_10000_115
    00000003 8Er2Fr01         [ 4]  120 	stx	(_benchmark_memcpy_num_10000_115 + 1)
                                    121 ;	src/libc_memcpy.c: 19: uint16_t start_time = sys_time;
    00000006 ADr01r00         [ 4]  122 	lda	(_sys_time + 1)
    00000009 8Dr31r01         [ 4]  123 	sta	(_benchmark_memcpy_start_time_10000_116 + 1)
    0000000C ADr00r00         [ 4]  124 	lda	_sys_time
    0000000F 8Dr30r01         [ 4]  125 	sta	_benchmark_memcpy_start_time_10000_116
                                    126 ;	src/libc_memcpy.c: 20: for(i = 0; i < num; i++)
    00000012 A2 00            [ 2]  127 	ldx	#0x00
    00000014 86*00            [ 3]  128 	stx	*_benchmark_memcpy_sloc0_1_0
    00000016 86*01            [ 3]  129 	stx	*(_benchmark_memcpy_sloc0_1_0 + 1)
    00000018                        130 00103$:
    00000018 A5*00            [ 3]  131 	lda	*_benchmark_memcpy_sloc0_1_0
    0000001A 38               [ 2]  132 	sec
    0000001B EDr2Er01         [ 4]  133 	sbc	_benchmark_memcpy_num_10000_115
    0000001E A5*01            [ 3]  134 	lda	*(_benchmark_memcpy_sloc0_1_0 + 1)
    00000020 EDr2Fr01         [ 4]  135 	sbc	(_benchmark_memcpy_num_10000_115 + 1)
    00000023 50 04            [ 4]  136 	bvc	00121$
    00000025 10 04            [ 4]  137 	bpl	00120$
    00000027 30 28            [ 4]  138 	bmi	00101$
    00000029                        139 00121$:
    00000029 10 26            [ 4]  140 	bpl	00101$
    0000002B                        141 00120$:
                                    142 ;	src/libc_memcpy.c: 21: memcpy(memcpy_dst, memcpy_src, size);
    0000002B A9s01            [ 2]  143 	lda	#>_memcpy_src
    0000002D 8Dr01r00         [ 4]  144 	sta	(___memcpy_PARM_2 + 1)
    00000030 A9r89            [ 2]  145 	lda	#_memcpy_src
    00000032 8Dr00r00         [ 4]  146 	sta	___memcpy_PARM_2
    00000035 ADr2Dr01         [ 4]  147 	lda	(_benchmark_memcpy_PARM_2 + 1)
    00000038 8Dr01r00         [ 4]  148 	sta	(___memcpy_PARM_3 + 1)
    0000003B ADr2Cr01         [ 4]  149 	lda	_benchmark_memcpy_PARM_2
    0000003E 8Dr00r00         [ 4]  150 	sta	___memcpy_PARM_3
    00000041 A2s00            [ 2]  151 	ldx	#>_memcpy_dst
    00000043 A9r00            [ 2]  152 	lda	#_memcpy_dst
    00000045 20r00r00         [ 6]  153 	jsr	___memcpy
                                    154 ;	src/libc_memcpy.c: 20: for(i = 0; i < num; i++)
    00000048 E6*00            [ 5]  155 	inc	*_benchmark_memcpy_sloc0_1_0
    0000004A D0 CC            [ 4]  156 	bne	00103$
    0000004C E6*01            [ 5]  157 	inc	*(_benchmark_memcpy_sloc0_1_0 + 1)
    0000004E 4Cr18r00         [ 3]  158 	jmp	00103$
    00000051                        159 00101$:
                                    160 ;	src/libc_memcpy.c: 22: return (int)(sys_time - start_time);
    00000051 ADr00r00         [ 4]  161 	lda	_sys_time
    00000054 38               [ 2]  162 	sec
    00000055 EDr30r01         [ 4]  163 	sbc	_benchmark_memcpy_start_time_10000_116
    00000058 48               [ 3]  164 	pha
    00000059 ADr01r00         [ 4]  165 	lda	(_sys_time + 1)
    0000005C EDr31r01         [ 4]  166 	sbc	(_benchmark_memcpy_start_time_10000_116 + 1)
    0000005F AA               [ 2]  167 	tax
    00000060 68               [ 4]  168 	pla
                                    169 ;	src/libc_memcpy.c: 23: }
    00000061 60               [ 6]  170 	rts
                                    171 ;------------------------------------------------------------
                                    172 ;Allocation info for local variables in function 'main'
                                    173 ;------------------------------------------------------------
                                    174 ;ibm_font                  Allocated to registers a x 
                                    175 ;dst                       Allocated with name '_main_dst_20000_120'
                                    176 ;src                       Allocated to registers 
                                    177 ;dst                       Allocated with name '_main_dst_20000_121'
                                    178 ;src                       Allocated to registers 
                                    179 ;dst                       Allocated with name '_main_dst_20000_122'
                                    180 ;------------------------------------------------------------
                                    181 ;	src/libc_memcpy.c: 25: void main(void)
                                    182 ;	-----------------------------------------
                                    183 ;	 function main
                                    184 ;	-----------------------------------------
                                    185 ;	Register assignment is optimal.
                                    186 ;	Stack space usage: 0 bytes.
    00000062                        187 _main:
                                    188 ;	src/libc_memcpy.c: 30: font_init();
    00000062 20r00r00         [ 6]  189 	jsr	_font_init
                                    190 ;	src/libc_memcpy.c: 31: ibm_font = font_load(font_ibm);
    00000065 A2s00            [ 2]  191 	ldx	#>_font_ibm
    00000067 A9r00            [ 2]  192 	lda	#_font_ibm
    00000069 20r00r00         [ 6]  193 	jsr	_font_load
                                    194 ;	src/libc_memcpy.c: 32: font_set(ibm_font);
    0000006C 20r00r00         [ 6]  195 	jsr	_font_set
                                    196 ;	src/libc_memcpy.c: 36: char dst[4] = "dst";
    0000006F A2 64            [ 2]  197 	ldx	#0x64
    00000071 8Er32r01         [ 4]  198 	stx	_main_dst_20000_120
    00000074 A2 73            [ 2]  199 	ldx	#0x73
    00000076 8Er33r01         [ 4]  200 	stx	(_main_dst_20000_120 + 0x0001)
    00000079 E8               [ 2]  201 	inx
    0000007A 8Er34r01         [ 4]  202 	stx	(_main_dst_20000_120 + 0x0002)
    0000007D A2 00            [ 2]  203 	ldx	#0x00
    0000007F 8Er35r01         [ 4]  204 	stx	(_main_dst_20000_120 + 0x0003)
                                    205 ;	src/libc_memcpy.c: 37: const char* src = "src";
                                    206 ;	src/libc_memcpy.c: 38: printf("memcpy(dst,src,2)\n-> %s\n", memcpy(dst, src, 2));
    00000082 A9s02            [ 2]  207 	lda	#>___str_1
    00000084 8Dr01r00         [ 4]  208 	sta	(___memcpy_PARM_2 + 1)
    00000087 A9rB5            [ 2]  209 	lda	#___str_1
    00000089 8Dr00r00         [ 4]  210 	sta	___memcpy_PARM_2
    0000008C A2 02            [ 2]  211 	ldx	#0x02
    0000008E 8Er00r00         [ 4]  212 	stx	___memcpy_PARM_3
    00000091 A2 00            [ 2]  213 	ldx	#0x00
    00000093 8Er01r00         [ 4]  214 	stx	(___memcpy_PARM_3 + 1)
    00000096 A2s01            [ 2]  215 	ldx	#>_main_dst_20000_120
    00000098 A9r32            [ 2]  216 	lda	#_main_dst_20000_120
    0000009A 20r00r00         [ 6]  217 	jsr	___memcpy
    0000009D 85*00            [ 3]  218 	sta	*(REGTEMP+0)
    0000009F 8A               [ 2]  219 	txa
    000000A0 48               [ 3]  220 	pha
    000000A1 A5*00            [ 3]  221 	lda	*(REGTEMP+0)
    000000A3 48               [ 3]  222 	pha
    000000A4 A9s02            [ 2]  223 	lda	#>___str_4
    000000A6 48               [ 3]  224 	pha
    000000A7 A9rB9            [ 2]  225 	lda	#___str_4
    000000A9 48               [ 3]  226 	pha
    000000AA 20r00r00         [ 6]  227 	jsr	_printf
    000000AD 68               [ 4]  228 	pla
    000000AE 68               [ 4]  229 	pla
    000000AF 68               [ 4]  230 	pla
    000000B0 68               [ 4]  231 	pla
                                    232 ;	src/libc_memcpy.c: 42: char dst[4] = "dst";
    000000B1 A2 64            [ 2]  233 	ldx	#0x64
    000000B3 8Er36r01         [ 4]  234 	stx	_main_dst_20000_121
    000000B6 A2 73            [ 2]  235 	ldx	#0x73
    000000B8 8Er37r01         [ 4]  236 	stx	(_main_dst_20000_121 + 0x0001)
    000000BB E8               [ 2]  237 	inx
    000000BC 8Er38r01         [ 4]  238 	stx	(_main_dst_20000_121 + 0x0002)
    000000BF A2 00            [ 2]  239 	ldx	#0x00
    000000C1 8Er39r01         [ 4]  240 	stx	(_main_dst_20000_121 + 0x0003)
                                    241 ;	src/libc_memcpy.c: 43: const char* src = "src";
                                    242 ;	src/libc_memcpy.c: 44: printf("memmove(dst,src,2)\n-> %s\n", memmove(dst, src, 2));
    000000C4 A9s02            [ 2]  243 	lda	#>___str_1
    000000C6 8Dr01r00         [ 4]  244 	sta	(_memmove_PARM_2 + 1)
    000000C9 A9rB5            [ 2]  245 	lda	#___str_1
    000000CB 8Dr00r00         [ 4]  246 	sta	_memmove_PARM_2
    000000CE A2 02            [ 2]  247 	ldx	#0x02
    000000D0 8Er00r00         [ 4]  248 	stx	_memmove_PARM_3
    000000D3 A2 00            [ 2]  249 	ldx	#0x00
    000000D5 8Er01r00         [ 4]  250 	stx	(_memmove_PARM_3 + 1)
    000000D8 A2s01            [ 2]  251 	ldx	#>_main_dst_20000_121
    000000DA A9r36            [ 2]  252 	lda	#_main_dst_20000_121
    000000DC 20r00r00         [ 6]  253 	jsr	_memmove
    000000DF 85*00            [ 3]  254 	sta	*(REGTEMP+0)
    000000E1 8A               [ 2]  255 	txa
    000000E2 48               [ 3]  256 	pha
    000000E3 A5*00            [ 3]  257 	lda	*(REGTEMP+0)
    000000E5 48               [ 3]  258 	pha
    000000E6 A9s02            [ 2]  259 	lda	#>___str_5
    000000E8 48               [ 3]  260 	pha
    000000E9 A9rD2            [ 2]  261 	lda	#___str_5
    000000EB 48               [ 3]  262 	pha
    000000EC 20r00r00         [ 6]  263 	jsr	_printf
    000000EF 68               [ 4]  264 	pla
    000000F0 68               [ 4]  265 	pla
    000000F1 68               [ 4]  266 	pla
    000000F2 68               [ 4]  267 	pla
                                    268 ;	src/libc_memcpy.c: 48: char dst[4] = "dst";
    000000F3 A2 64            [ 2]  269 	ldx	#0x64
    000000F5 8Er3Ar01         [ 4]  270 	stx	_main_dst_20000_122
    000000F8 A2 73            [ 2]  271 	ldx	#0x73
    000000FA 8Er3Br01         [ 4]  272 	stx	(_main_dst_20000_122 + 0x0001)
    000000FD E8               [ 2]  273 	inx
    000000FE 8Er3Cr01         [ 4]  274 	stx	(_main_dst_20000_122 + 0x0002)
    00000101 A2 00            [ 2]  275 	ldx	#0x00
    00000103 8Er3Dr01         [ 4]  276 	stx	(_main_dst_20000_122 + 0x0003)
                                    277 ;	src/libc_memcpy.c: 49: printf("memset(dst,x,2)\n-> %s\n", memset(dst, 'x', 2));
    00000106 A2 78            [ 2]  278 	ldx	#0x78
    00000108 8Er00r00         [ 4]  279 	stx	_memset_PARM_2
    0000010B A2 00            [ 2]  280 	ldx	#0x00
    0000010D 8Er01r00         [ 4]  281 	stx	(_memset_PARM_2 + 1)
    00000110 A2 02            [ 2]  282 	ldx	#0x02
    00000112 8Er00r00         [ 4]  283 	stx	_memset_PARM_3
    00000115 A2 00            [ 2]  284 	ldx	#0x00
    00000117 8Er01r00         [ 4]  285 	stx	(_memset_PARM_3 + 1)
    0000011A A2s01            [ 2]  286 	ldx	#>_main_dst_20000_122
    0000011C A9r3A            [ 2]  287 	lda	#_main_dst_20000_122
    0000011E 20r00r00         [ 6]  288 	jsr	_memset
    00000121 85*00            [ 3]  289 	sta	*(REGTEMP+0)
    00000123 8A               [ 2]  290 	txa
    00000124 48               [ 3]  291 	pha
    00000125 A5*00            [ 3]  292 	lda	*(REGTEMP+0)
    00000127 48               [ 3]  293 	pha
    00000128 A9s02            [ 2]  294 	lda	#>___str_6
    0000012A 48               [ 3]  295 	pha
    0000012B A9rEC            [ 2]  296 	lda	#___str_6
    0000012D 48               [ 3]  297 	pha
    0000012E 20r00r00         [ 6]  298 	jsr	_printf
    00000131 68               [ 4]  299 	pla
    00000132 68               [ 4]  300 	pla
    00000133 68               [ 4]  301 	pla
    00000134 68               [ 4]  302 	pla
                                    303 ;	src/libc_memcpy.c: 52: printf("\nBenchmark memcpy:\n");
    00000135 A9s03            [ 2]  304 	lda	#>___str_7
    00000137 48               [ 3]  305 	pha
    00000138 A9r03            [ 2]  306 	lda	#___str_7
    0000013A 48               [ 3]  307 	pha
    0000013B 20r00r00         [ 6]  308 	jsr	_printf
    0000013E 68               [ 4]  309 	pla
    0000013F 68               [ 4]  310 	pla
                                    311 ;	src/libc_memcpy.c: 54: printf("800*memcpy(d,s,150)\n-> %d frames\n", benchmark_memcpy(800, 150));
    00000140 A2 96            [ 2]  312 	ldx	#0x96
    00000142 8Er2Cr01         [ 4]  313 	stx	_benchmark_memcpy_PARM_2
    00000145 A2 00            [ 2]  314 	ldx	#0x00
    00000147 8Er2Dr01         [ 4]  315 	stx	(_benchmark_memcpy_PARM_2 + 1)
    0000014A A2 03            [ 2]  316 	ldx	#0x03
    0000014C A9 20            [ 2]  317 	lda	#0x20
    0000014E 20r00r00         [ 6]  318 	jsr	_benchmark_memcpy
    00000151 85*00            [ 3]  319 	sta	*(REGTEMP+0)
    00000153 8A               [ 2]  320 	txa
    00000154 48               [ 3]  321 	pha
    00000155 A5*00            [ 3]  322 	lda	*(REGTEMP+0)
    00000157 48               [ 3]  323 	pha
    00000158 A9s03            [ 2]  324 	lda	#>___str_8
    0000015A 48               [ 3]  325 	pha
    0000015B A9r17            [ 2]  326 	lda	#___str_8
    0000015D 48               [ 3]  327 	pha
    0000015E 20r00r00         [ 6]  328 	jsr	_printf
    00000161 68               [ 4]  329 	pla
    00000162 68               [ 4]  330 	pla
    00000163 68               [ 4]  331 	pla
    00000164 68               [ 4]  332 	pla
                                    333 ;	src/libc_memcpy.c: 55: printf("400*memcpy(d,s,300)\n-> %d frames\n", benchmark_memcpy(400, 300));
    00000165 A2 2C            [ 2]  334 	ldx	#0x2c
    00000167 8Er2Cr01         [ 4]  335 	stx	_benchmark_memcpy_PARM_2
    0000016A A2 01            [ 2]  336 	ldx	#0x01
    0000016C 8Er2Dr01         [ 4]  337 	stx	(_benchmark_memcpy_PARM_2 + 1)
    0000016F A9 90            [ 2]  338 	lda	#0x90
    00000171 20r00r00         [ 6]  339 	jsr	_benchmark_memcpy
    00000174 85*00            [ 3]  340 	sta	*(REGTEMP+0)
    00000176 8A               [ 2]  341 	txa
    00000177 48               [ 3]  342 	pha
    00000178 A5*00            [ 3]  343 	lda	*(REGTEMP+0)
    0000017A 48               [ 3]  344 	pha
    0000017B A9s03            [ 2]  345 	lda	#>___str_9
    0000017D 48               [ 3]  346 	pha
    0000017E A9r39            [ 2]  347 	lda	#___str_9
    00000180 48               [ 3]  348 	pha
    00000181 20r00r00         [ 6]  349 	jsr	_printf
    00000184 68               [ 4]  350 	pla
    00000185 68               [ 4]  351 	pla
    00000186 68               [ 4]  352 	pla
    00000187 68               [ 4]  353 	pla
                                    354 ;	src/libc_memcpy.c: 57: }
    00000188 60               [ 6]  355 	rts
                                    356 	.area _CODE
    00000189                        357 _memcpy_src:
    00000189 00                     358 	.db #0x00	; 0
    0000018A 00                     359 	.db 0x00
    0000018B 00                     360 	.db 0x00
    0000018C 00                     361 	.db 0x00
    0000018D 00                     362 	.db 0x00
    0000018E 00                     363 	.db 0x00
    0000018F 00                     364 	.db 0x00
    00000190 00                     365 	.db 0x00
    00000191 00                     366 	.db 0x00
    00000192 00                     367 	.db 0x00
    00000193 00                     368 	.db 0x00
    00000194 00                     369 	.db 0x00
    00000195 00                     370 	.db 0x00
    00000196 00                     371 	.db 0x00
    00000197 00                     372 	.db 0x00
    00000198 00                     373 	.db 0x00
    00000199 00                     374 	.db 0x00
    0000019A 00                     375 	.db 0x00
    0000019B 00                     376 	.db 0x00
    0000019C 00                     377 	.db 0x00
    0000019D 00                     378 	.db 0x00
    0000019E 00                     379 	.db 0x00
    0000019F 00                     380 	.db 0x00
    000001A0 00                     381 	.db 0x00
    000001A1 00                     382 	.db 0x00
    000001A2 00                     383 	.db 0x00
    000001A3 00                     384 	.db 0x00
    000001A4 00                     385 	.db 0x00
    000001A5 00                     386 	.db 0x00
    000001A6 00                     387 	.db 0x00
    000001A7 00                     388 	.db 0x00
    000001A8 00                     389 	.db 0x00
    000001A9 00                     390 	.db 0x00
    000001AA 00                     391 	.db 0x00
    000001AB 00                     392 	.db 0x00
    000001AC 00                     393 	.db 0x00
    000001AD 00                     394 	.db 0x00
    000001AE 00                     395 	.db 0x00
    000001AF 00                     396 	.db 0x00
    000001B0 00                     397 	.db 0x00
    000001B1 00                     398 	.db 0x00
    000001B2 00                     399 	.db 0x00
    000001B3 00                     400 	.db 0x00
    000001B4 00                     401 	.db 0x00
    000001B5 00                     402 	.db 0x00
    000001B6 00                     403 	.db 0x00
    000001B7 00                     404 	.db 0x00
    000001B8 00                     405 	.db 0x00
    000001B9 00                     406 	.db 0x00
    000001BA 00                     407 	.db 0x00
    000001BB 00                     408 	.db 0x00
    000001BC 00                     409 	.db 0x00
    000001BD 00                     410 	.db 0x00
    000001BE 00                     411 	.db 0x00
    000001BF 00                     412 	.db 0x00
    000001C0 00                     413 	.db 0x00
    000001C1 00                     414 	.db 0x00
    000001C2 00                     415 	.db 0x00
    000001C3 00                     416 	.db 0x00
    000001C4 00                     417 	.db 0x00
    000001C5 00                     418 	.db 0x00
    000001C6 00                     419 	.db 0x00
    000001C7 00                     420 	.db 0x00
    000001C8 00                     421 	.db 0x00
    000001C9 00                     422 	.db 0x00
    000001CA 00                     423 	.db 0x00
    000001CB 00                     424 	.db 0x00
    000001CC 00                     425 	.db 0x00
    000001CD 00                     426 	.db 0x00
    000001CE 00                     427 	.db 0x00
    000001CF 00                     428 	.db 0x00
    000001D0 00                     429 	.db 0x00
    000001D1 00                     430 	.db 0x00
    000001D2 00                     431 	.db 0x00
    000001D3 00                     432 	.db 0x00
    000001D4 00                     433 	.db 0x00
    000001D5 00                     434 	.db 0x00
    000001D6 00                     435 	.db 0x00
    000001D7 00                     436 	.db 0x00
    000001D8 00                     437 	.db 0x00
    000001D9 00                     438 	.db 0x00
    000001DA 00                     439 	.db 0x00
    000001DB 00                     440 	.db 0x00
    000001DC 00                     441 	.db 0x00
    000001DD 00                     442 	.db 0x00
    000001DE 00                     443 	.db 0x00
    000001DF 00                     444 	.db 0x00
    000001E0 00                     445 	.db 0x00
    000001E1 00                     446 	.db 0x00
    000001E2 00                     447 	.db 0x00
    000001E3 00                     448 	.db 0x00
    000001E4 00                     449 	.db 0x00
    000001E5 00                     450 	.db 0x00
    000001E6 00                     451 	.db 0x00
    000001E7 00                     452 	.db 0x00
    000001E8 00                     453 	.db 0x00
    000001E9 00                     454 	.db 0x00
    000001EA 00                     455 	.db 0x00
    000001EB 00                     456 	.db 0x00
    000001EC 00                     457 	.db 0x00
    000001ED 00                     458 	.db 0x00
    000001EE 00                     459 	.db 0x00
    000001EF 00                     460 	.db 0x00
    000001F0 00                     461 	.db 0x00
    000001F1 00                     462 	.db 0x00
    000001F2 00                     463 	.db 0x00
    000001F3 00                     464 	.db 0x00
    000001F4 00                     465 	.db 0x00
    000001F5 00                     466 	.db 0x00
    000001F6 00                     467 	.db 0x00
    000001F7 00                     468 	.db 0x00
    000001F8 00                     469 	.db 0x00
    000001F9 00                     470 	.db 0x00
    000001FA 00                     471 	.db 0x00
    000001FB 00                     472 	.db 0x00
    000001FC 00                     473 	.db 0x00
    000001FD 00                     474 	.db 0x00
    000001FE 00                     475 	.db 0x00
    000001FF 00                     476 	.db 0x00
    00000200 00                     477 	.db 0x00
    00000201 00                     478 	.db 0x00
    00000202 00                     479 	.db 0x00
    00000203 00                     480 	.db 0x00
    00000204 00                     481 	.db 0x00
    00000205 00                     482 	.db 0x00
    00000206 00                     483 	.db 0x00
    00000207 00                     484 	.db 0x00
    00000208 00                     485 	.db 0x00
    00000209 00                     486 	.db 0x00
    0000020A 00                     487 	.db 0x00
    0000020B 00                     488 	.db 0x00
    0000020C 00                     489 	.db 0x00
    0000020D 00                     490 	.db 0x00
    0000020E 00                     491 	.db 0x00
    0000020F 00                     492 	.db 0x00
    00000210 00                     493 	.db 0x00
    00000211 00                     494 	.db 0x00
    00000212 00                     495 	.db 0x00
    00000213 00                     496 	.db 0x00
    00000214 00                     497 	.db 0x00
    00000215 00                     498 	.db 0x00
    00000216 00                     499 	.db 0x00
    00000217 00                     500 	.db 0x00
    00000218 00                     501 	.db 0x00
    00000219 00                     502 	.db 0x00
    0000021A 00                     503 	.db 0x00
    0000021B 00                     504 	.db 0x00
    0000021C 00                     505 	.db 0x00
    0000021D 00                     506 	.db 0x00
    0000021E 00                     507 	.db 0x00
    0000021F 00                     508 	.db 0x00
    00000220 00                     509 	.db 0x00
    00000221 00                     510 	.db 0x00
    00000222 00                     511 	.db 0x00
    00000223 00                     512 	.db 0x00
    00000224 00                     513 	.db 0x00
    00000225 00                     514 	.db 0x00
    00000226 00                     515 	.db 0x00
    00000227 00                     516 	.db 0x00
    00000228 00                     517 	.db 0x00
    00000229 00                     518 	.db 0x00
    0000022A 00                     519 	.db 0x00
    0000022B 00                     520 	.db 0x00
    0000022C 00                     521 	.db 0x00
    0000022D 00                     522 	.db 0x00
    0000022E 00                     523 	.db 0x00
    0000022F 00                     524 	.db 0x00
    00000230 00                     525 	.db 0x00
    00000231 00                     526 	.db 0x00
    00000232 00                     527 	.db 0x00
    00000233 00                     528 	.db 0x00
    00000234 00                     529 	.db 0x00
    00000235 00                     530 	.db 0x00
    00000236 00                     531 	.db 0x00
    00000237 00                     532 	.db 0x00
    00000238 00                     533 	.db 0x00
    00000239 00                     534 	.db 0x00
    0000023A 00                     535 	.db 0x00
    0000023B 00                     536 	.db 0x00
    0000023C 00                     537 	.db 0x00
    0000023D 00                     538 	.db 0x00
    0000023E 00                     539 	.db 0x00
    0000023F 00                     540 	.db 0x00
    00000240 00                     541 	.db 0x00
    00000241 00                     542 	.db 0x00
    00000242 00                     543 	.db 0x00
    00000243 00                     544 	.db 0x00
    00000244 00                     545 	.db 0x00
    00000245 00                     546 	.db 0x00
    00000246 00                     547 	.db 0x00
    00000247 00                     548 	.db 0x00
    00000248 00                     549 	.db 0x00
    00000249 00                     550 	.db 0x00
    0000024A 00                     551 	.db 0x00
    0000024B 00                     552 	.db 0x00
    0000024C 00                     553 	.db 0x00
    0000024D 00                     554 	.db 0x00
    0000024E 00                     555 	.db 0x00
    0000024F 00                     556 	.db 0x00
    00000250 00                     557 	.db 0x00
    00000251 00                     558 	.db 0x00
    00000252 00                     559 	.db 0x00
    00000253 00                     560 	.db 0x00
    00000254 00                     561 	.db 0x00
    00000255 00                     562 	.db 0x00
    00000256 00                     563 	.db 0x00
    00000257 00                     564 	.db 0x00
    00000258 00                     565 	.db 0x00
    00000259 00                     566 	.db 0x00
    0000025A 00                     567 	.db 0x00
    0000025B 00                     568 	.db 0x00
    0000025C 00                     569 	.db 0x00
    0000025D 00                     570 	.db 0x00
    0000025E 00                     571 	.db 0x00
    0000025F 00                     572 	.db 0x00
    00000260 00                     573 	.db 0x00
    00000261 00                     574 	.db 0x00
    00000262 00                     575 	.db 0x00
    00000263 00                     576 	.db 0x00
    00000264 00                     577 	.db 0x00
    00000265 00                     578 	.db 0x00
    00000266 00                     579 	.db 0x00
    00000267 00                     580 	.db 0x00
    00000268 00                     581 	.db 0x00
    00000269 00                     582 	.db 0x00
    0000026A 00                     583 	.db 0x00
    0000026B 00                     584 	.db 0x00
    0000026C 00                     585 	.db 0x00
    0000026D 00                     586 	.db 0x00
    0000026E 00                     587 	.db 0x00
    0000026F 00                     588 	.db 0x00
    00000270 00                     589 	.db 0x00
    00000271 00                     590 	.db 0x00
    00000272 00                     591 	.db 0x00
    00000273 00                     592 	.db 0x00
    00000274 00                     593 	.db 0x00
    00000275 00                     594 	.db 0x00
    00000276 00                     595 	.db 0x00
    00000277 00                     596 	.db 0x00
    00000278 00                     597 	.db 0x00
    00000279 00                     598 	.db 0x00
    0000027A 00                     599 	.db 0x00
    0000027B 00                     600 	.db 0x00
    0000027C 00                     601 	.db 0x00
    0000027D 00                     602 	.db 0x00
    0000027E 00                     603 	.db 0x00
    0000027F 00                     604 	.db 0x00
    00000280 00                     605 	.db 0x00
    00000281 00                     606 	.db 0x00
    00000282 00                     607 	.db 0x00
    00000283 00                     608 	.db 0x00
    00000284 00                     609 	.db 0x00
    00000285 00                     610 	.db 0x00
    00000286 00                     611 	.db 0x00
    00000287 00                     612 	.db 0x00
    00000288 00                     613 	.db 0x00
    00000289 00                     614 	.db 0x00
    0000028A 00                     615 	.db 0x00
    0000028B 00                     616 	.db 0x00
    0000028C 00                     617 	.db 0x00
    0000028D 00                     618 	.db 0x00
    0000028E 00                     619 	.db 0x00
    0000028F 00                     620 	.db 0x00
    00000290 00                     621 	.db 0x00
    00000291 00                     622 	.db 0x00
    00000292 00                     623 	.db 0x00
    00000293 00                     624 	.db 0x00
    00000294 00                     625 	.db 0x00
    00000295 00                     626 	.db 0x00
    00000296 00                     627 	.db 0x00
    00000297 00                     628 	.db 0x00
    00000298 00                     629 	.db 0x00
    00000299 00                     630 	.db 0x00
    0000029A 00                     631 	.db 0x00
    0000029B 00                     632 	.db 0x00
    0000029C 00                     633 	.db 0x00
    0000029D 00                     634 	.db 0x00
    0000029E 00                     635 	.db 0x00
    0000029F 00                     636 	.db 0x00
    000002A0 00                     637 	.db 0x00
    000002A1 00                     638 	.db 0x00
    000002A2 00                     639 	.db 0x00
    000002A3 00                     640 	.db 0x00
    000002A4 00                     641 	.db 0x00
    000002A5 00                     642 	.db 0x00
    000002A6 00                     643 	.db 0x00
    000002A7 00                     644 	.db 0x00
    000002A8 00                     645 	.db 0x00
    000002A9 00                     646 	.db 0x00
    000002AA 00                     647 	.db 0x00
    000002AB 00                     648 	.db 0x00
    000002AC 00                     649 	.db 0x00
    000002AD 00                     650 	.db 0x00
    000002AE 00                     651 	.db 0x00
    000002AF 00                     652 	.db 0x00
    000002B0 00                     653 	.db 0x00
    000002B1 00                     654 	.db 0x00
    000002B2 00                     655 	.db 0x00
    000002B3 00                     656 	.db 0x00
    000002B4 00                     657 	.db 0x00
    000002B5                        658 ___str_1:
    000002B5 73 72 63               659 	.ascii "src"
    000002B8 00                     660 	.db 0x00
    000002B9                        661 ___str_4:
    000002B9 6D 65 6D 63 70 79 28   662 	.ascii "memcpy(dst,src,2)"
             64 73 74 2C 73 72 63
             2C 32 29
    000002CA 0A                     663 	.db 0x0a
    000002CB 2D 3E 20 25 73         664 	.ascii "-> %s"
    000002D0 0A                     665 	.db 0x0a
    000002D1 00                     666 	.db 0x00
    000002D2                        667 ___str_5:
    000002D2 6D 65 6D 6D 6F 76 65   668 	.ascii "memmove(dst,src,2)"
             28 64 73 74 2C 73 72
             63 2C 32 29
    000002E4 0A                     669 	.db 0x0a
    000002E5 2D 3E 20 25 73         670 	.ascii "-> %s"
    000002EA 0A                     671 	.db 0x0a
    000002EB 00                     672 	.db 0x00
    000002EC                        673 ___str_6:
    000002EC 6D 65 6D 73 65 74 28   674 	.ascii "memset(dst,x,2)"
             64 73 74 2C 78 2C 32
             29
    000002FB 0A                     675 	.db 0x0a
    000002FC 2D 3E 20 25 73         676 	.ascii "-> %s"
    00000301 0A                     677 	.db 0x0a
    00000302 00                     678 	.db 0x00
    00000303                        679 ___str_7:
    00000303 0A                     680 	.db 0x0a
    00000304 42 65 6E 63 68 6D 61   681 	.ascii "Benchmark memcpy:"
             72 6B 20 6D 65 6D 63
             70 79 3A
    00000315 0A                     682 	.db 0x0a
    00000316 00                     683 	.db 0x00
    00000317                        684 ___str_8:
    00000317 38 30 30 2A 6D 65 6D   685 	.ascii "800*memcpy(d,s,150)"
             63 70 79 28 64 2C 73
             2C 31 35 30 29
    0000032A 0A                     686 	.db 0x0a
    0000032B 2D 3E 20 25 64 20 66   687 	.ascii "-> %d frames"
             72 61 6D 65 73
    00000337 0A                     688 	.db 0x0a
    00000338 00                     689 	.db 0x00
    00000339                        690 ___str_9:
    00000339 34 30 30 2A 6D 65 6D   691 	.ascii "400*memcpy(d,s,300)"
             63 70 79 28 64 2C 73
             2C 33 30 30 29
    0000034C 0A                     692 	.db 0x0a
    0000034D 2D 3E 20 25 64 20 66   693 	.ascii "-> %d frames"
             72 61 6D 65 73
    00000359 0A                     694 	.db 0x0a
    0000035A 00                     695 	.db 0x00
                                    696 	.area _XINIT
                                    697 	.area _CABS    (ABS)
