                                      1 ;--------------------------------------------------------
                                      2 ; File Created by SDCC : free open source ISO C Compiler 
                                      3 ; Version 4.4.1 #14650 (Linux)
                                      4 ;--------------------------------------------------------
                                      5 	.module libc_memcpy
                                      6 	.optsdcc -mz80
                                      7 	
                                      8 ;--------------------------------------------------------
                                      9 ; Public variables in this module
                                     10 ;--------------------------------------------------------
                                     11 	.globl _main
                                     12 	.globl _benchmark_memcpy
                                     13 	.globl _font_set
                                     14 	.globl _font_load
                                     15 	.globl _font_init
                                     16 	.globl _memset
                                     17 	.globl _memmove
                                     18 	.globl _memcpy
                                     19 	.globl _puts
                                     20 	.globl _printf
                                     21 	.globl _memcpy_dst
                                     22 	.globl _memcpy_src
                                     23 ;--------------------------------------------------------
                                     24 ; special function registers
                                     25 ;--------------------------------------------------------
                         00000000    26 _GG_STATE	=	0x0000
                         00000001    27 _GG_EXT_7BIT	=	0x0001
                         00000002    28 _GG_EXT_CTL	=	0x0002
                         00000003    29 _GG_SIO_SEND	=	0x0003
                         00000004    30 _GG_SIO_RECV	=	0x0004
                         00000005    31 _GG_SIO_CTL	=	0x0005
                         00000006    32 _GG_SOUND_PAN	=	0x0006
                         0000003E    33 _MEMORY_CTL	=	0x003e
                         0000003F    34 _JOY_CTL	=	0x003f
                         0000007E    35 _VCOUNTER	=	0x007e
                         0000007F    36 _PSG	=	0x007f
                         0000007F    37 _HCOUNTER	=	0x007f
                         000000BE    38 _VDP_DATA	=	0x00be
                         000000BF    39 _VDP_CMD	=	0x00bf
                         000000BF    40 _VDP_STATUS	=	0x00bf
                         000000DC    41 _JOY_PORT1	=	0x00dc
                         000000DD    42 _JOY_PORT2	=	0x00dd
                         000000F0    43 _FMADDRESS	=	0x00f0
                         000000F1    44 _FMDATA	=	0x00f1
                         000000F2    45 _AUDIOCTRL	=	0x00f2
                                     46 ;--------------------------------------------------------
                                     47 ; ram data
                                     48 ;--------------------------------------------------------
                                     49 	.area _DATA
                         0000FFFC    50 _RAM_CONTROL	=	0xfffc
                         0000FFF8    51 _GLASSES_3D	=	0xfff8
                         0000FFFD    52 _MAP_FRAME0	=	0xfffd
                         0000FFFE    53 _MAP_FRAME1	=	0xfffe
                         0000FFFF    54 _MAP_FRAME2	=	0xffff
    00000000                         55 _memcpy_dst::
    00000000                         56 	.ds 300
                                     57 ;--------------------------------------------------------
                                     58 ; ram data
                                     59 ;--------------------------------------------------------
                                     60 	.area _INITIALIZED
                                     61 ;--------------------------------------------------------
                                     62 ; absolute external ram data
                                     63 ;--------------------------------------------------------
                                     64 	.area _DABS (ABS)
                                     65 ;--------------------------------------------------------
                                     66 ; global & static initialisations
                                     67 ;--------------------------------------------------------
                                     68 	.area _HOME
                                     69 	.area _GSINIT
                                     70 	.area _GSFINAL
                                     71 	.area _GSINIT
                                     72 ;--------------------------------------------------------
                                     73 ; Home
                                     74 ;--------------------------------------------------------
                                     75 	.area _HOME
                                     76 	.area _HOME
                                     77 ;--------------------------------------------------------
                                     78 ; code
                                     79 ;--------------------------------------------------------
                                     80 	.area _CODE
                                     81 ;src/libc_memcpy.c:16: int benchmark_memcpy(int num, int size)
                                     82 ;	---------------------------------
                                     83 ; Function benchmark_memcpy
                                     84 ; ---------------------------------
    00000000                         85 _benchmark_memcpy::
    00000000 DD E5            [15]   86 	push	ix
    00000002 DD 21 00 00      [14]   87 	ld	ix,#0
    00000006 DD 39            [15]   88 	add	ix,sp
    00000008 F5               [11]   89 	push	af
    00000009 F5               [11]   90 	push	af
    0000000A F5               [11]   91 	push	af
    0000000B DD 75 FE         [19]   92 	ld	-2 (ix), l
    0000000E DD 74 FF         [19]   93 	ld	-1 (ix), h
    00000011 DD 73 FC         [19]   94 	ld	-4 (ix), e
    00000014 DD 72 FD         [19]   95 	ld	-3 (ix), d
                                     96 ;src/libc_memcpy.c:19: uint16_t start_time = sys_time;
    00000017 2Ar00r00         [16]   97 	ld	hl, (_sys_time)
    0000001A E3               [19]   98 	ex	(sp), hl
                                     99 ;src/libc_memcpy.c:20: for(i = 0; i < num; i++)
    0000001B 01 00 00         [10]  100 	ld	bc, #0x0000
    0000001E                        101 00103$:
    0000001E 79               [ 4]  102 	ld	a, c
    0000001F DD 96 FE         [19]  103 	sub	a, -2 (ix)
    00000022 78               [ 4]  104 	ld	a, b
    00000023 DD 9E FF         [19]  105 	sbc	a, -1 (ix)
    00000026 E2r2Br00         [10]  106 	jp	PO, 00122$
    00000029 EE 80            [ 7]  107 	xor	a, #0x80
    0000002B                        108 00122$:
    0000002B F2r43r00         [10]  109 	jp	P, 00101$
                                    110 ;src/libc_memcpy.c:21: memcpy(memcpy_dst, memcpy_src, size);
    0000002E C5               [11]  111 	push	bc
    0000002F DD 6E FC         [19]  112 	ld	l, -4 (ix)
                                    113 ;	spillPairReg hl
                                    114 ;	spillPairReg hl
    00000032 DD 66 FD         [19]  115 	ld	h, -3 (ix)
                                    116 ;	spillPairReg hl
                                    117 ;	spillPairReg hl
    00000035 E5               [11]  118 	push	hl
    00000036 11r56r00         [10]  119 	ld	de, #_memcpy_src
    00000039 21r00r00         [10]  120 	ld	hl, #_memcpy_dst
    0000003C CDr00r00         [17]  121 	call	_memcpy
    0000003F C1               [10]  122 	pop	bc
                                    123 ;src/libc_memcpy.c:20: for(i = 0; i < num; i++)
    00000040 03               [ 6]  124 	inc	bc
    00000041 18 DB            [12]  125 	jr	00103$
    00000043                        126 00101$:
                                    127 ;src/libc_memcpy.c:22: return (int)(sys_time - start_time);
    00000043 3Ar00r00         [13]  128 	ld	a, (_sys_time+0)
    00000046 DD 96 FA         [19]  129 	sub	a, -6 (ix)
    00000049 5F               [ 4]  130 	ld	e, a
    0000004A 3Ar01r00         [13]  131 	ld	a, (_sys_time+1)
    0000004D DD 9E FB         [19]  132 	sbc	a, -5 (ix)
    00000050 57               [ 4]  133 	ld	d, a
                                    134 ;src/libc_memcpy.c:23: }
    00000051 DD F9            [10]  135 	ld	sp, ix
    00000053 DD E1            [14]  136 	pop	ix
    00000055 C9               [10]  137 	ret
    00000056                        138 _memcpy_src:
    00000056 00                     139 	.db #0x00	; 0
    00000057 00                     140 	.db 0x00
    00000058 00                     141 	.db 0x00
    00000059 00                     142 	.db 0x00
    0000005A 00                     143 	.db 0x00
    0000005B 00                     144 	.db 0x00
    0000005C 00                     145 	.db 0x00
    0000005D 00                     146 	.db 0x00
    0000005E 00                     147 	.db 0x00
    0000005F 00                     148 	.db 0x00
    00000060 00                     149 	.db 0x00
    00000061 00                     150 	.db 0x00
    00000062 00                     151 	.db 0x00
    00000063 00                     152 	.db 0x00
    00000064 00                     153 	.db 0x00
    00000065 00                     154 	.db 0x00
    00000066 00                     155 	.db 0x00
    00000067 00                     156 	.db 0x00
    00000068 00                     157 	.db 0x00
    00000069 00                     158 	.db 0x00
    0000006A 00                     159 	.db 0x00
    0000006B 00                     160 	.db 0x00
    0000006C 00                     161 	.db 0x00
    0000006D 00                     162 	.db 0x00
    0000006E 00                     163 	.db 0x00
    0000006F 00                     164 	.db 0x00
    00000070 00                     165 	.db 0x00
    00000071 00                     166 	.db 0x00
    00000072 00                     167 	.db 0x00
    00000073 00                     168 	.db 0x00
    00000074 00                     169 	.db 0x00
    00000075 00                     170 	.db 0x00
    00000076 00                     171 	.db 0x00
    00000077 00                     172 	.db 0x00
    00000078 00                     173 	.db 0x00
    00000079 00                     174 	.db 0x00
    0000007A 00                     175 	.db 0x00
    0000007B 00                     176 	.db 0x00
    0000007C 00                     177 	.db 0x00
    0000007D 00                     178 	.db 0x00
    0000007E 00                     179 	.db 0x00
    0000007F 00                     180 	.db 0x00
    00000080 00                     181 	.db 0x00
    00000081 00                     182 	.db 0x00
    00000082 00                     183 	.db 0x00
    00000083 00                     184 	.db 0x00
    00000084 00                     185 	.db 0x00
    00000085 00                     186 	.db 0x00
    00000086 00                     187 	.db 0x00
    00000087 00                     188 	.db 0x00
    00000088 00                     189 	.db 0x00
    00000089 00                     190 	.db 0x00
    0000008A 00                     191 	.db 0x00
    0000008B 00                     192 	.db 0x00
    0000008C 00                     193 	.db 0x00
    0000008D 00                     194 	.db 0x00
    0000008E 00                     195 	.db 0x00
    0000008F 00                     196 	.db 0x00
    00000090 00                     197 	.db 0x00
    00000091 00                     198 	.db 0x00
    00000092 00                     199 	.db 0x00
    00000093 00                     200 	.db 0x00
    00000094 00                     201 	.db 0x00
    00000095 00                     202 	.db 0x00
    00000096 00                     203 	.db 0x00
    00000097 00                     204 	.db 0x00
    00000098 00                     205 	.db 0x00
    00000099 00                     206 	.db 0x00
    0000009A 00                     207 	.db 0x00
    0000009B 00                     208 	.db 0x00
    0000009C 00                     209 	.db 0x00
    0000009D 00                     210 	.db 0x00
    0000009E 00                     211 	.db 0x00
    0000009F 00                     212 	.db 0x00
    000000A0 00                     213 	.db 0x00
    000000A1 00                     214 	.db 0x00
    000000A2 00                     215 	.db 0x00
    000000A3 00                     216 	.db 0x00
    000000A4 00                     217 	.db 0x00
    000000A5 00                     218 	.db 0x00
    000000A6 00                     219 	.db 0x00
    000000A7 00                     220 	.db 0x00
    000000A8 00                     221 	.db 0x00
    000000A9 00                     222 	.db 0x00
    000000AA 00                     223 	.db 0x00
    000000AB 00                     224 	.db 0x00
    000000AC 00                     225 	.db 0x00
    000000AD 00                     226 	.db 0x00
    000000AE 00                     227 	.db 0x00
    000000AF 00                     228 	.db 0x00
    000000B0 00                     229 	.db 0x00
    000000B1 00                     230 	.db 0x00
    000000B2 00                     231 	.db 0x00
    000000B3 00                     232 	.db 0x00
    000000B4 00                     233 	.db 0x00
    000000B5 00                     234 	.db 0x00
    000000B6 00                     235 	.db 0x00
    000000B7 00                     236 	.db 0x00
    000000B8 00                     237 	.db 0x00
    000000B9 00                     238 	.db 0x00
    000000BA 00                     239 	.db 0x00
    000000BB 00                     240 	.db 0x00
    000000BC 00                     241 	.db 0x00
    000000BD 00                     242 	.db 0x00
    000000BE 00                     243 	.db 0x00
    000000BF 00                     244 	.db 0x00
    000000C0 00                     245 	.db 0x00
    000000C1 00                     246 	.db 0x00
    000000C2 00                     247 	.db 0x00
    000000C3 00                     248 	.db 0x00
    000000C4 00                     249 	.db 0x00
    000000C5 00                     250 	.db 0x00
    000000C6 00                     251 	.db 0x00
    000000C7 00                     252 	.db 0x00
    000000C8 00                     253 	.db 0x00
    000000C9 00                     254 	.db 0x00
    000000CA 00                     255 	.db 0x00
    000000CB 00                     256 	.db 0x00
    000000CC 00                     257 	.db 0x00
    000000CD 00                     258 	.db 0x00
    000000CE 00                     259 	.db 0x00
    000000CF 00                     260 	.db 0x00
    000000D0 00                     261 	.db 0x00
    000000D1 00                     262 	.db 0x00
    000000D2 00                     263 	.db 0x00
    000000D3 00                     264 	.db 0x00
    000000D4 00                     265 	.db 0x00
    000000D5 00                     266 	.db 0x00
    000000D6 00                     267 	.db 0x00
    000000D7 00                     268 	.db 0x00
    000000D8 00                     269 	.db 0x00
    000000D9 00                     270 	.db 0x00
    000000DA 00                     271 	.db 0x00
    000000DB 00                     272 	.db 0x00
    000000DC 00                     273 	.db 0x00
    000000DD 00                     274 	.db 0x00
    000000DE 00                     275 	.db 0x00
    000000DF 00                     276 	.db 0x00
    000000E0 00                     277 	.db 0x00
    000000E1 00                     278 	.db 0x00
    000000E2 00                     279 	.db 0x00
    000000E3 00                     280 	.db 0x00
    000000E4 00                     281 	.db 0x00
    000000E5 00                     282 	.db 0x00
    000000E6 00                     283 	.db 0x00
    000000E7 00                     284 	.db 0x00
    000000E8 00                     285 	.db 0x00
    000000E9 00                     286 	.db 0x00
    000000EA 00                     287 	.db 0x00
    000000EB 00                     288 	.db 0x00
    000000EC 00                     289 	.db 0x00
    000000ED 00                     290 	.db 0x00
    000000EE 00                     291 	.db 0x00
    000000EF 00                     292 	.db 0x00
    000000F0 00                     293 	.db 0x00
    000000F1 00                     294 	.db 0x00
    000000F2 00                     295 	.db 0x00
    000000F3 00                     296 	.db 0x00
    000000F4 00                     297 	.db 0x00
    000000F5 00                     298 	.db 0x00
    000000F6 00                     299 	.db 0x00
    000000F7 00                     300 	.db 0x00
    000000F8 00                     301 	.db 0x00
    000000F9 00                     302 	.db 0x00
    000000FA 00                     303 	.db 0x00
    000000FB 00                     304 	.db 0x00
    000000FC 00                     305 	.db 0x00
    000000FD 00                     306 	.db 0x00
    000000FE 00                     307 	.db 0x00
    000000FF 00                     308 	.db 0x00
    00000100 00                     309 	.db 0x00
    00000101 00                     310 	.db 0x00
    00000102 00                     311 	.db 0x00
    00000103 00                     312 	.db 0x00
    00000104 00                     313 	.db 0x00
    00000105 00                     314 	.db 0x00
    00000106 00                     315 	.db 0x00
    00000107 00                     316 	.db 0x00
    00000108 00                     317 	.db 0x00
    00000109 00                     318 	.db 0x00
    0000010A 00                     319 	.db 0x00
    0000010B 00                     320 	.db 0x00
    0000010C 00                     321 	.db 0x00
    0000010D 00                     322 	.db 0x00
    0000010E 00                     323 	.db 0x00
    0000010F 00                     324 	.db 0x00
    00000110 00                     325 	.db 0x00
    00000111 00                     326 	.db 0x00
    00000112 00                     327 	.db 0x00
    00000113 00                     328 	.db 0x00
    00000114 00                     329 	.db 0x00
    00000115 00                     330 	.db 0x00
    00000116 00                     331 	.db 0x00
    00000117 00                     332 	.db 0x00
    00000118 00                     333 	.db 0x00
    00000119 00                     334 	.db 0x00
    0000011A 00                     335 	.db 0x00
    0000011B 00                     336 	.db 0x00
    0000011C 00                     337 	.db 0x00
    0000011D 00                     338 	.db 0x00
    0000011E 00                     339 	.db 0x00
    0000011F 00                     340 	.db 0x00
    00000120 00                     341 	.db 0x00
    00000121 00                     342 	.db 0x00
    00000122 00                     343 	.db 0x00
    00000123 00                     344 	.db 0x00
    00000124 00                     345 	.db 0x00
    00000125 00                     346 	.db 0x00
    00000126 00                     347 	.db 0x00
    00000127 00                     348 	.db 0x00
    00000128 00                     349 	.db 0x00
    00000129 00                     350 	.db 0x00
    0000012A 00                     351 	.db 0x00
    0000012B 00                     352 	.db 0x00
    0000012C 00                     353 	.db 0x00
    0000012D 00                     354 	.db 0x00
    0000012E 00                     355 	.db 0x00
    0000012F 00                     356 	.db 0x00
    00000130 00                     357 	.db 0x00
    00000131 00                     358 	.db 0x00
    00000132 00                     359 	.db 0x00
    00000133 00                     360 	.db 0x00
    00000134 00                     361 	.db 0x00
    00000135 00                     362 	.db 0x00
    00000136 00                     363 	.db 0x00
    00000137 00                     364 	.db 0x00
    00000138 00                     365 	.db 0x00
    00000139 00                     366 	.db 0x00
    0000013A 00                     367 	.db 0x00
    0000013B 00                     368 	.db 0x00
    0000013C 00                     369 	.db 0x00
    0000013D 00                     370 	.db 0x00
    0000013E 00                     371 	.db 0x00
    0000013F 00                     372 	.db 0x00
    00000140 00                     373 	.db 0x00
    00000141 00                     374 	.db 0x00
    00000142 00                     375 	.db 0x00
    00000143 00                     376 	.db 0x00
    00000144 00                     377 	.db 0x00
    00000145 00                     378 	.db 0x00
    00000146 00                     379 	.db 0x00
    00000147 00                     380 	.db 0x00
    00000148 00                     381 	.db 0x00
    00000149 00                     382 	.db 0x00
    0000014A 00                     383 	.db 0x00
    0000014B 00                     384 	.db 0x00
    0000014C 00                     385 	.db 0x00
    0000014D 00                     386 	.db 0x00
    0000014E 00                     387 	.db 0x00
    0000014F 00                     388 	.db 0x00
    00000150 00                     389 	.db 0x00
    00000151 00                     390 	.db 0x00
    00000152 00                     391 	.db 0x00
    00000153 00                     392 	.db 0x00
    00000154 00                     393 	.db 0x00
    00000155 00                     394 	.db 0x00
    00000156 00                     395 	.db 0x00
    00000157 00                     396 	.db 0x00
    00000158 00                     397 	.db 0x00
    00000159 00                     398 	.db 0x00
    0000015A 00                     399 	.db 0x00
    0000015B 00                     400 	.db 0x00
    0000015C 00                     401 	.db 0x00
    0000015D 00                     402 	.db 0x00
    0000015E 00                     403 	.db 0x00
    0000015F 00                     404 	.db 0x00
    00000160 00                     405 	.db 0x00
    00000161 00                     406 	.db 0x00
    00000162 00                     407 	.db 0x00
    00000163 00                     408 	.db 0x00
    00000164 00                     409 	.db 0x00
    00000165 00                     410 	.db 0x00
    00000166 00                     411 	.db 0x00
    00000167 00                     412 	.db 0x00
    00000168 00                     413 	.db 0x00
    00000169 00                     414 	.db 0x00
    0000016A 00                     415 	.db 0x00
    0000016B 00                     416 	.db 0x00
    0000016C 00                     417 	.db 0x00
    0000016D 00                     418 	.db 0x00
    0000016E 00                     419 	.db 0x00
    0000016F 00                     420 	.db 0x00
    00000170 00                     421 	.db 0x00
    00000171 00                     422 	.db 0x00
    00000172 00                     423 	.db 0x00
    00000173 00                     424 	.db 0x00
    00000174 00                     425 	.db 0x00
    00000175 00                     426 	.db 0x00
    00000176 00                     427 	.db 0x00
    00000177 00                     428 	.db 0x00
    00000178 00                     429 	.db 0x00
    00000179 00                     430 	.db 0x00
    0000017A 00                     431 	.db 0x00
    0000017B 00                     432 	.db 0x00
    0000017C 00                     433 	.db 0x00
    0000017D 00                     434 	.db 0x00
    0000017E 00                     435 	.db 0x00
    0000017F 00                     436 	.db 0x00
    00000180 00                     437 	.db 0x00
    00000181 00                     438 	.db 0x00
                                    439 ;src/libc_memcpy.c:25: void main(void)
                                    440 ;	---------------------------------
                                    441 ; Function main
                                    442 ; ---------------------------------
    00000182                        443 _main::
    00000182 DD E5            [15]  444 	push	ix
    00000184 DD 21 00 00      [14]  445 	ld	ix,#0
    00000188 DD 39            [15]  446 	add	ix,sp
    0000018A F5               [11]  447 	push	af
    0000018B F5               [11]  448 	push	af
                                    449 ;src/libc_memcpy.c:30: font_init();
    0000018C CDr00r00         [17]  450 	call	_font_init
                                    451 ;src/libc_memcpy.c:31: ibm_font = font_load(font_ibm);
    0000018F 21r00r00         [10]  452 	ld	hl, #_font_ibm
    00000192 E5               [11]  453 	push	hl
    00000193 CDr00r00         [17]  454 	call	_font_load
                                    455 ;src/libc_memcpy.c:32: font_set(ibm_font);
    00000196 E3               [19]  456 	ex	(sp),hl
    00000197 CDr00r00         [17]  457 	call	_font_set
    0000019A F1               [10]  458 	pop	af
                                    459 ;src/libc_memcpy.c:36: char dst[4] = "dst";
    0000019B DD 36 FC 64      [19]  460 	ld	-4 (ix), #0x64
    0000019F DD 36 FD 73      [19]  461 	ld	-3 (ix), #0x73
    000001A3 DD 36 FE 74      [19]  462 	ld	-2 (ix), #0x74
    000001A7 DD 36 FF 00      [19]  463 	ld	-1 (ix), #0x00
                                    464 ;src/libc_memcpy.c:37: const char* src = "src";
                                    465 ;src/libc_memcpy.c:38: printf("memcpy(dst,src,2)\n-> %s\n", memcpy(dst, src, 2));
    000001AB 21 02 00         [10]  466 	ld	hl, #0x0002
    000001AE E5               [11]  467 	push	hl
    000001AF 11r48r02         [10]  468 	ld	de, #___str_1
    000001B2 21 02 00         [10]  469 	ld	hl, #2
    000001B5 39               [11]  470 	add	hl, sp
    000001B6 CDr00r00         [17]  471 	call	_memcpy
    000001B9 D5               [11]  472 	push	de
    000001BA 21r4Cr02         [10]  473 	ld	hl, #___str_4
    000001BD E5               [11]  474 	push	hl
    000001BE CDr00r00         [17]  475 	call	_printf
    000001C1 F1               [10]  476 	pop	af
    000001C2 F1               [10]  477 	pop	af
                                    478 ;src/libc_memcpy.c:42: char dst[4] = "dst";
    000001C3 21 00 00         [10]  479 	ld	hl, #0
    000001C6 39               [11]  480 	add	hl, sp
    000001C7 EB               [ 4]  481 	ex	de, hl
    000001C8 3E 64            [ 7]  482 	ld	a, #0x64
    000001CA 12               [ 7]  483 	ld	(de), a
    000001CB DD 36 FD 73      [19]  484 	ld	-3 (ix), #0x73
    000001CF DD 36 FE 74      [19]  485 	ld	-2 (ix), #0x74
    000001D3 DD 36 FF 00      [19]  486 	ld	-1 (ix), #0x00
                                    487 ;src/libc_memcpy.c:43: const char* src = "src";
    000001D7 01r48r02         [10]  488 	ld	bc, #___str_1
                                    489 ;src/libc_memcpy.c:44: printf("memmove(dst,src,2)\n-> %s\n", memmove(dst, src, 2));
    000001DA 21 02 00         [10]  490 	ld	hl, #0x0002
    000001DD E5               [11]  491 	push	hl
    000001DE C5               [11]  492 	push	bc
    000001DF D5               [11]  493 	push	de
    000001E0 CDr00r00         [17]  494 	call	_memmove
    000001E3 F1               [10]  495 	pop	af
    000001E4 F1               [10]  496 	pop	af
    000001E5 F1               [10]  497 	pop	af
    000001E6 01r65r02         [10]  498 	ld	bc, #___str_5+0
    000001E9 E5               [11]  499 	push	hl
    000001EA C5               [11]  500 	push	bc
    000001EB CDr00r00         [17]  501 	call	_printf
    000001EE F1               [10]  502 	pop	af
    000001EF F1               [10]  503 	pop	af
                                    504 ;src/libc_memcpy.c:48: char dst[4] = "dst";
    000001F0 21 00 00         [10]  505 	ld	hl, #0
    000001F3 39               [11]  506 	add	hl, sp
    000001F4 EB               [ 4]  507 	ex	de, hl
    000001F5 3E 64            [ 7]  508 	ld	a, #0x64
    000001F7 12               [ 7]  509 	ld	(de), a
    000001F8 DD 36 FD 73      [19]  510 	ld	-3 (ix), #0x73
    000001FC DD 36 FE 74      [19]  511 	ld	-2 (ix), #0x74
    00000200 DD 36 FF 00      [19]  512 	ld	-1 (ix), #0x00
                                    513 ;src/libc_memcpy.c:49: printf("memset(dst,x,2)\n-> %s\n", memset(dst, 'x', 2));
    00000204 21 02 00         [10]  514 	ld	hl, #0x0002
    00000207 E5               [11]  515 	push	hl
    00000208 2E 78            [ 7]  516 	ld	l, #0x78
    0000020A E5               [11]  517 	push	hl
    0000020B D5               [11]  518 	push	de
    0000020C CDr00r00         [17]  519 	call	_memset
    0000020F 01r7Fr02         [10]  520 	ld	bc, #___str_6+0
    00000212 E5               [11]  521 	push	hl
    00000213 C5               [11]  522 	push	bc
    00000214 CDr00r00         [17]  523 	call	_printf
    00000217 F1               [10]  524 	pop	af
    00000218 F1               [10]  525 	pop	af
                                    526 ;src/libc_memcpy.c:52: printf("\nBenchmark memcpy:\n");
    00000219 21r96r02         [10]  527 	ld	hl, #___str_8
    0000021C CDr00r00         [17]  528 	call	_puts
                                    529 ;src/libc_memcpy.c:54: printf("800*memcpy(d,s,150)\n-> %d frames\n", benchmark_memcpy(800, 150));
    0000021F 11 96 00         [10]  530 	ld	de, #0x0096
    00000222 21 20 03         [10]  531 	ld	hl, #0x0320
    00000225 CDr00r00         [17]  532 	call	_benchmark_memcpy
    00000228 D5               [11]  533 	push	de
    00000229 21rA9r02         [10]  534 	ld	hl, #___str_9
    0000022C E5               [11]  535 	push	hl
    0000022D CDr00r00         [17]  536 	call	_printf
    00000230 F1               [10]  537 	pop	af
    00000231 F1               [10]  538 	pop	af
                                    539 ;src/libc_memcpy.c:55: printf("400*memcpy(d,s,300)\n-> %d frames\n", benchmark_memcpy(400, 300));
    00000232 11 2C 01         [10]  540 	ld	de, #0x012c
    00000235 21 90 01         [10]  541 	ld	hl, #0x0190
    00000238 CDr00r00         [17]  542 	call	_benchmark_memcpy
    0000023B D5               [11]  543 	push	de
    0000023C 21rCBr02         [10]  544 	ld	hl, #___str_10
    0000023F E5               [11]  545 	push	hl
    00000240 CDr00r00         [17]  546 	call	_printf
                                    547 ;src/libc_memcpy.c:57: }
    00000243 DD F9            [10]  548 	ld	sp,ix
    00000245 DD E1            [14]  549 	pop	ix
    00000247 C9               [10]  550 	ret
    00000248                        551 ___str_1:
    00000248 73 72 63               552 	.ascii "src"
    0000024B 00                     553 	.db 0x00
    0000024C                        554 ___str_4:
    0000024C 6D 65 6D 63 70 79 28   555 	.ascii "memcpy(dst,src,2)"
             64 73 74 2C 73 72 63
             2C 32 29
    0000025D 0A                     556 	.db 0x0a
    0000025E 2D 3E 20 25 73         557 	.ascii "-> %s"
    00000263 0A                     558 	.db 0x0a
    00000264 00                     559 	.db 0x00
    00000265                        560 ___str_5:
    00000265 6D 65 6D 6D 6F 76 65   561 	.ascii "memmove(dst,src,2)"
             28 64 73 74 2C 73 72
             63 2C 32 29
    00000277 0A                     562 	.db 0x0a
    00000278 2D 3E 20 25 73         563 	.ascii "-> %s"
    0000027D 0A                     564 	.db 0x0a
    0000027E 00                     565 	.db 0x00
    0000027F                        566 ___str_6:
    0000027F 6D 65 6D 73 65 74 28   567 	.ascii "memset(dst,x,2)"
             64 73 74 2C 78 2C 32
             29
    0000028E 0A                     568 	.db 0x0a
    0000028F 2D 3E 20 25 73         569 	.ascii "-> %s"
    00000294 0A                     570 	.db 0x0a
    00000295 00                     571 	.db 0x00
    00000296                        572 ___str_8:
    00000296 0A                     573 	.db 0x0a
    00000297 42 65 6E 63 68 6D 61   574 	.ascii "Benchmark memcpy:"
             72 6B 20 6D 65 6D 63
             70 79 3A
    000002A8 00                     575 	.db 0x00
    000002A9                        576 ___str_9:
    000002A9 38 30 30 2A 6D 65 6D   577 	.ascii "800*memcpy(d,s,150)"
             63 70 79 28 64 2C 73
             2C 31 35 30 29
    000002BC 0A                     578 	.db 0x0a
    000002BD 2D 3E 20 25 64 20 66   579 	.ascii "-> %d frames"
             72 61 6D 65 73
    000002C9 0A                     580 	.db 0x0a
    000002CA 00                     581 	.db 0x00
    000002CB                        582 ___str_10:
    000002CB 34 30 30 2A 6D 65 6D   583 	.ascii "400*memcpy(d,s,300)"
             63 70 79 28 64 2C 73
             2C 33 30 30 29
    000002DE 0A                     584 	.db 0x0a
    000002DF 2D 3E 20 25 64 20 66   585 	.ascii "-> %d frames"
             72 61 6D 65 73
    000002EB 0A                     586 	.db 0x0a
    000002EC 00                     587 	.db 0x00
                                    588 	.area _CODE
                                    589 	.area _INITIALIZER
                                    590 	.area _CABS (ABS)
