ASxxxx Linker V03.00/V05.40 + sdld,  page 1.
Hexadecimal  [32-Bits]

Area                       Addr        Size        Decimal Bytes (Attributes)
--------------------       ----        ----        ------- ----- ------------
_CABS                  00000000    00000000 =           0. bytes (ABS,CON)

        Value  Global            Value  Global            Value  Global    
        -----  ------            -----  ------            -----  ------    
     00000000  l_VECTORS |    00000000  l__BASE   |    00000000  l__CABS  
     00000000  l__DABS   |    00000000  l__GSFINA |    00000000  l__GSINIT
     00000000  l__HEAP   |    00000000  l__HEAP_E |    00000000  l__INITIA
     00000000  l__INITIA |    00000000  l__LIT    |    00000000  l__OSEG  
     00000000  l__RODATA |    00000000  s_OSEG    |    00000000  s_VECTORS
     00000000  s_VECTORS |    00000000  s__CABS   |    00000000  s__DABS  
     00000004  l_OSEG    |    00000006  l_VECTORS |    00000007  l__DATA  
     00000007  l__XINIT  |    00000010  l_GBDKOVR |    00000010  s_GBDKOVR
     00000020  s__ZP     |    00000024  l__ZP     |    0000002F  l__BSS   
     00000044  s__OSEG   |    00000300  s__DATA   |    00000307  s__BSS   
     00000336  s__HEAP   |    00000336  s__HEAP_E |    00000336  s__INITIA
     0000097C  l__HOME   |    000009D8  l__CODE   |    0000C000  s__CODE  
     0000C9D8  s__HOME   |    0000D354  s__BASE   |    0000D354  s__INITIA
     0000D354  s__LIT    |    0000D354  s__RODATA |    0000D354  s__XINIT 
     0000D35B  s__GSFINA |    0000D35B  s__GSINIT
ASxxxx Linker V03.00/V05.40 + sdld,  page 2.
Hexadecimal  [32-Bits]

Area                       Addr        Size        Decimal Bytes (Attributes)
--------------------       ----        ----        ------- ----- ------------
VECTORS0               00000000    00000006 =           6. bytes (ABS,CON)

        Value  Global            Value  Global            Value  Global    
        -----  ------            -----  ------            -----  ------    
ASxxxx Linker V03.00/V05.40 + sdld,  page 3.
Hexadecimal  [32-Bits]

Area                       Addr        Size        Decimal Bytes (Attributes)
--------------------       ----        ----        ------- ----- ------------
.  .ABS.               00000000    00000000 =           0. bytes (ABS,CON)

        Value  Global            Value  Global            Value  Global    
        -----  ------            -----  ------            -----  ------    
     00000000  .__.ABS.  |    00000000  ___bank_G |    00000100  __vram_tr
     00000188  _attribut |    00000200  _shadow_O |    00002000  _PPUCTRL 
     00002001  _PPUMASK  |    00002002  _PPUSTATU |    00002003  _OAMADDR 
     00002004  _OAMDATA  |    00002005  _PPUSCROL |    00002006  _PPUADDR 
     00002007  _PPUDATA  |    00004014  _OAMDMA  
ASxxxx Linker V03.00/V05.40 + sdld,  page 4.
Hexadecimal  [32-Bits]

Area                       Addr        Size        Decimal Bytes (Attributes)
--------------------       ----        ----        ------- ----- ------------
_CODE                  0000C000    000009D8 =        2520. bytes (REL,CON)

        Value  Global            Value  Global            Value  Global    
        -----  ------            -----  ------            -----  ------    
     0000C000  .identity |    0000C000  _identity |    0000C1C2  .delay_to
     0000C358  .wait_vbl |    0000C358  _vsync    |    0000C358  _wait_vbl
     0000C3D8  .display_ |    0000C3D8  _display_ |    0000C3E5  .display_
     0000C3E5  _display_ |    0000C4ED  _GBDK_202 |    0000C4ED  ___func_G
     0000C4F9  _GBDK_202 |    0000C779  _GBDK_202 |    0000C8E1  _GBDK_202
     0000C909  _main     |    0000C982  ___memcpy |    0000C9B4  .add_VBL 
     0000C9B4  _add_VBL  |    0000C9B8  .add_LCD  |    0000C9B8  _add_LCD 
     0000C9CA  .remove_V |    0000C9CA  _remove_V |    0000C9CE  .remove_L
     0000C9CE  _remove_L
ASxxxx Linker V03.00/V05.40 + sdld,  page 5.
Hexadecimal  [32-Bits]

Area                       Addr        Size        Decimal Bytes (Attributes)
--------------------       ----        ----        ------- ----- ------------
_HOME                  0000C9D8    0000097C =        2428. bytes (REL,CON)

        Value  Global            Value  Global            Value  Global    
        -----  ------            -----  ------            -----  ------    
     0000C9D8  .ppu_stri |    0000C9ED  .ppu_stri |    0000CA35  .ppu_stri
     0000CA63  .ppu_stri |    0000CA77  .ppu_stri |    0000CA77  _set_vram
     0000CB64  _fill_bkg |    0000CBDE  _set_bkg_ |    0000CBEB  _set_spri
     0000CC0F  _set_bkg_ |    0000CC2C  _set_spri |    0000CC5F  _flush_sh
     0000CD5A  _hide_spr |    0000CD72  _set_bkg_ |    0000CDAC  _set_bkg_
     0000D0D5  _set_bkg_ |    0000D0E7  _set_spri |    0000D173  _set_bkg_
     0000D1D4  _set_bkg_ |    0000D22A  _set_bkg_ |    0000D23C  _set_spri
ASxxxx Linker V03.00/V05.40 + sdld,  page 6.
Hexadecimal  [32-Bits]

Area                       Addr        Size        Decimal Bytes (Attributes)
--------------------       ----        ----        ------- ----- ------------
_XINIT                 0000D354    00000007 =           7. bytes (REL,CON)

        Value  Global            Value  Global            Value  Global    
        -----  ------            -----  ------            -----  ------    
ASxxxx Linker V03.00/V05.40 + sdld,  page 7.
Hexadecimal  [32-Bits]

Area                       Addr        Size        Decimal Bytes (Attributes)
--------------------       ----        ----        ------- ----- ------------
_DATA                  00000300    00000007 =           7. bytes (REL,CON)

        Value  Global            Value  Global            Value  Global    
        -----  ------            -----  ------            -----  ------    
     00000300  ___render |    00000301  .jmp_to_V |    00000304  .jmp_to_L
ASxxxx Linker V03.00/V05.40 + sdld,  page 8.
Hexadecimal  [32-Bits]

Area                       Addr        Size        Decimal Bytes (Attributes)
--------------------       ----        ----        ------- ----- ------------
_BSS                   00000307    0000002F =          47. bytes (REL,CON)

        Value  Global            Value  Global            Value  Global    
        -----  ------            -----  ------            -----  ------    
     00000307  __crt0_pa |    00000320  .mode    
ASxxxx Linker V03.00/V05.40 + sdld,  page 9.
Hexadecimal  [32-Bits]

Area                       Addr        Size        Decimal Bytes (Attributes)
--------------------       ----        ----        ------- ----- ------------
OSEG                   00000000    00000004 =           4. bytes (REL,OVR,PAG)

        Value  Global            Value  Global            Value  Global    
        -----  ------            -----  ------            -----  ------    
     00000000  ___memcpy |    00000002  ___memcpy
ASxxxx Linker V03.00/V05.40 + sdld,  page 10.
Hexadecimal  [32-Bits]

Area                       Addr        Size        Decimal Bytes (Attributes)
--------------------       ----        ----        ------- ----- ------------
GBDKOVR                00000010    00000010 =          16. bytes (REL,OVR,PAG)

        Value  Global            Value  Global            Value  Global    
        -----  ------            -----  ------            -----  ------    
     00000010  _fill_bkg |    00000010  _set_bkg_ |    00000010  _set_bkg_
     00000010  _set_bkg_ |    00000010  _set_bkg_ |    00000010  _set_bkg_
     00000010  _set_bkg_ |    00000010  _set_spri |    00000010  _set_spri
     00000010  _set_spri |    00000010  _set_spri |    00000010  _set_vram
     00000011  _fill_bkg |    00000011  _set_bkg_ |    00000011  _set_bkg_
     00000012  _fill_bkg |    00000012  _set_bkg_ |    00000012  _set_bkg_
ASxxxx Linker V03.00/V05.40 + sdld,  page 11.
Hexadecimal  [32-Bits]

Area                       Addr        Size        Decimal Bytes (Attributes)
--------------------       ----        ----        ------- ----- ------------
_ZP                    00000020    00000024 =          36. bytes (REL,CON,PAG)

        Value  Global            Value  Global            Value  Global    
        -----  ------            -----  ------            -----  ------    
     00000020  __shadow_ |    00000021  __current |    00000022  _sys_time
     00000024  _shadow_P |    00000025  _shadow_P |    00000028  _bkg_scro
     00000029  _bkg_scro |    0000002A  _attribut |    0000002B  _attribut
     0000002C  .crt0_for |    0000002D  __SYSTEM  |    0000002E  __vram_tr
     0000002F  __vram_tr |    00000030  __vram_tr |    00000031  __vram_tr
     00000032  REGTEMP   |    0000003A  __lcd_sca |    0000003B  __map_til
     0000003C  ___SDCC_m |    0000003D  ___SDCC_m |    0000003E  ___SDCC_m
     0000003F  ___SDCC_m |    00000040  ___SDCC_m |    00000041  ___SDCC_m
     00000042  ___SDCC_m |    00000043  ___SDCC_m
ASxxxx Linker V03.00/V05.40 + sdld,  page 12.

Files Linked                              [ module(s) ]

../../../lib/nes/crt0.o                   [ crt0 ]
obj/nes/GBDK_2020_logo.o                  [ GBDK_2020_logo ]
obj/nes/main.o                            [ main ]


Libraries Linked                          [ object file ]

../../../lib/nes/nes.lib                  [ vram_transfer_buffer.o ]
../../../lib/nes/nes.lib                  [ fill_rect_bk.o ]
../../../lib/mos6502/mos6502.lib          [ _memcpy.o ]
../../../lib/nes/nes.lib                  [ nes_palettes.o ]
../../../lib/nes/nes.lib                  [ flush_attributes.o ]
../../../lib/nes/nes.lib                  [ metasprites_hide_spr.o ]
../../../lib/nes/nes.lib                  [ set_bk_attributes.o ]
../../../lib/mos6502/mos6502.lib          [ _temp.o ]
../../../lib/nes/nes.lib                  [ lcd.o ]
../../../lib/nes/nes.lib                  [ set_native_data.o ]
../../../lib/nes/nes.lib                  [ set_bk_ts.o ]
../../../lib/mos6502/mos6502.lib          [ _ret01.o ]
../../../lib/mos6502/mos6502.lib          [ _ret23.o ]
../../../lib/mos6502/mos6502.lib          [ _ret4567.o ]
../../../lib/nes/nes.lib                  [ set_data.o ]

ASxxxx Linker V03.00/V05.40 + sdld,  page 13.

User Base Address Definitions

_DATA=0x0300
_CODE=0xC000
VECTORS=0xFFFA
OSEG=0x00
GBDKOVR=0x10
_ZP=0x20

