                                      1 ;--------------------------------------------------------
                                      2 ; File Created by SDCC : free open source ISO C Compiler 
                                      3 ; Version 4.4.1 #14650 (Linux)
                                      4 ;--------------------------------------------------------
                                      5 	.module camera
                                      6 	.optsdcc -msm83
                                      7 	
                                      8 ;--------------------------------------------------------
                                      9 ; Public variables in this module
                                     10 ;--------------------------------------------------------
                                     11 	.globl b_UpdateCamera
                                     12 	.globl _UpdateCamera
                                     13 	.globl _SetCurrentLevelSubmap
                                     14 	.globl _set_bkg_submap
                                     15 	.globl _redraw
                                     16 	.globl _old_map_pos_x
                                     17 	.globl _map_pos_x
                                     18 	.globl _old_camera_x
                                     19 	.globl _camera_x
                                     20 ;--------------------------------------------------------
                                     21 ; special function registers
                                     22 ;--------------------------------------------------------
                                     23 ;--------------------------------------------------------
                                     24 ; ram data
                                     25 ;--------------------------------------------------------
                                     26 	.area _DATA
    00000000                         27 _camera_x::
    00000000                         28 	.ds 2
    00000002                         29 _old_camera_x::
    00000002                         30 	.ds 2
    00000004                         31 _map_pos_x::
    00000004                         32 	.ds 1
    00000005                         33 _old_map_pos_x::
    00000005                         34 	.ds 1
    00000006                         35 _redraw::
    00000006                         36 	.ds 1
                                     37 ;--------------------------------------------------------
                                     38 ; ram data
                                     39 ;--------------------------------------------------------
                                     40 	.area _INITIALIZED
                                     41 ;--------------------------------------------------------
                                     42 ; absolute external ram data
                                     43 ;--------------------------------------------------------
                                     44 	.area _DABS (ABS)
                                     45 ;--------------------------------------------------------
                                     46 ; global & static initialisations
                                     47 ;--------------------------------------------------------
                                     48 	.area _HOME
                                     49 	.area _GSINIT
                                     50 	.area _GSFINAL
                                     51 	.area _GSINIT
                                     52 ;--------------------------------------------------------
                                     53 ; Home
                                     54 ;--------------------------------------------------------
                                     55 	.area _HOME
                                     56 ;src/camera.c:30: void SetCurrentLevelSubmap(uint8_t x, uint8_t y, uint8_t w, uint8_t h) NONBANKED{
                                     57 ;	---------------------------------
                                     58 ; Function SetCurrentLevelSubmap
                                     59 ; ---------------------------------
    00000000                         60 _SetCurrentLevelSubmap::
    00000000 47               [ 4]   61 	ld	b, a
                                     62 ;src/camera.c:32: uint8_t _previous_bank = CURRENT_BANK;
    00000001 F0r00            [12]   63 	ldh	a, (__current_bank + 0)
    00000003 4F               [ 4]   64 	ld	c, a
                                     65 ;src/camera.c:34: SWITCH_ROM(currentAreaBank);
    00000004 FAr00r00         [16]   66 	ld	a, (#_currentAreaBank)
    00000007 E0r00            [12]   67 	ldh	(__current_bank + 0), a
    00000009 EAr00r00         [16]   68 	ld	(#_rROMB0),a
                                     69 ;src/camera.c:36: set_bkg_submap(x,y,w, h, currentLevelMap, currentLevelWidthInTiles);
    0000000C FAr00r00         [16]   70 	ld	a, (#_currentLevelWidthInTiles)
    0000000F C5               [16]   71 	push	bc
    00000010 F5               [16]   72 	push	af
    00000011 33               [ 8]   73 	inc	sp
    00000012 21r00r00         [12]   74 	ld	hl, #_currentLevelMap
    00000015 6E               [ 8]   75 	ld	l, (hl)
                                     76 ;	spillPairReg hl
                                     77 ;	spillPairReg hl
    00000016 FAr01r00         [16]   78 	ld	a, (_currentLevelMap + 1)
    00000019 67               [ 4]   79 	ld	h, a
                                     80 ;	spillPairReg hl
                                     81 ;	spillPairReg hl
    0000001A E5               [16]   82 	push	hl
    0000001B F8 08            [12]   83 	ldhl	sp,	#8
    0000001D 3A               [ 8]   84 	ld	a, (hl-)
    0000001E F5               [16]   85 	push	af
    0000001F 33               [ 8]   86 	inc	sp
    00000020 56               [ 8]   87 	ld	d, (hl)
    00000021 D5               [16]   88 	push	de
    00000022 C5               [16]   89 	push	bc
    00000023 33               [ 8]   90 	inc	sp
    00000024 CDr00r00         [24]   91 	call	_set_bkg_submap
    00000027 E8 07            [16]   92 	add	sp, #7
    00000029 C1               [12]   93 	pop	bc
                                     94 ;src/camera.c:38: SWITCH_ROM(_previous_bank);
    0000002A 79               [ 4]   95 	ld	a, c
    0000002B E0r00            [12]   96 	ldh	(__current_bank + 0), a
    0000002D 21r00r00         [12]   97 	ld	hl, #_rROMB0
    00000030 71               [ 8]   98 	ld	(hl), c
                                     99 ;src/camera.c:40: }
    00000031 E1               [12]  100 	pop	hl
    00000032 F1               [12]  101 	pop	af
    00000033 E9               [ 4]  102 	jp	(hl)
                                    103 	.area _HOME
                                    104 ;--------------------------------------------------------
                                    105 ; code
                                    106 ;--------------------------------------------------------
                                    107 	.area _CODE_255
                                    108 ;src/camera.c:56: void UpdateCamera(void) BANKED {
                                    109 ;	---------------------------------
                                    110 ; Function UpdateCamera
                                    111 ; ---------------------------------
                         000000FF   112 	b_UpdateCamera	= 255
    00000000                        113 _UpdateCamera::
    00000000 3B               [ 8]  114 	dec	sp
    00000001 3B               [ 8]  115 	dec	sp
                                    116 ;src/camera.c:59: move_bkg(camera_x, 0);
    00000002 21r00r00         [12]  117 	ld	hl, #_camera_x
    00000005 7E               [ 8]  118 	ld	a, (hl)
    00000006 E0r00            [12]  119 	ldh	(_SCX_REG + 0), a
                                    120 ;../../../include/gb/gb.h:1449: SCX_REG=x, SCY_REG=y;
    00000008 AF               [ 4]  121 	xor	a, a
                                    122 ;src/camera.c:62: map_pos_x = (uint8_t)(camera_x >> 3u);
    00000009 E0r00            [12]  123 	ldh	(_SCY_REG + 0), a
    0000000B 2A               [ 8]  124 	ld	a, (hl+)
    0000000C 4F               [ 4]  125 	ld	c, a
    0000000D 46               [ 8]  126 	ld	b, (hl)
    0000000E CB 38            [ 8]  127 	srl	b
    00000010 CB 19            [ 8]  128 	rr	c
    00000012 CB 38            [ 8]  129 	srl	b
    00000014 CB 19            [ 8]  130 	rr	c
    00000016 CB 38            [ 8]  131 	srl	b
    00000018 CB 19            [ 8]  132 	rr	c
    0000001A 21r04r00         [12]  133 	ld	hl, #_map_pos_x
    0000001D 71               [ 8]  134 	ld	(hl), c
                                    135 ;src/camera.c:63: if (map_pos_x != old_map_pos_x) {
    0000001E 7E               [ 8]  136 	ld	a, (hl)
    0000001F 21r05r00         [12]  137 	ld	hl, #_old_map_pos_x
    00000022 96               [ 8]  138 	sub	a, (hl)
    00000023 28 7A            [12]  139 	jr	Z, 00107$
                                    140 ;src/camera.c:69: MIN(DEVICE_SCREEN_HEIGHT, currentLevelHeightInTiles ));     
    00000025 21r00r00         [12]  141 	ld	hl, #_currentLevelHeightInTiles
    00000028 3E 12            [ 8]  142 	ld	a, #0x12
    0000002A 96               [ 8]  143 	sub	a, (hl)
    0000002B 23               [ 8]  144 	inc	hl
    0000002C 3E 00            [ 8]  145 	ld	a, #0x00
    0000002E 9E               [ 8]  146 	sbc	a, (hl)
    0000002F 3E 00            [ 8]  147 	ld	a, #0x00
    00000031 17               [ 4]  148 	rla
    00000032 F8 00            [12]  149 	ldhl	sp,	#0
    00000034 77               [ 8]  150 	ld	(hl), a
    00000035 21r00r00         [12]  151 	ld	hl, #_currentLevelHeightInTiles
    00000038 2A               [ 8]  152 	ld	a, (hl+)
    00000039 5F               [ 4]  153 	ld	e, a
    0000003A 56               [ 8]  154 	ld	d, (hl)
                                    155 ;src/camera.c:66: update_column_left(map_pos_x), 
    0000003B FAr04r00         [16]  156 	ld	a, (#_map_pos_x)
    0000003E F8 01            [12]  157 	ldhl	sp,	#1
    00000040 77               [ 8]  158 	ld	(hl), a
                                    159 ;src/camera.c:64: if (camera_x < old_camera_x) {
    00000041 D5               [16]  160 	push	de
    00000042 11r00r00         [12]  161 	ld	de, #_camera_x
    00000045 21r02r00         [12]  162 	ld	hl, #_old_camera_x
    00000048 1A               [ 8]  163 	ld	a, (de)
    00000049 13               [ 8]  164 	inc	de
    0000004A 96               [ 8]  165 	sub	a, (hl)
    0000004B 23               [ 8]  166 	inc	hl
    0000004C 1A               [ 8]  167 	ld	a, (de)
    0000004D 9E               [ 8]  168 	sbc	a, (hl)
    0000004E D1               [12]  169 	pop	de
    0000004F 30 17            [12]  170 	jr	NC, 00104$
                                    171 ;src/camera.c:69: MIN(DEVICE_SCREEN_HEIGHT, currentLevelHeightInTiles ));     
    00000051 F8 00            [12]  172 	ldhl	sp,	#0
    00000053 7E               [ 8]  173 	ld	a, (hl)
    00000054 B7               [ 4]  174 	or	a, a
    00000055 28 03            [12]  175 	jr	Z, 00113$
    00000057 11 12 00         [12]  176 	ld	de, #0x0012
    0000005A                        177 00113$:
                                    178 ;src/camera.c:66: update_column_left(map_pos_x), 
    0000005A 63               [ 4]  179 	ld	h, e
    0000005B 2E 01            [ 8]  180 	ld	l, #0x01
    0000005D E5               [16]  181 	push	hl
    0000005E 1E 00            [ 8]  182 	ld	e, #0x00
    00000060 F8 03            [12]  183 	ldhl	sp,	#3
    00000062 7E               [ 8]  184 	ld	a, (hl)
    00000063 CDr00r00         [24]  185 	call	_SetCurrentLevelSubmap
    00000066 18 31            [12]  186 	jr	00105$
    00000068                        187 00104$:
                                    188 ;src/camera.c:71: if ((currentLevelWidthInTiles - DEVICE_SCREEN_WIDTH) > map_pos_x) {
    00000068 21r00r00         [12]  189 	ld	hl, #_currentLevelWidthInTiles
    0000006B 2A               [ 8]  190 	ld	a, (hl+)
    0000006C 4E               [ 8]  191 	ld	c, (hl)
    0000006D C6 EC            [ 8]  192 	add	a, #0xec
    0000006F 47               [ 4]  193 	ld	b, a
    00000070 79               [ 4]  194 	ld	a, c
    00000071 CE FF            [ 8]  195 	adc	a, #0xff
    00000073 4F               [ 4]  196 	ld	c, a
    00000074 21r04r00         [12]  197 	ld	hl, #_map_pos_x
    00000077 6E               [ 8]  198 	ld	l, (hl)
                                    199 ;	spillPairReg hl
                                    200 ;	spillPairReg hl
    00000078 26 00            [ 8]  201 	ld	h, #0x00
                                    202 ;	spillPairReg hl
                                    203 ;	spillPairReg hl
    0000007A 7D               [ 4]  204 	ld	a, l
    0000007B 90               [ 4]  205 	sub	a, b
    0000007C 7C               [ 4]  206 	ld	a, h
    0000007D 99               [ 4]  207 	sbc	a, c
    0000007E 30 19            [12]  208 	jr	NC, 00105$
                                    209 ;src/camera.c:76: MIN(DEVICE_SCREEN_HEIGHT, currentLevelHeightInTiles));   
    00000080 F8 00            [12]  210 	ldhl	sp,	#0
    00000082 7E               [ 8]  211 	ld	a, (hl)
    00000083 B7               [ 4]  212 	or	a, a
    00000084 28 03            [12]  213 	jr	Z, 00115$
    00000086 11 12 00         [12]  214 	ld	de, #0x0012
    00000089                        215 00115$:
                                    216 ;src/camera.c:53: return map_pos_x + DEVICE_SCREEN_WIDTH;
    00000089 F8 01            [12]  217 	ldhl	sp,	#1
    0000008B 7E               [ 8]  218 	ld	a, (hl)
    0000008C C6 14            [ 8]  219 	add	a, #0x14
    0000008E 4F               [ 4]  220 	ld	c, a
                                    221 ;src/camera.c:73: update_column_right(map_pos_x), 
    0000008F 63               [ 4]  222 	ld	h, e
    00000090 2E 01            [ 8]  223 	ld	l, #0x01
    00000092 E5               [16]  224 	push	hl
    00000093 1E 00            [ 8]  225 	ld	e, #0x00
    00000095 79               [ 4]  226 	ld	a, c
    00000096 CDr00r00         [24]  227 	call	_SetCurrentLevelSubmap
    00000099                        228 00105$:
                                    229 ;src/camera.c:79: old_map_pos_x = map_pos_x;
    00000099 FAr04r00         [16]  230 	ld	a, (#_map_pos_x)
    0000009C EAr05r00         [16]  231 	ld	(#_old_map_pos_x),a
    0000009F                        232 00107$:
                                    233 ;src/camera.c:82: old_camera_x = camera_x;
    0000009F FAr00r00         [16]  234 	ld	a, (#_camera_x)
    000000A2 EAr02r00         [16]  235 	ld	(#_old_camera_x),a
    000000A5 FAr01r00         [16]  236 	ld	a, (#_camera_x + 1)
    000000A8 EAr03r00         [16]  237 	ld	(#_old_camera_x + 1),a
                                    238 ;src/camera.c:83: }
    000000AB 33               [ 8]  239 	inc	sp
    000000AC 33               [ 8]  240 	inc	sp
    000000AD C9               [16]  241 	ret
                                    242 	.area _CODE_255
                                    243 	.area _INITIALIZER
                                    244 	.area _CABS (ABS)
