                                      1 ;--------------------------------------------------------
                                      2 ; File Created by SDCC : free open source ISO C Compiler 
                                      3 ; Version 4.4.1 #14650 (Linux)
                                      4 ;--------------------------------------------------------
                                      5 	.module libc_string
                                      6 	.optsdcc -msm83
                                      7 	
                                      8 ;--------------------------------------------------------
                                      9 ; Public variables in this module
                                     10 ;--------------------------------------------------------
                                     11 	.globl _main
                                     12 	.globl _font_set
                                     13 	.globl _font_load
                                     14 	.globl _font_init
                                     15 	.globl _strncpy
                                     16 	.globl _strncmp
                                     17 	.globl _strncat
                                     18 	.globl _strlen
                                     19 	.globl _strcat
                                     20 	.globl _strcmp
                                     21 	.globl _strcpy
                                     22 	.globl _printf
                                     23 ;--------------------------------------------------------
                                     24 ; special function registers
                                     25 ;--------------------------------------------------------
                                     26 ;--------------------------------------------------------
                                     27 ; ram data
                                     28 ;--------------------------------------------------------
                                     29 	.area _DATA
                                     30 ;--------------------------------------------------------
                                     31 ; ram data
                                     32 ;--------------------------------------------------------
                                     33 	.area _INITIALIZED
                                     34 ;--------------------------------------------------------
                                     35 ; absolute external ram data
                                     36 ;--------------------------------------------------------
                                     37 	.area _DABS (ABS)
                                     38 ;--------------------------------------------------------
                                     39 ; global & static initialisations
                                     40 ;--------------------------------------------------------
                                     41 	.area _HOME
                                     42 	.area _GSINIT
                                     43 	.area _GSFINAL
                                     44 	.area _GSINIT
                                     45 ;--------------------------------------------------------
                                     46 ; Home
                                     47 ;--------------------------------------------------------
                                     48 	.area _HOME
                                     49 	.area _HOME
                                     50 ;--------------------------------------------------------
                                     51 ; code
                                     52 ;--------------------------------------------------------
                                     53 	.area _CODE
                                     54 ;src/libc_string.c:12: void main(void)
                                     55 ;	---------------------------------
                                     56 ; Function main
                                     57 ; ---------------------------------
    00000000                         58 _main::
    00000000 E8 EE            [16]   59 	add	sp, #-18
                                     60 ;src/libc_string.c:17: font_init();
    00000002 CDr00r00         [24]   61 	call	_font_init
                                     62 ;src/libc_string.c:18: ibm_font = font_load(font_ibm);
    00000005 11r00r00         [12]   63 	ld	de, #_font_ibm
    00000008 D5               [16]   64 	push	de
    00000009 CDr00r00         [24]   65 	call	_font_load
    0000000C E1               [12]   66 	pop	hl
                                     67 ;src/libc_string.c:19: font_set(ibm_font);
    0000000D D5               [16]   68 	push	de
    0000000E CDr00r00         [24]   69 	call	_font_set
    00000011 E1               [12]   70 	pop	hl
                                     71 ;src/libc_string.c:22: printf("strlen(gbdk) -> %d\n", strlen("gbdk"));
    00000012 11r42r01         [12]   72 	ld	de, #___str_6
    00000015 D5               [16]   73 	push	de
    00000016 CDr00r00         [24]   74 	call	_strlen
    00000019 E1               [12]   75 	pop	hl
    0000001A D5               [16]   76 	push	de
    0000001B 11r2Er01         [12]   77 	ld	de, #___str_5
    0000001E D5               [16]   78 	push	de
    0000001F CDr00r00         [24]   79 	call	_printf
    00000022 E8 04            [16]   80 	add	sp, #4
                                     81 ;src/libc_string.c:24: printf("strcmp(gbdk,gbdk)\n-> %d\n", strcmp("gbdk", "gbdk"));
    00000024 11r42r01         [12]   82 	ld	de, #___str_6
    00000027 D5               [16]   83 	push	de
    00000028 D5               [16]   84 	push	de
    00000029 CDr00r00         [24]   85 	call	_strcmp
    0000002C E8 04            [16]   86 	add	sp, #4
    0000002E D5               [16]   87 	push	de
    0000002F 11r47r01         [12]   88 	ld	de, #___str_7
    00000032 D5               [16]   89 	push	de
    00000033 CDr00r00         [24]   90 	call	_printf
    00000036 E8 04            [16]   91 	add	sp, #4
                                     92 ;src/libc_string.c:25: printf("strcmp(gbdk,ggdk)\n-> %d\n", strcmp("gbdk", "ggdk"));
    00000038 11r79r01         [12]   93 	ld	de, #___str_9
    0000003B D5               [16]   94 	push	de
    0000003C 11r42r01         [12]   95 	ld	de, #___str_6
    0000003F D5               [16]   96 	push	de
    00000040 CDr00r00         [24]   97 	call	_strcmp
    00000043 E8 04            [16]   98 	add	sp, #4
    00000045 D5               [16]   99 	push	de
    00000046 11r60r01         [12]  100 	ld	de, #___str_8
    00000049 D5               [16]  101 	push	de
    0000004A CDr00r00         [24]  102 	call	_printf
    0000004D E8 04            [16]  103 	add	sp, #4
                                    104 ;src/libc_string.c:26: printf("strcmp(ggdk,gbdk)\n-> %d\n", strcmp("ggdk", "gbdk"));
    0000004F 11r42r01         [12]  105 	ld	de, #___str_6
    00000052 D5               [16]  106 	push	de
    00000053 11r79r01         [12]  107 	ld	de, #___str_9
    00000056 D5               [16]  108 	push	de
    00000057 CDr00r00         [24]  109 	call	_strcmp
    0000005A E8 04            [16]  110 	add	sp, #4
    0000005C D5               [16]  111 	push	de
    0000005D 11r7Er01         [12]  112 	ld	de, #___str_10
    00000060 D5               [16]  113 	push	de
    00000061 CDr00r00         [24]  114 	call	_printf
    00000064 E8 04            [16]  115 	add	sp, #4
                                    116 ;src/libc_string.c:27: printf("strncmp(gbdk,gbc,2)\n-> %d\n", strncmp("gbdk", "gbc", 2));
    00000066 11 02 00         [12]  117 	ld	de, #0x0002
    00000069 D5               [16]  118 	push	de
    0000006A 01rB2r01         [12]  119 	ld	bc, #___str_12
    0000006D 11r42r01         [12]  120 	ld	de, #___str_6
    00000070 CDr00r00         [24]  121 	call	_strncmp
    00000073 C5               [16]  122 	push	bc
    00000074 11r97r01         [12]  123 	ld	de, #___str_11
    00000077 D5               [16]  124 	push	de
    00000078 CDr00r00         [24]  125 	call	_printf
    0000007B E8 04            [16]  126 	add	sp, #4
                                    127 ;src/libc_string.c:30: char dst[4] = "dst";
    0000007D F8 0E            [12]  128 	ldhl	sp,	#14
    0000007F 4D               [ 4]  129 	ld	c, l
    00000080 44               [ 4]  130 	ld	b, h
    00000081 36 64            [12]  131 	ld	(hl), #0x64
    00000083 F8 0F            [12]  132 	ldhl	sp,	#15
    00000085 3E 73            [ 8]  133 	ld	a, #0x73
    00000087 22               [ 8]  134 	ld	(hl+), a
    00000088 3E 74            [ 8]  135 	ld	a, #0x74
    0000008A 22               [ 8]  136 	ld	(hl+), a
    0000008B 36 00            [12]  137 	ld	(hl), #0x00
                                    138 ;src/libc_string.c:31: const char* src = "src";
    0000008D 21r2Ar01         [12]  139 	ld	hl, #___str_1
                                    140 ;src/libc_string.c:32: strcpy(dst, src);
    00000090 59               [ 4]  141 	ld	e, c
    00000091 50               [ 4]  142 	ld	d, b
    00000092 E5               [16]  143 	push	hl
    00000093 D5               [16]  144 	push	de
    00000094 CDr00r00         [24]  145 	call	_strcpy
    00000097 E8 04            [16]  146 	add	sp, #4
                                    147 ;src/libc_string.c:33: printf("strcpy(dst,src)\n-> %s\n", dst);
    00000099 C5               [16]  148 	push	bc
    0000009A 11rB6r01         [12]  149 	ld	de, #___str_13
    0000009D D5               [16]  150 	push	de
    0000009E CDr00r00         [24]  151 	call	_printf
    000000A1 E8 04            [16]  152 	add	sp, #4
                                    153 ;src/libc_string.c:37: char dst[4] = "dst";
    000000A3 F8 0E            [12]  154 	ldhl	sp,	#14
    000000A5 3E 64            [ 8]  155 	ld	a, #0x64
    000000A7 22               [ 8]  156 	ld	(hl+), a
    000000A8 3E 73            [ 8]  157 	ld	a, #0x73
    000000AA 22               [ 8]  158 	ld	(hl+), a
    000000AB 3E 74            [ 8]  159 	ld	a, #0x74
    000000AD 22               [ 8]  160 	ld	(hl+), a
                                    161 ;src/libc_string.c:38: const char* src = "src";
                                    162 ;src/libc_string.c:39: strncpy(dst, src, 2);
    000000AE 11 02 00         [12]  163 	ld	de, #0x0002
    000000B1 72               [ 8]  164 	ld	(hl), d
    000000B2 D5               [16]  165 	push	de
    000000B3 01r2Ar01         [12]  166 	ld	bc, #___str_1
    000000B6 21 10 00         [12]  167 	ld	hl, #16
    000000B9 39               [ 8]  168 	add	hl, sp
    000000BA 5D               [ 4]  169 	ld	e, l
    000000BB 54               [ 4]  170 	ld	d, h
    000000BC CDr00r00         [24]  171 	call	_strncpy
                                    172 ;src/libc_string.c:40: printf("strncpy(dst,src,2)\n-> %s\n", dst);
    000000BF 21 0E 00         [12]  173 	ld	hl, #14
    000000C2 39               [ 8]  174 	add	hl, sp
    000000C3 E5               [16]  175 	push	hl
    000000C4 11rCDr01         [12]  176 	ld	de, #___str_14
    000000C7 D5               [16]  177 	push	de
    000000C8 CDr00r00         [24]  178 	call	_printf
    000000CB E8 04            [16]  179 	add	sp, #4
                                    180 ;src/libc_string.c:44: char dst[9] = "gbdk";
    000000CD F8 00            [12]  181 	ldhl	sp,	#0
    000000CF 4D               [ 4]  182 	ld	c, l
    000000D0 44               [ 4]  183 	ld	b, h
    000000D1 36 67            [12]  184 	ld	(hl), #0x67
    000000D3 F8 01            [12]  185 	ldhl	sp,	#1
    000000D5 3E 62            [ 8]  186 	ld	a, #0x62
    000000D7 22               [ 8]  187 	ld	(hl+), a
    000000D8 3E 64            [ 8]  188 	ld	a, #0x64
    000000DA 22               [ 8]  189 	ld	(hl+), a
    000000DB 3E 6B            [ 8]  190 	ld	a, #0x6b
    000000DD 22               [ 8]  191 	ld	(hl+), a
    000000DE AF               [ 4]  192 	xor	a, a
    000000DF 22               [ 8]  193 	ld	(hl+), a
    000000E0 AF               [ 4]  194 	xor	a, a
    000000E1 22               [ 8]  195 	ld	(hl+), a
    000000E2 AF               [ 4]  196 	xor	a, a
    000000E3 22               [ 8]  197 	ld	(hl+), a
    000000E4 AF               [ 4]  198 	xor	a, a
    000000E5 22               [ 8]  199 	ld	(hl+), a
                                    200 ;src/libc_string.c:45: char dst2[9] = "gbdk";
    000000E6 AF               [ 4]  201 	xor	a, a
    000000E7 22               [ 8]  202 	ld	(hl+), a
    000000E8 3E 67            [ 8]  203 	ld	a, #0x67
    000000EA 22               [ 8]  204 	ld	(hl+), a
    000000EB 3E 62            [ 8]  205 	ld	a, #0x62
    000000ED 22               [ 8]  206 	ld	(hl+), a
    000000EE 3E 64            [ 8]  207 	ld	a, #0x64
    000000F0 22               [ 8]  208 	ld	(hl+), a
    000000F1 3E 6B            [ 8]  209 	ld	a, #0x6b
    000000F3 22               [ 8]  210 	ld	(hl+), a
    000000F4 AF               [ 4]  211 	xor	a, a
    000000F5 22               [ 8]  212 	ld	(hl+), a
    000000F6 AF               [ 4]  213 	xor	a, a
    000000F7 22               [ 8]  214 	ld	(hl+), a
    000000F8 AF               [ 4]  215 	xor	a, a
    000000F9 22               [ 8]  216 	ld	(hl+), a
    000000FA AF               [ 4]  217 	xor	a, a
    000000FB 22               [ 8]  218 	ld	(hl+), a
    000000FC 77               [ 8]  219 	ld	(hl), a
                                    220 ;src/libc_string.c:46: printf("strcat(gbdk,2020)\n-> %s\n", strcat(dst, "2020"));
    000000FD 59               [ 4]  221 	ld	e, c
    000000FE 50               [ 4]  222 	ld	d, b
    000000FF 01r00r02         [12]  223 	ld	bc, #___str_16
    00000102 CDr00r00         [24]  224 	call	_strcat
    00000105 C5               [16]  225 	push	bc
    00000106 11rE7r01         [12]  226 	ld	de, #___str_15
    00000109 D5               [16]  227 	push	de
    0000010A CDr00r00         [24]  228 	call	_printf
    0000010D E8 04            [16]  229 	add	sp, #4
                                    230 ;src/libc_string.c:47: printf("strncat(gbdk,lib,2)\n-> %s\n", strncat(dst2, "lib",2));
    0000010F 11 02 00         [12]  231 	ld	de, #0x0002
    00000112 D5               [16]  232 	push	de
    00000113 01r20r02         [12]  233 	ld	bc, #___str_18
    00000116 21 0B 00         [12]  234 	ld	hl, #11
    00000119 39               [ 8]  235 	add	hl, sp
    0000011A 5D               [ 4]  236 	ld	e, l
    0000011B 54               [ 4]  237 	ld	d, h
    0000011C CDr00r00         [24]  238 	call	_strncat
    0000011F C5               [16]  239 	push	bc
    00000120 11r05r02         [12]  240 	ld	de, #___str_17
    00000123 D5               [16]  241 	push	de
    00000124 CDr00r00         [24]  242 	call	_printf
                                    243 ;src/libc_string.c:49: }
    00000127 E8 16            [16]  244 	add	sp, #22
    00000129 C9               [16]  245 	ret
    0000012A                        246 ___str_1:
    0000012A 73 72 63               247 	.ascii "src"
    0000012D 00                     248 	.db 0x00
    0000012E                        249 ___str_5:
    0000012E 73 74 72 6C 65 6E 28   250 	.ascii "strlen(gbdk) -> %d"
             67 62 64 6B 29 20 2D
             3E 20 25 64
    00000140 0A                     251 	.db 0x0a
    00000141 00                     252 	.db 0x00
    00000142                        253 ___str_6:
    00000142 67 62 64 6B            254 	.ascii "gbdk"
    00000146 00                     255 	.db 0x00
    00000147                        256 ___str_7:
    00000147 73 74 72 63 6D 70 28   257 	.ascii "strcmp(gbdk,gbdk)"
             67 62 64 6B 2C 67 62
             64 6B 29
    00000158 0A                     258 	.db 0x0a
    00000159 2D 3E 20 25 64         259 	.ascii "-> %d"
    0000015E 0A                     260 	.db 0x0a
    0000015F 00                     261 	.db 0x00
    00000160                        262 ___str_8:
    00000160 73 74 72 63 6D 70 28   263 	.ascii "strcmp(gbdk,ggdk)"
             67 62 64 6B 2C 67 67
             64 6B 29
    00000171 0A                     264 	.db 0x0a
    00000172 2D 3E 20 25 64         265 	.ascii "-> %d"
    00000177 0A                     266 	.db 0x0a
    00000178 00                     267 	.db 0x00
    00000179                        268 ___str_9:
    00000179 67 67 64 6B            269 	.ascii "ggdk"
    0000017D 00                     270 	.db 0x00
    0000017E                        271 ___str_10:
    0000017E 73 74 72 63 6D 70 28   272 	.ascii "strcmp(ggdk,gbdk)"
             67 67 64 6B 2C 67 62
             64 6B 29
    0000018F 0A                     273 	.db 0x0a
    00000190 2D 3E 20 25 64         274 	.ascii "-> %d"
    00000195 0A                     275 	.db 0x0a
    00000196 00                     276 	.db 0x00
    00000197                        277 ___str_11:
    00000197 73 74 72 6E 63 6D 70   278 	.ascii "strncmp(gbdk,gbc,2)"
             28 67 62 64 6B 2C 67
             62 63 2C 32 29
    000001AA 0A                     279 	.db 0x0a
    000001AB 2D 3E 20 25 64         280 	.ascii "-> %d"
    000001B0 0A                     281 	.db 0x0a
    000001B1 00                     282 	.db 0x00
    000001B2                        283 ___str_12:
    000001B2 67 62 63               284 	.ascii "gbc"
    000001B5 00                     285 	.db 0x00
    000001B6                        286 ___str_13:
    000001B6 73 74 72 63 70 79 28   287 	.ascii "strcpy(dst,src)"
             64 73 74 2C 73 72 63
             29
    000001C5 0A                     288 	.db 0x0a
    000001C6 2D 3E 20 25 73         289 	.ascii "-> %s"
    000001CB 0A                     290 	.db 0x0a
    000001CC 00                     291 	.db 0x00
    000001CD                        292 ___str_14:
    000001CD 73 74 72 6E 63 70 79   293 	.ascii "strncpy(dst,src,2)"
             28 64 73 74 2C 73 72
             63 2C 32 29
    000001DF 0A                     294 	.db 0x0a
    000001E0 2D 3E 20 25 73         295 	.ascii "-> %s"
    000001E5 0A                     296 	.db 0x0a
    000001E6 00                     297 	.db 0x00
    000001E7                        298 ___str_15:
    000001E7 73 74 72 63 61 74 28   299 	.ascii "strcat(gbdk,2020)"
             67 62 64 6B 2C 32 30
             32 30 29
    000001F8 0A                     300 	.db 0x0a
    000001F9 2D 3E 20 25 73         301 	.ascii "-> %s"
    000001FE 0A                     302 	.db 0x0a
    000001FF 00                     303 	.db 0x00
    00000200                        304 ___str_16:
    00000200 32 30 32 30            305 	.ascii "2020"
    00000204 00                     306 	.db 0x00
    00000205                        307 ___str_17:
    00000205 73 74 72 6E 63 61 74   308 	.ascii "strncat(gbdk,lib,2)"
             28 67 62 64 6B 2C 6C
             69 62 2C 32 29
    00000218 0A                     309 	.db 0x0a
    00000219 2D 3E 20 25 73         310 	.ascii "-> %s"
    0000021E 0A                     311 	.db 0x0a
    0000021F 00                     312 	.db 0x00
    00000220                        313 ___str_18:
    00000220 6C 69 62               314 	.ascii "lib"
    00000223 00                     315 	.db 0x00
                                    316 	.area _CODE
                                    317 	.area _INITIALIZER
                                    318 	.area _CABS (ABS)
