                                      1 ;--------------------------------------------------------
                                      2 ; File Created by SDCC : free open source ISO C Compiler 
                                      3 ; Version 4.4.1 #14650 (Linux)
                                      4 ;--------------------------------------------------------
                                      5 	.module fonts
                                      6 	.optsdcc -msm83
                                      7 	
                                      8 ;--------------------------------------------------------
                                      9 ; Public variables in this module
                                     10 ;--------------------------------------------------------
                                     11 	.globl _main
                                     12 	.globl _font_color
                                     13 	.globl _font_set
                                     14 	.globl _font_load
                                     15 	.globl _font_init
                                     16 	.globl _get_mode
                                     17 	.globl _mode
                                     18 	.globl _puts
                                     19 	.globl _printf
                                     20 ;--------------------------------------------------------
                                     21 ; special function registers
                                     22 ;--------------------------------------------------------
                                     23 ;--------------------------------------------------------
                                     24 ; ram data
                                     25 ;--------------------------------------------------------
                                     26 	.area _DATA
                                     27 ;--------------------------------------------------------
                                     28 ; ram data
                                     29 ;--------------------------------------------------------
                                     30 	.area _INITIALIZED
                                     31 ;--------------------------------------------------------
                                     32 ; absolute external ram data
                                     33 ;--------------------------------------------------------
                                     34 	.area _DABS (ABS)
                                     35 ;--------------------------------------------------------
                                     36 ; global & static initialisations
                                     37 ;--------------------------------------------------------
                                     38 	.area _HOME
                                     39 	.area _GSINIT
                                     40 	.area _GSFINAL
                                     41 	.area _GSINIT
                                     42 ;--------------------------------------------------------
                                     43 ; Home
                                     44 ;--------------------------------------------------------
                                     45 	.area _HOME
                                     46 	.area _HOME
                                     47 ;--------------------------------------------------------
                                     48 ; code
                                     49 ;--------------------------------------------------------
                                     50 	.area _CODE
                                     51 ;src/fonts.c:17: void main(void)
                                     52 ;	---------------------------------
                                     53 ; Function main
                                     54 ; ---------------------------------
    00000000                         55 _main::
    00000000 E8 FA            [16]   56 	add	sp, #-6
                                     57 ;src/fonts.c:28: font_init();
    00000002 CDr00r00         [24]   58 	call	_font_init
                                     59 ;src/fonts.c:31: ibm_font = font_load(font_ibm);  /* 96 tiles */
    00000005 11r00r00         [12]   60 	ld	de, #_font_ibm
    00000008 D5               [16]   61 	push	de
    00000009 CDr00r00         [24]   62 	call	_font_load
    0000000C E8 04            [16]   63 	add	sp, #4
    0000000E D5               [16]   64 	push	de
                                     65 ;src/fonts.c:32: italic_font = font_load(font_italic);   /* 93 tiles */
    0000000F 11r00r00         [12]   66 	ld	de, #_font_italic
    00000012 D5               [16]   67 	push	de
    00000013 CDr00r00         [24]   68 	call	_font_load
    00000016 E1               [12]   69 	pop	hl
    00000017 F8 02            [12]   70 	ldhl	sp,	#2
    00000019 7B               [ 4]   71 	ld	a, e
    0000001A 22               [ 8]   72 	ld	(hl+), a
    0000001B 72               [ 8]   73 	ld	(hl), d
                                     74 ;src/fonts.c:35: font_color(WHITE, DKGREY);
    0000001C 3E 01            [ 8]   75 	ld	a, #0x01
    0000001E F5               [16]   76 	push	af
    0000001F 33               [ 8]   77 	inc	sp
    00000020 3E 03            [ 8]   78 	ld	a, #0x03
    00000022 F5               [16]   79 	push	af
    00000023 33               [ 8]   80 	inc	sp
    00000024 CDr00r00         [24]   81 	call	_font_color
    00000027 E1               [12]   82 	pop	hl
                                     83 ;src/fonts.c:37: min_font = font_load(font_min);
    00000028 11r00r00         [12]   84 	ld	de, #_font_min
    0000002B D5               [16]   85 	push	de
    0000002C CDr00r00         [24]   86 	call	_font_load
    0000002F E1               [12]   87 	pop	hl
    00000030 F8 04            [12]   88 	ldhl	sp,	#4
    00000032 73               [ 8]   89 	ld	(hl), e
    00000033 23               [ 8]   90 	inc	hl
    00000034 72               [ 8]   91 	ld	(hl), d
                                     92 ;src/fonts.c:40: mode(get_mode() | M_NO_SCROLL);
    00000035 CDr00r00         [24]   93 	call	_get_mode
    00000038 F6 04            [ 8]   94 	or	a, #0x04
    0000003A CDr00r00         [24]   95 	call	_mode
                                     96 ;src/fonts.c:45: font_set(ibm_font);
    0000003D D1               [12]   97 	pop	de
    0000003E D5               [16]   98 	push	de
    0000003F D5               [16]   99 	push	de
    00000040 CDr00r00         [24]  100 	call	_font_set
    00000043 E1               [12]  101 	pop	hl
                                    102 ;src/fonts.c:48: printf("IBM Font #!?123\n");
    00000044 11rBDr00         [12]  103 	ld	de, #___str_8
    00000047 CDr00r00         [24]  104 	call	_puts
                                    105 ;src/fonts.c:51: font_set(italic_font);
    0000004A F8 02            [12]  106 	ldhl	sp,	#2
    0000004C 2A               [ 8]  107 	ld	a, (hl+)
    0000004D 5F               [ 4]  108 	ld	e, a
    0000004E 56               [ 8]  109 	ld	d, (hl)
    0000004F D5               [16]  110 	push	de
    00000050 CDr00r00         [24]  111 	call	_font_set
    00000053 E1               [12]  112 	pop	hl
                                    113 ;src/fonts.c:52: for (i=1; i!=5; i++) {
    00000054 01 01 00         [12]  114 	ld	bc, #0x0001
    00000057                        115 00102$:
                                    116 ;src/fonts.c:53: printf("In italics, line %u\n", i);
    00000057 C5               [16]  117 	push	bc
    00000058 C5               [16]  118 	push	bc
    00000059 11r8Cr00         [12]  119 	ld	de, #___str_4
    0000005C D5               [16]  120 	push	de
    0000005D CDr00r00         [24]  121 	call	_printf
    00000060 E8 04            [16]  122 	add	sp, #4
    00000062 C1               [12]  123 	pop	bc
                                    124 ;src/fonts.c:52: for (i=1; i!=5; i++) {
    00000063 03               [ 8]  125 	inc	bc
    00000064 79               [ 4]  126 	ld	a, c
    00000065 D6 05            [ 8]  127 	sub	a, #0x05
    00000067 B0               [ 4]  128 	or	a, b
    00000068 20 ED            [12]  129 	jr	NZ, 00102$
                                    130 ;src/fonts.c:57: font_set(min_font);
    0000006A F8 04            [12]  131 	ldhl	sp,	#4
    0000006C 5E               [ 8]  132 	ld	e, (hl)
    0000006D 23               [ 8]  133 	inc	hl
    0000006E 56               [ 8]  134 	ld	d, (hl)
    0000006F D5               [16]  135 	push	de
    00000070 CDr00r00         [24]  136 	call	_font_set
    00000073 E1               [12]  137 	pop	hl
                                    138 ;src/fonts.c:58: printf("Minimal 36 tile font\n");
    00000074 11rA1r00         [12]  139 	ld	de, #___str_6
    00000077 CDr00r00         [24]  140 	call	_puts
                                    141 ;src/fonts.c:61: font_set(ibm_font);
    0000007A D1               [12]  142 	pop	de
    0000007B D5               [16]  143 	push	de
    0000007C D5               [16]  144 	push	de
    0000007D CDr00r00         [24]  145 	call	_font_set
    00000080 E1               [12]  146 	pop	hl
                                    147 ;src/fonts.c:62: printf("\nDone!");
    00000081 11rB6r00         [12]  148 	ld	de, #___str_7
    00000084 D5               [16]  149 	push	de
    00000085 CDr00r00         [24]  150 	call	_printf
    00000088 E1               [12]  151 	pop	hl
                                    152 ;src/fonts.c:63: }
    00000089 E8 06            [16]  153 	add	sp, #6
    0000008B C9               [16]  154 	ret
    0000008C                        155 ___str_4:
    0000008C 49 6E 20 69 74 61 6C   156 	.ascii "In italics, line %u"
             69 63 73 2C 20 6C 69
             6E 65 20 25 75
    0000009F 0A                     157 	.db 0x0a
    000000A0 00                     158 	.db 0x00
    000000A1                        159 ___str_6:
    000000A1 4D 69 6E 69 6D 61 6C   160 	.ascii "Minimal 36 tile font"
             20 33 36 20 74 69 6C
             65 20 66 6F 6E 74
    000000B5 00                     161 	.db 0x00
    000000B6                        162 ___str_7:
    000000B6 0A                     163 	.db 0x0a
    000000B7 44 6F 6E 65 21         164 	.ascii "Done!"
    000000BC 00                     165 	.db 0x00
    000000BD                        166 ___str_8:
    000000BD 46 6F 6E 74 20 64 65   167 	.ascii "Font demo."
             6D 6F 2E
    000000C7 0A                     168 	.db 0x0a
    000000C8 0A                     169 	.db 0x0a
    000000C9 49 42 4D 20 46 6F 6E   170 	.ascii "IBM Font #!?123"
             74 20 23 21 3F 31 32
             33
    000000D8 00                     171 	.db 0x00
                                    172 	.area _CODE
                                    173 	.area _INITIALIZER
                                    174 	.area _CABS (ABS)
