                                      1 ;--------------------------------------------------------
                                      2 ; File Created by SDCC : free open source ISO C Compiler 
                                      3 ; Version 4.4.1 #14650 (Linux)
                                      4 ;--------------------------------------------------------
                                      5 	.module main
                                      6 	.optsdcc -msm83
                                      7 	
                                      8 ;--------------------------------------------------------
                                      9 ; Public variables in this module
                                     10 ;--------------------------------------------------------
                                     11 	.globl _main
                                     12 	.globl _SetCurrentLevelSubmap
                                     13 	.globl b_UpdateCamera
                                     14 	.globl _UpdateCamera
                                     15 	.globl _SetupCurrentLevel
                                     16 	.globl _ShowCentered
                                     17 	.globl _WaitForStartOrA
                                     18 	.globl _hide_sprites_range
                                     19 	.globl b_UpdatePlayer
                                     20 	.globl _UpdatePlayer
                                     21 	.globl b_SetupPlayer
                                     22 	.globl _SetupPlayer
                                     23 	.globl _display_off
                                     24 	.globl _vsync
                                     25 	.globl _joypad
                                     26 ;--------------------------------------------------------
                                     27 ; special function registers
                                     28 ;--------------------------------------------------------
                                     29 ;--------------------------------------------------------
                                     30 ; ram data
                                     31 ;--------------------------------------------------------
                                     32 	.area _DATA
                                     33 ;--------------------------------------------------------
                                     34 ; ram data
                                     35 ;--------------------------------------------------------
                                     36 	.area _INITIALIZED
                                     37 ;--------------------------------------------------------
                                     38 ; absolute external ram data
                                     39 ;--------------------------------------------------------
                                     40 	.area _DABS (ABS)
                                     41 ;--------------------------------------------------------
                                     42 ; global & static initialisations
                                     43 ;--------------------------------------------------------
                                     44 	.area _HOME
                                     45 	.area _GSINIT
                                     46 	.area _GSFINAL
                                     47 	.area _GSINIT
                                     48 ;--------------------------------------------------------
                                     49 ; Home
                                     50 ;--------------------------------------------------------
                                     51 	.area _HOME
                                     52 	.area _HOME
                                     53 ;--------------------------------------------------------
                                     54 ; code
                                     55 ;--------------------------------------------------------
                                     56 	.area _CODE
                                     57 ;src/main.c:14: void main(void)
                                     58 ;	---------------------------------
                                     59 ; Function main
                                     60 ; ---------------------------------
    00000000                         61 _main::
    00000000 3B               [ 8]   62 	dec	sp
                                     63 ;src/main.c:20: BGP_REG = DMG_PALETTE(DMG_BLACK, DMG_WHITE, DMG_LITE_GRAY, DMG_DARK_GRAY);
    00000001 3E 93            [ 8]   64 	ld	a, #0x93
    00000003 E0r00            [12]   65 	ldh	(_BGP_REG + 0), a
                                     66 ;src/main.c:21: OBP0_REG =OBP1_REG =DMG_PALETTE(DMG_DARK_GRAY, DMG_BLACK, DMG_WHITE,  DMG_LITE_GRAY );
    00000005 3E 4E            [ 8]   67 	ld	a, #0x4e
    00000007 E0r00            [12]   68 	ldh	(_OBP1_REG + 0), a
    00000009 3E 4E            [ 8]   69 	ld	a, #0x4e
    0000000B E0r00            [12]   70 	ldh	(_OBP0_REG + 0), a
                                     71 ;src/main.c:25: SHOW_BKG;
    0000000D F0r00            [12]   72 	ldh	a, (_LCDC_REG + 0)
    0000000F F6 01            [ 8]   73 	or	a, #0x01
    00000011 E0r00            [12]   74 	ldh	(_LCDC_REG + 0), a
                                     75 ;src/main.c:26: SHOW_SPRITES;
    00000013 F0r00            [12]   76 	ldh	a, (_LCDC_REG + 0)
    00000015 F6 02            [ 8]   77 	or	a, #0x02
    00000017 E0r00            [12]   78 	ldh	(_LCDC_REG + 0), a
                                     79 ;src/main.c:27: SPRITES_8x16;
    00000019 F0r00            [12]   80 	ldh	a, (_LCDC_REG + 0)
    0000001B F6 04            [ 8]   81 	or	a, #0x04
    0000001D E0r00            [12]   82 	ldh	(_LCDC_REG + 0), a
                                     83 ;src/main.c:29: ShowCentered(TitleScreen_WIDTH,TitleScreen_HEIGHT,BANK(TitleScreen),TitleScreen_tiles,TitleScreen_TILE_COUNT,TitleScreen_map,TitleScreen_palettes);
    0000001F 11r00r00         [12]   84 	ld	de, #_TitleScreen_map+0
    00000022 01r00r00         [12]   85 	ld	bc, #_TitleScreen_tiles+0
    00000025 3Er00            [ 8]   86 	ld	a, #<(___bank_TitleScreen)
    00000027 21r00r00         [12]   87 	ld	hl, #_TitleScreen_palettes
    0000002A E5               [16]   88 	push	hl
    0000002B D5               [16]   89 	push	de
    0000002C 26 76            [ 8]   90 	ld	h, #0x76
                                     91 ;	spillPairReg hl
                                     92 ;	spillPairReg hl
    0000002E E5               [16]   93 	push	hl
    0000002F 33               [ 8]   94 	inc	sp
    00000030 C5               [16]   95 	push	bc
    00000031 F5               [16]   96 	push	af
    00000032 33               [ 8]   97 	inc	sp
    00000033 1E 48            [ 8]   98 	ld	e, #0x48
    00000035 3E A0            [ 8]   99 	ld	a, #0xa0
    00000037 CDr00r00         [24]  100 	call	_ShowCentered
                                    101 ;src/main.c:31: WaitForStartOrA();
    0000003A CDr00r00         [24]  102 	call	_WaitForStartOrA
                                    103 ;src/main.c:34: currentLevel=255;
    0000003D 21r00r00         [12]  104 	ld	hl, #_currentLevel
    00000040 36 FF            [12]  105 	ld	(hl), #0xff
                                    106 ;src/main.c:35: nextLevel=0;
    00000042 21r00r00         [12]  107 	ld	hl, #_nextLevel
    00000045 36 00            [12]  108 	ld	(hl), #0x00
                                    109 ;src/main.c:38: while(1) {
    00000047                        110 00106$:
                                    111 ;src/main.c:41: vsync();
    00000047 CDr00r00         [24]  112 	call	_vsync
                                    113 ;src/main.c:44: if(nextLevel!=currentLevel){
    0000004A FAr00r00         [16]  114 	ld	a, (#_nextLevel)
    0000004D 21r00r00         [12]  115 	ld	hl, #_currentLevel
    00000050 96               [ 8]  116 	sub	a, (hl)
    00000051 28 50            [12]  117 	jr	Z, 00104$
                                    118 ;src/main.c:48: if(currentLevel!=255){
    00000053 FAr00r00         [16]  119 	ld	a, (#_currentLevel)
    00000056 3C               [ 4]  120 	inc	a
    00000057 28 21            [12]  121 	jr	Z, 00102$
                                    122 ;src/main.c:50: ShowCentered(NextLevel_WIDTH,NextLevel_HEIGHT,BANK(NextLevel),NextLevel_tiles,NextLevel_TILE_COUNT,NextLevel_map,NextLevel_palettes);
    00000059 F8 00            [12]  123 	ldhl	sp,	#0
    0000005B 36r00            [12]  124 	ld	(hl), #<(___bank_NextLevel)
    0000005D 11r00r00         [12]  125 	ld	de, #_NextLevel_palettes
    00000060 D5               [16]  126 	push	de
    00000061 11r00r00         [12]  127 	ld	de, #_NextLevel_map
    00000064 D5               [16]  128 	push	de
    00000065 3E 1C            [ 8]  129 	ld	a, #0x1c
    00000067 F5               [16]  130 	push	af
    00000068 33               [ 8]  131 	inc	sp
    00000069 11r00r00         [12]  132 	ld	de, #_NextLevel_tiles
    0000006C D5               [16]  133 	push	de
    0000006D 7E               [ 8]  134 	ld	a, (hl)
    0000006E F5               [16]  135 	push	af
    0000006F 33               [ 8]  136 	inc	sp
    00000070 1E 48            [ 8]  137 	ld	e, #0x48
    00000072 3E A0            [ 8]  138 	ld	a, #0xa0
    00000074 CDr00r00         [24]  139 	call	_ShowCentered
                                    140 ;src/main.c:52: WaitForStartOrA();
    00000077 CDr00r00         [24]  141 	call	_WaitForStartOrA
    0000007A                        142 00102$:
                                    143 ;src/main.c:56: currentLevel=nextLevel;
    0000007A FAr00r00         [16]  144 	ld	a, (#_nextLevel)
    0000007D EAr00r00         [16]  145 	ld	(#_currentLevel),a
                                    146 ;src/main.c:58: DISPLAY_OFF;
    00000080 CDr00r00         [24]  147 	call	_display_off
                                    148 ;src/main.c:61: SetupCurrentLevel();
    00000083 CDr00r00         [24]  149 	call	_SetupCurrentLevel
                                    150 ;src/main.c:63: camera_x=0;
    00000086 AF               [ 4]  151 	xor	a, a
    00000087 21r00r00         [12]  152 	ld	hl, #_camera_x
    0000008A 22               [ 8]  153 	ld	(hl+), a
    0000008B 77               [ 8]  154 	ld	(hl), a
                                    155 ;src/main.c:69: SetCurrentLevelSubmap(0,0,DEVICE_SCREEN_WIDTH+1,DEVICE_SCREEN_HEIGHT);
    0000008C 21 15 12         [12]  156 	ld	hl, #0x1215
    0000008F E5               [16]  157 	push	hl
    00000090 AF               [ 4]  158 	xor	a, a
    00000091 5F               [ 4]  159 	ld	e, a
    00000092 CDr00r00         [24]  160 	call	_SetCurrentLevelSubmap
                                    161 ;src/main.c:71: DISPLAY_ON;
    00000095 F0r00            [12]  162 	ldh	a, (_LCDC_REG + 0)
    00000097 F6 80            [ 8]  163 	or	a, #0x80
    00000099 E0r00            [12]  164 	ldh	(_LCDC_REG + 0), a
                                    165 ;src/main.c:81: SetupPlayer();
    0000009B 1Er00            [ 8]  166 	ld	e, #b_SetupPlayer
    0000009D 21r00r00         [12]  167 	ld	hl, #_SetupPlayer
    000000A0 CDr00r00         [24]  168 	call	___sdcc_bcall_ehl
    000000A3                        169 00104$:
                                    170 ;src/main.c:85: joypadPrevious = joypadCurrent;
    000000A3 FAr00r00         [16]  171 	ld	a, (#_joypadCurrent)
    000000A6 EAr00r00         [16]  172 	ld	(#_joypadPrevious),a
                                    173 ;src/main.c:86: joypadCurrent = joypad();
    000000A9 CDr00r00         [24]  174 	call	_joypad
    000000AC EAr00r00         [16]  175 	ld	(#_joypadCurrent),a
                                    176 ;src/main.c:88: uint8_t spritesUsed = UpdatePlayer();
    000000AF 1Er00            [ 8]  177 	ld	e, #b_UpdatePlayer
    000000B1 21r00r00         [12]  178 	ld	hl, #_UpdatePlayer
    000000B4 CDr00r00         [24]  179 	call	___sdcc_bcall_ehl
    000000B7 F8 00            [12]  180 	ldhl	sp,	#0
    000000B9 77               [ 8]  181 	ld	(hl), a
                                    182 ;src/main.c:89: hide_sprites_range(spritesUsed,MAX_HARDWARE_SPRITES);
    000000BA 1E 28            [ 8]  183 	ld	e, #0x28
    000000BC F8 00            [12]  184 	ldhl	sp,	#0
    000000BE 7E               [ 8]  185 	ld	a, (hl)
    000000BF CDr00r00         [24]  186 	call	_hide_sprites_range
                                    187 ;src/main.c:91: UpdateCamera();
    000000C2 1Er00            [ 8]  188 	ld	e, #b_UpdateCamera
    000000C4 21r00r00         [12]  189 	ld	hl, #_UpdateCamera
    000000C7 CDr00r00         [24]  190 	call	___sdcc_bcall_ehl
    000000CA C3r47r00         [16]  191 	jp	00106$
                                    192 ;src/main.c:93: }
    000000CD 33               [ 8]  193 	inc	sp
    000000CE C9               [16]  194 	ret
                                    195 	.area _CODE
                                    196 	.area _INITIALIZER
                                    197 	.area _CABS (ABS)
