                                      1 ;--------------------------------------------------------
                                      2 ; File Created by SDCC : free open source ISO C Compiler 
                                      3 ; Version 4.4.1 #14650 (Linux)
                                      4 ;--------------------------------------------------------
                                      5 	.module banks
                                      6 	.optsdcc -msm83
                                      7 	
                                      8 ;--------------------------------------------------------
                                      9 ; Public variables in this module
                                     10 ;--------------------------------------------------------
                                     11 	.globl _main
                                     12 	.globl _bank_fixed
                                     13 	.globl b_func_4
                                     14 	.globl _func_4
                                     15 	.globl b_func_3
                                     16 	.globl _func_3
                                     17 	.globl b_func_2
                                     18 	.globl _func_2
                                     19 	.globl b_func_1
                                     20 	.globl _func_1
                                     21 	.globl _puts
                                     22 	.globl _printf
                                     23 	.globl _set_default_palette
                                     24 	.globl _vsync
                                     25 	.globl _some_const_var_0
                                     26 ;--------------------------------------------------------
                                     27 ; special function registers
                                     28 ;--------------------------------------------------------
                                     29 ;--------------------------------------------------------
                                     30 ; ram data
                                     31 ;--------------------------------------------------------
                                     32 	.area _DATA
                                     33 ;--------------------------------------------------------
                                     34 ; ram data
                                     35 ;--------------------------------------------------------
                                     36 	.area _INITIALIZED
                                     37 ;--------------------------------------------------------
                                     38 ; absolute external ram data
                                     39 ;--------------------------------------------------------
                                     40 	.area _DABS (ABS)
                                     41 ;--------------------------------------------------------
                                     42 ; global & static initialisations
                                     43 ;--------------------------------------------------------
                                     44 	.area _HOME
                                     45 	.area _GSINIT
                                     46 	.area _GSFINAL
                                     47 	.area _GSINIT
                                     48 ;--------------------------------------------------------
                                     49 ; Home
                                     50 ;--------------------------------------------------------
                                     51 	.area _HOME
                                     52 ;src/banks.c:17: void bank_fixed(void) NONBANKED
                                     53 ;	---------------------------------
                                     54 ; Function bank_fixed
                                     55 ; ---------------------------------
    00000000                         56 _bank_fixed::
                                     57 ;src/banks.c:19: puts("I'm in fixed ROM");
    00000000 11r07r00         [12]   58 	ld	de, #___str_0
                                     59 ;src/banks.c:20: }
    00000003 C3r00r00         [16]   60 	jp	_puts
    00000006                         61 _some_const_var_0:
    00000006 00                      62 	.db #0x00	; 0
    00000007                         63 ___str_0:
    00000007 49 27 6D 20 69 6E 20    64 	.ascii "I'm in fixed ROM"
             66 69 78 65 64 20 52
             4F 4D
    00000017 00                      65 	.db 0x00
                                     66 	.area _HOME
                                     67 ;--------------------------------------------------------
                                     68 ; code
                                     69 ;--------------------------------------------------------
                                     70 	.area _CODE
                                     71 ;src/banks.c:22: void main(void)
                                     72 ;	---------------------------------
                                     73 ; Function main
                                     74 ; ---------------------------------
    00000000                         75 _main::
                                     76 ;src/banks.c:27: set_default_palette();
    00000000 CDr00r00         [24]   77 	call	_set_default_palette
                                     78 ;src/banks.c:29: printf("Program Start...\n\n");
    00000003 11rCAr00         [12]   79 	ld	de, #___str_2
    00000006 CDr00r00         [24]   80 	call	_puts
                                     81 ;src/banks.c:32: bank_fixed();
    00000009 CDr00r00         [24]   82 	call	_bank_fixed
                                     83 ;src/banks.c:34: func_1();
    0000000C 1Er00            [ 8]   84 	ld	e, #b_func_1
    0000000E 21r00r00         [12]   85 	ld	hl, #_func_1
    00000011 CDr00r00         [24]   86 	call	___sdcc_bcall_ehl
                                     87 ;src/banks.c:35: func_2();
    00000014 1Er00            [ 8]   88 	ld	e, #b_func_2
    00000016 21r00r00         [12]   89 	ld	hl, #_func_2
    00000019 CDr00r00         [24]   90 	call	___sdcc_bcall_ehl
                                     91 ;src/banks.c:36: func_3();
    0000001C 1Er00            [ 8]   92 	ld	e, #b_func_3
    0000001E 21r00r00         [12]   93 	ld	hl, #_func_3
    00000021 CDr00r00         [24]   94 	call	___sdcc_bcall_ehl
                                     95 ;src/banks.c:37: func_4();
    00000024 1Er00            [ 8]   96 	ld	e, #b_func_4
    00000026 21r00r00         [12]   97 	ld	hl, #_func_4
    00000029 CDr00r00         [24]   98 	call	___sdcc_bcall_ehl
                                     99 ;src/banks.c:39: printf("\n");
    0000002C 11rDCr00         [12]  100 	ld	de, #___str_4
    0000002F CDr00r00         [24]  101 	call	_puts
                                    102 ;src/banks.c:43: printf("Const0= %u nonbanked\n", some_const_var_0);
    00000032 11 00 00         [12]  103 	ld	de, #0x0000
    00000035 D5               [16]  104 	push	de
    00000036 11rDDr00         [12]  105 	ld	de, #___str_5
    00000039 D5               [16]  106 	push	de
    0000003A CDr00r00         [24]  107 	call	_printf
    0000003D E8 04            [16]  108 	add	sp, #4
                                    109 ;src/banks.c:45: SWITCH_ROM(BANK(some_const_var_1));
    0000003F 3Er00            [ 8]  110 	ld	a, #<(___bank_some_const_var_1)
    00000041 E0r00            [12]  111 	ldh	(__current_bank + 0), a
    00000043 21r00r00         [12]  112 	ld	hl, #_rROMB0
    00000046 36r00            [12]  113 	ld	(hl), #<(___bank_some_const_var_1)
                                    114 ;src/banks.c:46: printf("Const1= %u in bank %hu\n", some_const_var_1, BANK(some_const_var_1));
    00000048 16r00            [ 8]  115 	ld	d, #<(___bank_some_const_var_1)
    0000004A 21r00r00         [12]  116 	ld	hl, #_some_const_var_1
    0000004D 4E               [ 8]  117 	ld	c, (hl)
    0000004E 06 00            [ 8]  118 	ld	b, #0x00
    00000050 D5               [16]  119 	push	de
    00000051 33               [ 8]  120 	inc	sp
    00000052 C5               [16]  121 	push	bc
    00000053 11rF3r00         [12]  122 	ld	de, #___str_6
    00000056 D5               [16]  123 	push	de
    00000057 CDr00r00         [24]  124 	call	_printf
    0000005A E8 05            [16]  125 	add	sp, #5
                                    126 ;src/banks.c:47: SWITCH_ROM(BANK(some_const_var_2));
    0000005C 3Er00            [ 8]  127 	ld	a, #<(___bank_some_const_var_2)
    0000005E E0r00            [12]  128 	ldh	(__current_bank + 0), a
    00000060 21r00r00         [12]  129 	ld	hl, #_rROMB0
    00000063 36r00            [12]  130 	ld	(hl), #<(___bank_some_const_var_2)
                                    131 ;src/banks.c:48: printf("Const2= %u in bank %hu\n", some_const_var_2, BANK(some_const_var_2));
    00000065 16r00            [ 8]  132 	ld	d, #<(___bank_some_const_var_2)
    00000067 21r00r00         [12]  133 	ld	hl, #_some_const_var_2
    0000006A 4E               [ 8]  134 	ld	c, (hl)
    0000006B 06 00            [ 8]  135 	ld	b, #0x00
    0000006D D5               [16]  136 	push	de
    0000006E 33               [ 8]  137 	inc	sp
    0000006F C5               [16]  138 	push	bc
    00000070 11r0Br01         [12]  139 	ld	de, #___str_7
    00000073 D5               [16]  140 	push	de
    00000074 CDr00r00         [24]  141 	call	_printf
    00000077 E8 05            [16]  142 	add	sp, #5
                                    143 ;src/banks.c:49: SWITCH_ROM(BANK(some_const_var_3));
    00000079 3Er00            [ 8]  144 	ld	a, #<(___bank_some_const_var_3)
    0000007B E0r00            [12]  145 	ldh	(__current_bank + 0), a
    0000007D 21r00r00         [12]  146 	ld	hl, #_rROMB0
    00000080 36r00            [12]  147 	ld	(hl), #<(___bank_some_const_var_3)
                                    148 ;src/banks.c:50: printf("Const3= %u in bank %hu\n", some_const_var_3, BANK(some_const_var_3));
    00000082 16r00            [ 8]  149 	ld	d, #<(___bank_some_const_var_3)
    00000084 21r00r00         [12]  150 	ld	hl, #_some_const_var_3
    00000087 4E               [ 8]  151 	ld	c, (hl)
    00000088 06 00            [ 8]  152 	ld	b, #0x00
    0000008A D5               [16]  153 	push	de
    0000008B 33               [ 8]  154 	inc	sp
    0000008C C5               [16]  155 	push	bc
    0000008D 11r23r01         [12]  156 	ld	de, #___str_8
    00000090 D5               [16]  157 	push	de
    00000091 CDr00r00         [24]  158 	call	_printf
    00000094 E8 05            [16]  159 	add	sp, #5
                                    160 ;src/banks.c:56: _saved_bank = CURRENT_BANK;
    00000096 F0r00            [12]  161 	ldh	a, (__current_bank + 0)
    00000098 4F               [ 4]  162 	ld	c, a
                                    163 ;src/banks.c:59: SWITCH_ROM(BANK(some_const_var_4));
    00000099 3Er00            [ 8]  164 	ld	a, #<(___bank_some_const_var_4)
    0000009B E0r00            [12]  165 	ldh	(__current_bank + 0), a
    0000009D 21r00r00         [12]  166 	ld	hl, #_rROMB0
    000000A0 36r00            [12]  167 	ld	(hl), #<(___bank_some_const_var_4)
                                    168 ;src/banks.c:60: printf("Const4= %u in bank %hu\n", some_const_var_4, BANK(some_const_var_4));
    000000A2 06r00            [ 8]  169 	ld	b, #<(___bank_some_const_var_4)
    000000A4 21r00r00         [12]  170 	ld	hl, #_some_const_var_4
    000000A7 5E               [ 8]  171 	ld	e, (hl)
    000000A8 16 00            [ 8]  172 	ld	d, #0x00
    000000AA C5               [16]  173 	push	bc
    000000AB C5               [16]  174 	push	bc
    000000AC 33               [ 8]  175 	inc	sp
    000000AD D5               [16]  176 	push	de
    000000AE 11r3Br01         [12]  177 	ld	de, #___str_9
    000000B1 D5               [16]  178 	push	de
    000000B2 CDr00r00         [24]  179 	call	_printf
    000000B5 E8 05            [16]  180 	add	sp, #5
    000000B7 C1               [12]  181 	pop	bc
                                    182 ;src/banks.c:63: SWITCH_ROM(_saved_bank);
    000000B8 79               [ 4]  183 	ld	a, c
    000000B9 E0r00            [12]  184 	ldh	(__current_bank + 0), a
    000000BB 21r00r00         [12]  185 	ld	hl, #_rROMB0
    000000BE 71               [ 8]  186 	ld	(hl), c
                                    187 ;src/banks.c:68: puts("The End...");
    000000BF 11r53r01         [12]  188 	ld	de, #___str_12
    000000C2 CDr00r00         [24]  189 	call	_puts
                                    190 ;src/banks.c:71: while(1) {
    000000C5                        191 00102$:
                                    192 ;src/banks.c:74: vsync();
    000000C5 CDr00r00         [24]  193 	call	_vsync
                                    194 ;src/banks.c:76: }
    000000C8 18 FB            [12]  195 	jr	00102$
    000000CA                        196 ___str_2:
    000000CA 50 72 6F 67 72 61 6D   197 	.ascii "Program Start..."
             20 53 74 61 72 74 2E
             2E 2E
    000000DA 0A                     198 	.db 0x0a
    000000DB 00                     199 	.db 0x00
    000000DC                        200 ___str_4:
    000000DC 00                     201 	.db 0x00
    000000DD                        202 ___str_5:
    000000DD 43 6F 6E 73 74 30 3D   203 	.ascii "Const0= %u nonbanked"
             20 25 75 20 6E 6F 6E
             62 61 6E 6B 65 64
    000000F1 0A                     204 	.db 0x0a
    000000F2 00                     205 	.db 0x00
    000000F3                        206 ___str_6:
    000000F3 43 6F 6E 73 74 31 3D   207 	.ascii "Const1= %u in bank %hu"
             20 25 75 20 69 6E 20
             62 61 6E 6B 20 25 68
             75
    00000109 0A                     208 	.db 0x0a
    0000010A 00                     209 	.db 0x00
    0000010B                        210 ___str_7:
    0000010B 43 6F 6E 73 74 32 3D   211 	.ascii "Const2= %u in bank %hu"
             20 25 75 20 69 6E 20
             62 61 6E 6B 20 25 68
             75
    00000121 0A                     212 	.db 0x0a
    00000122 00                     213 	.db 0x00
    00000123                        214 ___str_8:
    00000123 43 6F 6E 73 74 33 3D   215 	.ascii "Const3= %u in bank %hu"
             20 25 75 20 69 6E 20
             62 61 6E 6B 20 25 68
             75
    00000139 0A                     216 	.db 0x0a
    0000013A 00                     217 	.db 0x00
    0000013B                        218 ___str_9:
    0000013B 43 6F 6E 73 74 34 3D   219 	.ascii "Const4= %u in bank %hu"
             20 25 75 20 69 6E 20
             62 61 6E 6B 20 25 68
             75
    00000151 0A                     220 	.db 0x0a
    00000152 00                     221 	.db 0x00
    00000153                        222 ___str_12:
    00000153 0A                     223 	.db 0x0a
    00000154 54 68 65 20 45 6E 64   224 	.ascii "The End..."
             2E 2E 2E
    0000015E 00                     225 	.db 0x00
                                    226 	.area _CODE
                                    227 	.area _INITIALIZER
                                    228 	.area _CABS (ABS)
