ASxxxx Linker V03.00/V05.40 + sdld,  page 1.
Hexadecimal  [32-Bits]

Area                       Addr        Size        Decimal Bytes (Attributes)
--------------------       ----        ----        ------- ----- ------------
.  .ABS.               00000000    00000000 =           0. bytes (ABS,CON)

        Value  Global            Value  Global            Value  Global    
        -----  ------            -----  ------            -----  ------    
     00000000  .__.ABS.  |    00000000  l__BASE   |    00000000  l__BSEG  
     00000000  l__BSS    |    00000000  l__CABS   |    00000000  l__CODE_0
     00000000  l__DABS   |    00000000  l__HEADER |    00000000  l__HEAP  
     00000000  l__HEAP_E |    00000000  l__LIT    |    00000000  s__CABS  
     00000000  s__DABS   |    00000000  s__HEADER |    00000000  s__HEADER
     00000000  s__HEADER |    00000000  s__HEADER |    00000000  s__HEADER
     00000000  s__HEADER |    00000000  s__HEADER |    00000000  s__HEADER
     00000001  l__GSFINA |    00000001  l__HEADER |    00000003  l__HEADER
     00000003  l__HEADER |    00000006  l__HEADER |    00000009  l__HEADER
     00000009  l__HEADER |    0000000C  l__DATA   |    0000000C  l__GSINIT
     00000024  l__INITIA |    00000024  l__INITIA |    00000071  l__HEADER
     00000100  s__CODE   |    000005EC  l__HOME   |    00000BAB  l__CODE  
     00000CAB  s__HOME   |    00001297  s__BASE   |    00001297  s__CODE_0
     00001297  s__INITIA |    00001297  s__LIT    |    000012BB  s__GSINIT
     000012C7  s__GSFINA |    0000C000  _shadow_O |    0000C0C0  s__DATA  
     0000C0CC  s__INITIA |    0000C0F0  s__BSEG   |    0000C0F0  s__BSS   
     0000C0F0  s__HEAP   |    0000C0F0  s__HEAP_E |    0000DFF0  .STACK   
ASxxxx Linker V03.00/V05.40 + sdld,  page 2.
Hexadecimal  [32-Bits]

Area                       Addr        Size        Decimal Bytes (Attributes)
--------------------       ----        ----        ------- ----- ------------
_CODE                  00000100    00000BAB =        2987. bytes (REL,CON)

        Value  Global            Value  Global            Value  Global    
        -----  ------            -----  ------            -----  ------    
     00000100  _draw_but |    00000294  _draw_dis |    00000381  _reset_ob
     000003C8  _main     |    0000063B  _sprite_d |    0000067B  _tiles_da
     00000C4B  _normal_b |    00000C6B  _pressed_ |    00000C8B  _disabled
ASxxxx Linker V03.00/V05.40 + sdld,  page 3.
Hexadecimal  [32-Bits]

Area                       Addr        Size        Decimal Bytes (Attributes)
--------------------       ----        ----        ------- ----- ------------
_HEADER0               00000000    00000006 =           6. bytes (ABS,CON)

        Value  Global            Value  Global            Value  Global    
        -----  ------            -----  ------            -----  ------    
ASxxxx Linker V03.00/V05.40 + sdld,  page 4.
Hexadecimal  [32-Bits]

Area                       Addr        Size        Decimal Bytes (Attributes)
--------------------       ----        ----        ------- ----- ------------
_HEADER1               00000000    00000009 =           9. bytes (ABS,CON)

        Value  Global            Value  Global            Value  Global    
        -----  ------            -----  ------            -----  ------    
     00000010  _WRITE_VD
ASxxxx Linker V03.00/V05.40 + sdld,  page 5.
Hexadecimal  [32-Bits]

Area                       Addr        Size        Decimal Bytes (Attributes)
--------------------       ----        ----        ------- ----- ------------
_HEADER2               00000000    00000009 =           9. bytes (ABS,CON)

        Value  Global            Value  Global            Value  Global    
        -----  ------            -----  ------            -----  ------    
     00000020  _WRITE_VD
ASxxxx Linker V03.00/V05.40 + sdld,  page 6.
Hexadecimal  [32-Bits]

Area                       Addr        Size        Decimal Bytes (Attributes)
--------------------       ----        ----        ------- ----- ------------
_HEADER3               00000000    00000001 =           1. bytes (ABS,CON)

        Value  Global            Value  Global            Value  Global    
        -----  ------            -----  ------            -----  ------    
     00000030  .call_hl 
ASxxxx Linker V03.00/V05.40 + sdld,  page 7.
Hexadecimal  [32-Bits]

Area                       Addr        Size        Decimal Bytes (Attributes)
--------------------       ----        ----        ------- ----- ------------
_HEADER4               00000000    00000003 =           3. bytes (ABS,CON)

        Value  Global            Value  Global            Value  Global    
        -----  ------            -----  ------            -----  ------    
ASxxxx Linker V03.00/V05.40 + sdld,  page 8.
Hexadecimal  [32-Bits]

Area                       Addr        Size        Decimal Bytes (Attributes)
--------------------       ----        ----        ------- ----- ------------
_HEADER5               00000000    00000003 =           3. bytes (ABS,CON)

        Value  Global            Value  Global            Value  Global    
        -----  ------            -----  ------            -----  ------    
ASxxxx Linker V03.00/V05.40 + sdld,  page 9.
Hexadecimal  [32-Bits]

Area                       Addr        Size        Decimal Bytes (Attributes)
--------------------       ----        ----        ------- ----- ------------
_HEADER6               00000000    00000071 =         113. bytes (ABS,CON)

        Value  Global            Value  Global            Value  Global    
        -----  ------            -----  ------            -----  ------    
     00000080  .init    
ASxxxx Linker V03.00/V05.40 + sdld,  page 10.
Hexadecimal  [32-Bits]

Area                       Addr        Size        Decimal Bytes (Attributes)
--------------------       ----        ----        ------- ----- ------------
_HOME                  00000CAB    000005EC =        1516. bytes (REL,CON)

        Value  Global            Value  Global            Value  Global    
        -----  ------            -----  ------            -----  ------    
     00000CDA  .CRT_DEFA |    00000CFA  .memset_s |    00000D03  .memcpy_s
     00000D09  .wait_vbl |    00000D09  _vsync    |    00000D09  _wait_vbl
     00000D1B  _set_tile |    00000DBE  _NMI_ISR  |    00000DC0  .OUTI128 
     00000E40  .OUTI64   |    00000E80  .OUTI32   |    00000EA0  .OUTI16  
     00000EC0  .OUTI_END |    00000EC1  _INT_ISR  |    00000F48  .remove_L
     00000F48  _remove_L |    00000F4B  .add_LCD  |    00000F4B  _add_LCD 
     00000F4F  _add_VBL  |    00000F51  .add_VBL  |    00000F54  .add_int 
     00000F60  _remove_V |    00000F62  .remove_V |    00000F65  .remove_i
     00000F81  _add_JOY  |    00000F81  _add_SIO  |    00000F81  _add_TIM 
     00000F81  _remove_J |    00000F81  _remove_S |    00000F81  _remove_T
     00000F82  _joypad_i |    00000FA8  _joypad_e |    00000FD7  .jpad    
     00000FD7  _joypad   |    00000FEC  .padup    |    00000FEC  _waitpadu
     00000FF8  .wait_pad |    00000FF8  _waitpad  |    00001000  .set_tile
     0000100B  .set_tile |    000010A3  _fill_rec |    00001101  _set_tile
     0000115F  .fill_rec |    0000116A  .fill_rec |    000011FD  .set_tile
     00001208  .set_tile
ASxxxx Linker V03.00/V05.40 + sdld,  page 11.
Hexadecimal  [32-Bits]

Area                       Addr        Size        Decimal Bytes (Attributes)
--------------------       ----        ----        ------- ----- ------------
_INITIALIZER           00001297    00000024 =          36. bytes (REL,CON)

        Value  Global            Value  Global            Value  Global    
        -----  ------            -----  ------            -----  ------    
ASxxxx Linker V03.00/V05.40 + sdld,  page 12.
Hexadecimal  [32-Bits]

Area                       Addr        Size        Decimal Bytes (Attributes)
--------------------       ----        ----        ------- ----- ------------
_GSINIT                000012BB    0000000C =          12. bytes (REL,CON)

        Value  Global            Value  Global            Value  Global    
        -----  ------            -----  ------            -----  ------    
     000012BB  .gsinit  
ASxxxx Linker V03.00/V05.40 + sdld,  page 13.
Hexadecimal  [32-Bits]

Area                       Addr        Size        Decimal Bytes (Attributes)
--------------------       ----        ----        ------- ----- ------------
_GSFINAL               000012C7    00000001 =           1. bytes (REL,CON)

        Value  Global            Value  Global            Value  Global    
        -----  ------            -----  ------            -----  ------    
ASxxxx Linker V03.00/V05.40 + sdld,  page 14.
Hexadecimal  [32-Bits]

Area                       Addr        Size        Decimal Bytes (Attributes)
--------------------       ----        ----        ------- ----- ------------
_DATA                  0000C0C0    0000000C =          12. bytes (REL,CON)

        Value  Global            Value  Global            Value  Global    
        -----  ------            -----  ------            -----  ------    
     0000C0C0  __BIOS    |    0000C0C1  __SYSTEM  |    0000C0C2  _old_joyp
     0000C0C7  _joypads 
ASxxxx Linker V03.00/V05.40 + sdld,  page 15.
Hexadecimal  [32-Bits]

Area                       Addr        Size        Decimal Bytes (Attributes)
--------------------       ----        ----        ------- ----- ------------
_INITIALIZED           0000C0CC    00000024 =          36. bytes (REL,CON)

        Value  Global            Value  Global            Value  Global    
        -----  ------            -----  ------            -----  ------    
     0000C0CC  _shadow_V |    0000C0CD  _shadow_V |    0000C0CE  _shadow_V
     0000C0CF  _shadow_V |    0000C0D0  _shadow_V |    0000C0D1  _shadow_V
     0000C0D2  _shadow_V |    0000C0D3  _shadow_V |    0000C0D3  _shadow_V
     0000C0D4  _shadow_V |    0000C0D4  _shadow_V |    0000C0D5  _shadow_V
     0000C0D5  _shadow_V |    0000C0D6  _shadow_V |    0000C0D7  .shadow_V
     0000C0D7  .sys_time |    0000C0D7  _sys_time |    0000C0D9  .vbl_done
     0000C0DA  .vdp_shif |    0000C0DA  _VDP_ATTR |    0000C0DB  __shadow_
     0000C0DC  __shadow_ |    0000C0DD  __sprites |    0000C0DE  .mode    
     0000C0DF  _toggle   |    0000C0E0  _isSGB    |    0000C0E1  _old_joy 
     0000C0E2  _joy      |    0000C0E3  __current |    0000C0EF  __map_til
ASxxxx Linker V03.00/V05.40 + sdld,  page 16.

Files Linked                              [ module(s) ]

../../../lib/gg/crt0.o                    [ Runtime ]
obj/gg/joytest.rel                        [ joytest ]
obj/gg/tiles.rel                          [ tiles ]


Libraries Linked                          [ object file ]

../../../lib/gg/gg.lib                    [ sms_set_2bpp_data.o ]
../../../lib/gg/gg.lib                    [ nmi.o ]
../../../lib/gg/gg.lib                    [ outi.o ]
../../../lib/gg/gg.lib                    [ sms_int.o ]
../../../lib/gg/gg.lib                    [ pad_ex.o ]
../../../lib/gg/gg.lib                    [ pad.o ]
../../../lib/gg/gg.lib                    [ set_tile_map_xy_compat.o ]
../../../lib/gg/gg.lib                    [ sms_fill_rect_compat.o ]
../../../lib/gg/gg.lib                    [ set_tile_map_compat.o ]
../../../lib/gg/gg.lib                    [ sms_fill_rect_xy_compat.o ]
../../../lib/gg/gg.lib                    [ set_tile_map_xy.o ]

ASxxxx Linker V03.00/V05.40 + sdld,  page 17.

User Base Address Definitions

_DATA=0xC0C0
_CODE=0x0100
ASxxxx Linker V03.00/V05.40 + sdld,  page 18.

User Global Definitions

_shadow_OAM=0xC000
.STACK=0xDFF0

