                                      1 ;--------------------------------------------------------
                                      2 ; File Created by SDCC : free open source ISO C Compiler 
                                      3 ; Version 4.4.1 #14650 (Linux)
                                      4 ;--------------------------------------------------------
                                      5 	.module fonts
                                      6 	.optsdcc -mz80
                                      7 	
                                      8 ;--------------------------------------------------------
                                      9 ; Public variables in this module
                                     10 ;--------------------------------------------------------
                                     11 	.globl _main
                                     12 	.globl _font_color
                                     13 	.globl _font_set
                                     14 	.globl _font_load
                                     15 	.globl _font_init
                                     16 	.globl _get_mode
                                     17 	.globl _mode
                                     18 	.globl _puts
                                     19 	.globl _printf
                                     20 ;--------------------------------------------------------
                                     21 ; special function registers
                                     22 ;--------------------------------------------------------
                         00000000    23 _GG_STATE	=	0x0000
                         00000001    24 _GG_EXT_7BIT	=	0x0001
                         00000002    25 _GG_EXT_CTL	=	0x0002
                         00000003    26 _GG_SIO_SEND	=	0x0003
                         00000004    27 _GG_SIO_RECV	=	0x0004
                         00000005    28 _GG_SIO_CTL	=	0x0005
                         00000006    29 _GG_SOUND_PAN	=	0x0006
                         0000003E    30 _MEMORY_CTL	=	0x003e
                         0000003F    31 _JOY_CTL	=	0x003f
                         0000007E    32 _VCOUNTER	=	0x007e
                         0000007F    33 _PSG	=	0x007f
                         0000007F    34 _HCOUNTER	=	0x007f
                         000000BE    35 _VDP_DATA	=	0x00be
                         000000BF    36 _VDP_CMD	=	0x00bf
                         000000BF    37 _VDP_STATUS	=	0x00bf
                         000000DC    38 _JOY_PORT1	=	0x00dc
                         000000DD    39 _JOY_PORT2	=	0x00dd
                         000000F0    40 _FMADDRESS	=	0x00f0
                         000000F1    41 _FMDATA	=	0x00f1
                         000000F2    42 _AUDIOCTRL	=	0x00f2
                                     43 ;--------------------------------------------------------
                                     44 ; ram data
                                     45 ;--------------------------------------------------------
                                     46 	.area _DATA
                         0000FFFC    47 _RAM_CONTROL	=	0xfffc
                         0000FFF8    48 _GLASSES_3D	=	0xfff8
                         0000FFFD    49 _MAP_FRAME0	=	0xfffd
                         0000FFFE    50 _MAP_FRAME1	=	0xfffe
                         0000FFFF    51 _MAP_FRAME2	=	0xffff
                                     52 ;--------------------------------------------------------
                                     53 ; ram data
                                     54 ;--------------------------------------------------------
                                     55 	.area _INITIALIZED
                                     56 ;--------------------------------------------------------
                                     57 ; absolute external ram data
                                     58 ;--------------------------------------------------------
                                     59 	.area _DABS (ABS)
                                     60 ;--------------------------------------------------------
                                     61 ; global & static initialisations
                                     62 ;--------------------------------------------------------
                                     63 	.area _HOME
                                     64 	.area _GSINIT
                                     65 	.area _GSFINAL
                                     66 	.area _GSINIT
                                     67 ;--------------------------------------------------------
                                     68 ; Home
                                     69 ;--------------------------------------------------------
                                     70 	.area _HOME
                                     71 	.area _HOME
                                     72 ;--------------------------------------------------------
                                     73 ; code
                                     74 ;--------------------------------------------------------
                                     75 	.area _CODE
                                     76 ;src/fonts.c:17: void main(void)
                                     77 ;	---------------------------------
                                     78 ; Function main
                                     79 ; ---------------------------------
    00000000                         80 _main::
    00000000 DD E5            [15]   81 	push	ix
    00000002 DD 21 00 00      [14]   82 	ld	ix,#0
    00000006 DD 39            [15]   83 	add	ix,sp
    00000008 21 FA FF         [10]   84 	ld	hl, #-6
    0000000B 39               [11]   85 	add	hl, sp
    0000000C F9               [ 6]   86 	ld	sp, hl
                                     87 ;src/fonts.c:20: __WRITE_VDP_REG(VDP_R2, R2_MAP_0x3800);
    0000000D FD 21r00r00      [14]   88 	ld	iy, #_shadow_VDP_R2
    00000011 FD 36 00 FF      [19]   89 	ld	0 (iy), #0xff
    00000015 F3               [ 4]   90 	di
    00000016 3E FF            [ 7]   91 	ld	a, #0xff
    00000018 D3 BF            [11]   92 	out	(_VDP_CMD), a
    0000001A 3E 82            [ 7]   93 	ld	a, #0x82
    0000001C D3 BF            [11]   94 	out	(_VDP_CMD), a
    0000001E FB               [ 4]   95 	ei
                                     96 ;src/fonts.c:21: __WRITE_VDP_REG(VDP_R5, R5_SAT_0x3F00);
    0000001F FD 21r00r00      [14]   97 	ld	iy, #_shadow_VDP_R5
    00000023 FD 36 00 FF      [19]   98 	ld	0 (iy), #0xff
    00000027 F3               [ 4]   99 	di
    00000028 3E FF            [ 7]  100 	ld	a, #0xff
    0000002A D3 BF            [11]  101 	out	(_VDP_CMD), a
    0000002C 3E 85            [ 7]  102 	ld	a, #0x85
    0000002E D3 BF            [11]  103 	out	(_VDP_CMD), a
    00000030 FB               [ 4]  104 	ei
                                    105 ;src/fonts.c:28: font_init();
    00000031 CDr00r00         [17]  106 	call	_font_init
                                    107 ;src/fonts.c:31: ibm_font = font_load(font_ibm);  /* 96 tiles */
    00000034 21r00r00         [10]  108 	ld	hl, #_font_ibm
    00000037 E5               [11]  109 	push	hl
    00000038 CDr00r00         [17]  110 	call	_font_load
    0000003B F1               [10]  111 	pop	af
    0000003C E3               [19]  112 	ex	(sp), hl
                                    113 ;src/fonts.c:32: italic_font = font_load(font_italic);   /* 93 tiles */
    0000003D 21r00r00         [10]  114 	ld	hl, #_font_italic
    00000040 E5               [11]  115 	push	hl
    00000041 CDr00r00         [17]  116 	call	_font_load
    00000044 F1               [10]  117 	pop	af
    00000045 DD 75 FC         [19]  118 	ld	-4 (ix), l
    00000048 DD 74 FD         [19]  119 	ld	-3 (ix), h
                                    120 ;src/fonts.c:35: font_color(WHITE, DKGREY);
    0000004B 21 03 01         [10]  121 	ld	hl, #0x103
    0000004E E5               [11]  122 	push	hl
    0000004F CDr00r00         [17]  123 	call	_font_color
                                    124 ;src/fonts.c:37: min_font = font_load(font_min);
    00000052 21r00r00         [10]  125 	ld	hl, #_font_min
    00000055 E3               [19]  126 	ex	(sp),hl
    00000056 CDr00r00         [17]  127 	call	_font_load
    00000059 F1               [10]  128 	pop	af
    0000005A DD 75 FE         [19]  129 	ld	-2 (ix), l
    0000005D DD 74 FF         [19]  130 	ld	-1 (ix), h
                                    131 ;src/fonts.c:40: mode(get_mode() | M_NO_SCROLL);
    00000060 CDr00r00         [17]  132 	call	_get_mode
    00000063 7D               [ 4]  133 	ld	a, l
    00000064 F6 04            [ 7]  134 	or	a, #0x04
    00000066 F5               [11]  135 	push	af
    00000067 33               [ 6]  136 	inc	sp
    00000068 CDr00r00         [17]  137 	call	_mode
    0000006B 33               [ 6]  138 	inc	sp
                                    139 ;src/fonts.c:45: font_set(ibm_font);
    0000006C E1               [10]  140 	pop	hl
    0000006D E5               [11]  141 	push	hl
    0000006E E5               [11]  142 	push	hl
    0000006F CDr00r00         [17]  143 	call	_font_set
    00000072 F1               [10]  144 	pop	af
                                    145 ;src/fonts.c:48: printf("IBM Font #!?123\n");
    00000073 21rECr00         [10]  146 	ld	hl, #___str_8
    00000076 CDr00r00         [17]  147 	call	_puts
                                    148 ;src/fonts.c:51: font_set(italic_font);
    00000079 D1               [10]  149 	pop	de
    0000007A E1               [10]  150 	pop	hl
    0000007B E5               [11]  151 	push	hl
    0000007C D5               [11]  152 	push	de
    0000007D E5               [11]  153 	push	hl
    0000007E CDr00r00         [17]  154 	call	_font_set
    00000081 F1               [10]  155 	pop	af
                                    156 ;src/fonts.c:52: for (i=1; i!=5; i++) {
    00000082 01 01 00         [10]  157 	ld	bc, #0x0001
    00000085                        158 00102$:
                                    159 ;src/fonts.c:53: printf("In italics, line %u\n", i);
    00000085 C5               [11]  160 	push	bc
    00000086 C5               [11]  161 	push	bc
    00000087 21rBBr00         [10]  162 	ld	hl, #___str_4
    0000008A E5               [11]  163 	push	hl
    0000008B CDr00r00         [17]  164 	call	_printf
    0000008E F1               [10]  165 	pop	af
    0000008F F1               [10]  166 	pop	af
    00000090 C1               [10]  167 	pop	bc
                                    168 ;src/fonts.c:52: for (i=1; i!=5; i++) {
    00000091 03               [ 6]  169 	inc	bc
    00000092 79               [ 4]  170 	ld	a, c
    00000093 D6 05            [ 7]  171 	sub	a, #0x05
    00000095 B0               [ 4]  172 	or	a, b
    00000096 20 ED            [12]  173 	jr	NZ, 00102$
                                    174 ;src/fonts.c:57: font_set(min_font);
    00000098 DD 6E FE         [19]  175 	ld	l, -2 (ix)
                                    176 ;	spillPairReg hl
                                    177 ;	spillPairReg hl
    0000009B DD 66 FF         [19]  178 	ld	h, -1 (ix)
                                    179 ;	spillPairReg hl
                                    180 ;	spillPairReg hl
    0000009E E5               [11]  181 	push	hl
    0000009F CDr00r00         [17]  182 	call	_font_set
    000000A2 F1               [10]  183 	pop	af
                                    184 ;src/fonts.c:58: printf("Minimal 36 tile font\n");
    000000A3 21rD0r00         [10]  185 	ld	hl, #___str_6
    000000A6 CDr00r00         [17]  186 	call	_puts
                                    187 ;src/fonts.c:61: font_set(ibm_font);
    000000A9 E1               [10]  188 	pop	hl
    000000AA E5               [11]  189 	push	hl
    000000AB E5               [11]  190 	push	hl
    000000AC CDr00r00         [17]  191 	call	_font_set
                                    192 ;src/fonts.c:62: printf("\nDone!");
    000000AF 21rE5r00         [10]  193 	ld	hl, #___str_7
    000000B2 E3               [19]  194 	ex	(sp),hl
    000000B3 CDr00r00         [17]  195 	call	_printf
                                    196 ;src/fonts.c:63: }
    000000B6 DD F9            [10]  197 	ld	sp,ix
    000000B8 DD E1            [14]  198 	pop	ix
    000000BA C9               [10]  199 	ret
    000000BB                        200 ___str_4:
    000000BB 49 6E 20 69 74 61 6C   201 	.ascii "In italics, line %u"
             69 63 73 2C 20 6C 69
             6E 65 20 25 75
    000000CE 0A                     202 	.db 0x0a
    000000CF 00                     203 	.db 0x00
    000000D0                        204 ___str_6:
    000000D0 4D 69 6E 69 6D 61 6C   205 	.ascii "Minimal 36 tile font"
             20 33 36 20 74 69 6C
             65 20 66 6F 6E 74
    000000E4 00                     206 	.db 0x00
    000000E5                        207 ___str_7:
    000000E5 0A                     208 	.db 0x0a
    000000E6 44 6F 6E 65 21         209 	.ascii "Done!"
    000000EB 00                     210 	.db 0x00
    000000EC                        211 ___str_8:
    000000EC 46 6F 6E 74 20 64 65   212 	.ascii "Font demo."
             6D 6F 2E
    000000F6 0A                     213 	.db 0x0a
    000000F7 0A                     214 	.db 0x0a
    000000F8 49 42 4D 20 46 6F 6E   215 	.ascii "IBM Font #!?123"
             74 20 23 21 3F 31 32
             33
    00000107 00                     216 	.db 0x00
                                    217 	.area _CODE
                                    218 	.area _INITIALIZER
                                    219 	.area _CABS (ABS)
