ASxxxx Linker V03.00/V05.40 + sdld,  page 1.
Hexadecimal  [32-Bits]

Area                       Addr        Size        Decimal Bytes (Attributes)
--------------------       ----        ----        ------- ----- ------------
_FONT_HEADER0          00000000    00000003 =           3. bytes (ABS,CON)

        Value  Global            Value  Global            Value  Global    
        -----  ------            -----  ------            -----  ------    
     00000000  l_VECTORS |    00000000  l__BASE   |    00000000  l__CABS  
     00000000  l__DABS   |    00000000  l__FONT_H |    00000000  l__GSFINA
     00000000  l__GSINIT |    00000000  l__HEAP   |    00000000  l__HEAP_E
     00000000  l__INITIA |    00000000  l__INITIA |    00000000  l__LIT   
     00000000  l__OSEG   |    00000000  l__RODATA |    00000000  s_OSEG   
     00000000  s_VECTORS |    00000000  s_VECTORS |    00000000  s__CABS  
     00000000  s__DABS   |    00000000  s__FONT_H |    00000000  s__FONT_H
     00000003  l__FONT_H |    00000006  l_VECTORS |    0000000B  l_OSEG   
     0000000D  l_GBDKOVR |    00000010  s_GBDKOVR |    00000018  l__DATA  
     00000018  l__XINIT  |    00000020  s__ZP     |    00000024  l__ZP    
     00000044  s__OSEG   |    0000004F  l__BSS    |    00000300  s__DATA  
     00000318  s__BSS    |    00000367  s__HEAP   |    00000367  s__HEAP_E
     00000367  s__INITIA |    0000064A  l__CODE   |    00000F93  l__HOME  
     0000C000  s__CODE   |    0000C64A  s__HOME   |    0000D5DD  s__BASE  
     0000D5DD  s__INITIA |    0000D5DD  s__LIT    |    0000D5DD  s__RODATA
     0000D5DD  s__XINIT  |    0000D5F5  s__GSFINA |    0000D5F5  s__GSINIT
ASxxxx Linker V03.00/V05.40 + sdld,  page 2.
Hexadecimal  [32-Bits]

Area                       Addr        Size        Decimal Bytes (Attributes)
--------------------       ----        ----        ------- ----- ------------
VECTORS0               00000000    00000006 =           6. bytes (ABS,CON)

        Value  Global            Value  Global            Value  Global    
        -----  ------            -----  ------            -----  ------    
ASxxxx Linker V03.00/V05.40 + sdld,  page 3.
Hexadecimal  [32-Bits]

Area                       Addr        Size        Decimal Bytes (Attributes)
--------------------       ----        ----        ------- ----- ------------
.  .ABS.               00000000    00000000 =           0. bytes (ABS,CON)

        Value  Global            Value  Global            Value  Global    
        -----  ------            -----  ------            -----  ------    
     00000000  .__.ABS.  |    00000100  __vram_tr |    00000188  _attribut
     00000200  _shadow_O |    00002000  _PPUCTRL  |    00002001  _PPUMASK 
     00002002  _PPUSTATU |    00002003  _OAMADDR  |    00002004  _OAMDATA 
     00002005  _PPUSCROL |    00002006  _PPUADDR  |    00002007  _PPUDATA 
     00004014  _OAMDMA  
ASxxxx Linker V03.00/V05.40 + sdld,  page 4.
Hexadecimal  [32-Bits]

Area                       Addr        Size        Decimal Bytes (Attributes)
--------------------       ----        ----        ------- ----- ------------
_CODE                  0000C000    0000064A =        1610. bytes (REL,CON)

        Value  Global            Value  Global            Value  Global    
        -----  ------            -----  ------            -----  ------    
     0000C000  .identity |    0000C000  _identity |    0000C1C2  .delay_to
     0000C358  .wait_vbl |    0000C358  _vsync    |    0000C358  _wait_vbl
     0000C3D8  .display_ |    0000C3D8  _display_ |    0000C3E5  .display_
     0000C3E5  _display_ |    0000C4ED  _main     |    0000C5F4  ___memcpy
     0000C626  .add_VBL  |    0000C626  _add_VBL  |    0000C62A  .add_LCD 
     0000C62A  _add_LCD  |    0000C63C  .remove_V |    0000C63C  _remove_V
     0000C640  .remove_L |    0000C640  _remove_L
ASxxxx Linker V03.00/V05.40 + sdld,  page 5.
Hexadecimal  [32-Bits]

Area                       Addr        Size        Decimal Bytes (Attributes)
--------------------       ----        ----        ------- ----- ------------
_HOME                  0000C64A    00000F93 =        3987. bytes (REL,CON)

        Value  Global            Value  Global            Value  Global    
        -----  ------            -----  ------            -----  ------    
     0000C64A  .ppu_stri |    0000C65F  .ppu_stri |    0000C6A7  .ppu_stri
     0000C6D5  .ppu_stri |    0000C6E9  .ppu_stri |    0000C6E9  _set_vram
     0000C7D6  _font_loa |    0000C7DE  font_load |    0000C846  font_copy
     0000C899  font_set  |    0000C8B2  .put_char |    0000C8C7  .out_char
     0000C8CD  .del_char |    0000C91C  _putchar  |    0000C91F  _setchar 
     0000C922  _font_loa |    0000C925  _font_set |    0000C929  _font_ini
     0000C947  .cls      |    0000C947  _cls      |    0000C950  _gotoxy  
     0000C957  _posx     |    0000C965  _posy     |    0000C98B  .cr_curs 
     0000C9A1  .adv_curs |    0000C9D7  .tmode    |    0000C9E1  .tmode_ou
     0000C9EA  _set_bkg_ |    0000CA75  _flush_sh |    0000CB70  _hide_spr
     0000CB88  _uint2bcd |    0000CC00  _bcd_add  |    0000CC3A  _bcd_sub 
     0000CC77  _bcd2text |    0000CCA9  _font_spe |    0000D02B  _set_bkg_
     0000D03D  _set_spri |    0000D155  _get_bkg_ |    0000D16E  _set_bkg_
     0000D174  _set_bkg_ |    0000D1D5  _set_bkg_ |    0000D22B  _font_ibm
ASxxxx Linker V03.00/V05.40 + sdld,  page 6.
Hexadecimal  [32-Bits]

Area                       Addr        Size        Decimal Bytes (Attributes)
--------------------       ----        ----        ------- ----- ------------
_XINIT                 0000D5DD    00000018 =          24. bytes (REL,CON)

        Value  Global            Value  Global            Value  Global    
        -----  ------            -----  ------            -----  ------    
ASxxxx Linker V03.00/V05.40 + sdld,  page 7.
Hexadecimal  [32-Bits]

Area                       Addr        Size        Decimal Bytes (Attributes)
--------------------       ----        ----        ------- ----- ------------
_DATA                  00000300    00000018 =          24. bytes (REL,CON)

        Value  Global            Value  Global            Value  Global    
        -----  ------            -----  ------            -----  ------    
     00000300  _bcd      |    00000304  _bcd2     |    00000308  _bcd3    
     0000030C  _len      |    0000030D  .curx     |    0000030E  .cury    
     0000030F  ___render |    00000310  .jmp_to_V |    00000313  .jmp_to_L
     00000316  .fg_colou |    00000316  __current |    00000317  .bg_colou
ASxxxx Linker V03.00/V05.40 + sdld,  page 8.
Hexadecimal  [32-Bits]

Area                       Addr        Size        Decimal Bytes (Attributes)
--------------------       ----        ----        ------- ----- ------------
_BSS                   00000318    0000004F =          79. bytes (REL,CON)

        Value  Global            Value  Global            Value  Global    
        -----  ------            -----  ------            -----  ------    
     00000318  __crt0_pa |    00000331  .mode     |    00000347  _buf     
     00000351  font_curr |    00000354  font_firs |    00000355  font_tabl
ASxxxx Linker V03.00/V05.40 + sdld,  page 9.
Hexadecimal  [32-Bits]

Area                       Addr        Size        Decimal Bytes (Attributes)
--------------------       ----        ----        ------- ----- ------------
OSEG                   00000000    0000000B =          11. bytes (REL,OVR,PAG)

        Value  Global            Value  Global            Value  Global    
        -----  ------            -----  ------            -----  ------    
     00000000  ___memcpy |    00000000  _bcd2text |    00000001  _bcd2text
     00000002  ___memcpy |    00000007  _bcd_add_ |    00000007  _bcd_sub_
     00000007  _uint2bcd
ASxxxx Linker V03.00/V05.40 + sdld,  page 10.
Hexadecimal  [32-Bits]

Area                       Addr        Size        Decimal Bytes (Attributes)
--------------------       ----        ----        ------- ----- ------------
GBDKOVR                00000010    0000000D =          13. bytes (REL,OVR,PAG)

        Value  Global            Value  Global            Value  Global    
        -----  ------            -----  ------            -----  ------    
     00000010  _set_bkg_ |    00000010  _set_bkg_ |    00000010  _set_bkg_
     00000010  _set_bkg_ |    00000010  _set_spri |    00000010  _set_vram
     00000011  .bkg_tile |    00000011  _set_bkg_ |    00000012  _set_bkg_
ASxxxx Linker V03.00/V05.40 + sdld,  page 11.
Hexadecimal  [32-Bits]

Area                       Addr        Size        Decimal Bytes (Attributes)
--------------------       ----        ----        ------- ----- ------------
_ZP                    00000020    00000024 =          36. bytes (REL,CON,PAG)

        Value  Global            Value  Global            Value  Global    
        -----  ------            -----  ------            -----  ------    
     00000020  __shadow_ |    00000021  __current |    00000022  _sys_time
     00000024  _shadow_P |    00000025  _shadow_P |    00000028  _bkg_scro
     00000029  _bkg_scro |    0000002A  _attribut |    0000002B  _attribut
     0000002C  .crt0_for |    0000002D  __SYSTEM  |    0000002E  __vram_tr
     0000002F  __vram_tr |    00000030  __vram_tr |    00000031  __vram_tr
     00000032  REGTEMP   |    0000003A  __lcd_sca |    0000003B  __map_til
     0000003C  ___SDCC_m |    0000003D  ___SDCC_m |    0000003E  ___SDCC_m
     0000003F  ___SDCC_m |    00000040  ___SDCC_m |    00000041  ___SDCC_m
     00000042  ___SDCC_m |    00000043  ___SDCC_m
ASxxxx Linker V03.00/V05.40 + sdld,  page 12.

Files Linked                              [ module(s) ]

../../../lib/nes/crt0.o                   [ crt0 ]
obj/nes/bcd.rel                           [ bcd ]


Libraries Linked                          [ object file ]

../../../lib/nes/nes.lib                  [ vram_transfer_buffer.o ]
../../../lib/nes/nes.lib                  [ font.o ]
../../../lib/mos6502/mos6502.lib          [ _memcpy.o ]
../../../lib/nes/nes.lib                  [ set_1bit_data.o ]
../../../lib/nes/nes.lib                  [ flush_attributes.o ]
../../../lib/nes/nes.lib                  [ metasprites_hide_spr.o ]
../../../lib/mos6502/mos6502.lib          [ bcd.o ]
../../../lib/nes/nes.lib                  [ f_spect.o ]
../../../lib/mos6502/mos6502.lib          [ _temp.o ]
../../../lib/nes/nes.lib                  [ lcd.o ]
../../../lib/nes/nes.lib                  [ set_data.o ]
../../../lib/nes/nes.lib                  [ set_tile.o ]
../../../lib/nes/nes.lib                  [ set_bk_ts.o ]
../../../lib/nes/nes.lib                  [ color.o ]
../../../lib/mos6502/mos6502.lib          [ _ret01.o ]
../../../lib/nes/nes.lib                  [ f_ibm_sh.o ]
../../../lib/mos6502/mos6502.lib          [ _ret23.o ]
../../../lib/mos6502/mos6502.lib          [ _ret4567.o ]

ASxxxx Linker V03.00/V05.40 + sdld,  page 13.

User Base Address Definitions

_DATA=0x0300
_CODE=0xC000
VECTORS=0xFFFA
OSEG=0x00
GBDKOVR=0x10
_ZP=0x20

